

Microchip MPLAB XC8 Assembler V2.32 build 20210201212658 
                                                                                               Sat Mar 25 07:48:42 2023

Microchip MPLAB XC8 C Compiler v2.32 (Free license) build 20210201212658 Og1 
     1                           	processor	16F877A
     2                           	pagewidth 120
     3                           	opt	flic
     4                           	psect	idataBANK1,global,class=CODE,delta=2,noexec
     5                           	psect	strings,global,class=STRING,delta=2,noexec
     6                           	psect	cinit,global,class=CODE,merge=1,delta=2
     7                           	psect	bssCOMMON,global,class=COMMON,space=1,delta=1,noexec
     8                           	psect	bssBANK0,global,class=BANK0,space=1,delta=1,noexec
     9                           	psect	bssBANK1,global,class=BANK1,space=1,delta=1,noexec
    10                           	psect	dataBANK1,global,class=BANK1,space=1,delta=1,noexec
    11                           	psect	inittext,global,class=CODE,delta=2
    12                           	psect	clrtext,global,class=CODE,delta=2
    13                           	psect	cstackBANK3,global,class=BANK3,space=1,delta=1,noexec
    14                           	psect	cstackCOMMON,global,class=COMMON,space=1,delta=1,noexec
    15                           	psect	cstackBANK0,global,class=BANK0,space=1,delta=1,noexec
    16                           	psect	maintext,global,class=CODE,split=1,delta=2
    17                           	psect	text1,local,class=CODE,merge=1,delta=2
    18                           	psect	text2,local,class=CODE,merge=1,delta=2
    19                           	psect	text3,local,class=CODE,merge=1,delta=2
    20                           	psect	text4,local,class=CODE,merge=1,delta=2
    21                           	psect	text5,local,class=CODE,merge=1,delta=2
    22                           	psect	text6,local,class=CODE,merge=1,delta=2
    23                           	psect	text7,local,class=CODE,merge=1,delta=2
    24                           	psect	text8,local,class=CODE,merge=1,delta=2
    25                           	psect	text9,local,class=CODE,merge=1,delta=2
    26                           	psect	text10,local,class=CODE,merge=1,delta=2
    27                           	psect	text11,local,class=CODE,merge=1,delta=2,group=1
    28                           	psect	text12,local,class=CODE,merge=1,delta=2
    29                           	psect	text13,local,class=CODE,merge=1,delta=2
    30                           	psect	text14,local,class=CODE,merge=1,delta=2
    31                           	psect	text15,local,class=CODE,merge=1,delta=2
    32                           	psect	text16,local,class=CODE,merge=1,delta=2
    33                           	psect	text17,local,class=CODE,merge=1,delta=2
    34                           	psect	text18,local,class=CODE,merge=1,delta=2
    35                           	psect	text19,local,class=CODE,merge=1,delta=2
    36                           	psect	text20,local,class=CODE,merge=1,delta=2
    37                           	psect	text21,local,class=CODE,merge=1,delta=2,group=2
    38                           	psect	text22,local,class=CODE,merge=1,delta=2
    39                           	psect	text23,local,class=CODE,merge=1,delta=2
    40                           	psect	text24,local,class=CODE,merge=1,delta=2
    41                           	psect	text25,local,class=CODE,merge=1,delta=2
    42                           	psect	text26,local,class=CODE,merge=1,delta=2
    43                           	psect	text27,local,class=CODE,merge=1,delta=2,group=1
    44                           	psect	text28,local,class=CODE,merge=1,delta=2
    45                           	psect	text29,local,class=CODE,merge=1,delta=2
    46                           	psect	text30,local,class=CODE,merge=1,delta=2
    47                           	psect	text31,local,class=CODE,merge=1,delta=2
    48                           	psect	text32,local,class=CODE,merge=1,delta=2
    49                           	psect	text33,local,class=CODE,merge=1,delta=2
    50                           	psect	text34,local,class=CODE,merge=1,delta=2
    51                           	psect	text35,local,class=CODE,merge=1,delta=2
    52                           	psect	text36,local,class=CODE,merge=1,delta=2
    53                           	psect	text37,local,class=CODE,merge=1,delta=2
    54                           	psect	text38,local,class=CODE,merge=1,delta=2,group=1
    55                           	psect	text39,local,class=CODE,merge=1,delta=2,group=1
    56                           	psect	text40,local,class=CODE,merge=1,delta=2
    57                           	psect	text41,local,class=CODE,merge=1,delta=2
    58                           	psect	text42,local,class=CODE,merge=1,delta=2
    59                           	psect	text43,local,class=CODE,merge=1,delta=2
    60                           	psect	text44,local,class=CODE,merge=1,delta=2
    61                           	psect	text45,local,class=CODE,merge=1,delta=2
    62                           	psect	text46,local,class=CODE,merge=1,delta=2
    63                           	psect	text47,local,class=CODE,merge=1,delta=2
    64                           	psect	intentry,global,class=CODE,delta=2
    65                           	psect	config,global,abs,ovrld,class=CONFIG,space=4,delta=2,noexec
    66                           	dabs	1,0x7E,2
    67  0000                     
    68                           ; Version 2.20
    69                           ; Generated 12/02/2020 GMT
    70                           ; 
    71                           ; Copyright © 2020, Microchip Technology Inc. and its subsidiaries ("Microchip")
    72                           ; All rights reserved.
    73                           ; 
    74                           ; This software is developed by Microchip Technology Inc. and its subsidiaries ("Microch
      +                          ip").
    75                           ; 
    76                           ; Redistribution and use in source and binary forms, with or without modification, are
    77                           ; permitted provided that the following conditions are met:
    78                           ; 
    79                           ;     1. Redistributions of source code must retain the above copyright notice, this lis
      +                          t of
    80                           ;        conditions and the following disclaimer.
    81                           ; 
    82                           ;     2. Redistributions in binary form must reproduce the above copyright notice, this 
      +                          list
    83                           ;        of conditions and the following disclaimer in the documentation and/or other
    84                           ;        materials provided with the distribution.
    85                           ; 
    86                           ;     3. Microchip's name may not be used to endorse or promote products derived from th
      +                          is
    87                           ;        software without specific prior written permission.
    88                           ; 
    89                           ; THIS SOFTWARE IS PROVIDED BY MICROCHIP "AS IS" AND ANY EXPRESS OR IMPLIED WARRANTIES,
    90                           ; INCLUDING, BUT NOT LIMITED TO, THE IMPLIED WARRANTIES OF MERCHANTABILITY AND FITNESS F
      +                          OR
    91                           ; PURPOSE ARE DISCLAIMED.  IN NO EVENT SHALL MICROCHIP BE LIABLE FOR ANY DIRECT, INDIREC
      +                          T,
    92                           ; INCIDENTAL, SPECIAL, EXEMPLARY, OR CONSEQUENTIAL DAMAGES (INCLUDING BUT NOT LIMITED TO
    93                           ; PROCUREMENT OF SUBSTITUTE GOODS OR SERVICES; LOSS OF USE, DATA OR PROFITS; OR BUSINESS
    94                           ; INTERRUPTION) HOWSOEVER CAUSED AND ON ANY THEORY OF LIABILITY, WHETHER IN CONTRACT, ST
      +                          RICT
    95                           ; LIABILITY, OR TORT (INCLUDING NEGLIGENCE OR OTHERWISE) ARISING IN ANY WAY OUT OF THE U
      +                          SE OF
    96                           ; THIS SOFTWARE, EVEN IF ADVISED OF THE POSSIBILITY OF SUCH DAMAGE.
    97                           ; 
    98                           ; 
    99                           ; Code-generator required, PIC16F877A Definitions
   100                           ; 
   101                           ; SFR Addresses
   102  0000                     	;# 
   103  0001                     	;# 
   104  0002                     	;# 
   105  0003                     	;# 
   106  0004                     	;# 
   107  0005                     	;# 
   108  0006                     	;# 
   109  0007                     	;# 
   110  0008                     	;# 
   111  0009                     	;# 
   112  000A                     	;# 
   113  000B                     	;# 
   114  000C                     	;# 
   115  000D                     	;# 
   116  000E                     	;# 
   117  000E                     	;# 
   118  000F                     	;# 
   119  0010                     	;# 
   120  0011                     	;# 
   121  0012                     	;# 
   122  0013                     	;# 
   123  0014                     	;# 
   124  0015                     	;# 
   125  0015                     	;# 
   126  0016                     	;# 
   127  0017                     	;# 
   128  0018                     	;# 
   129  0019                     	;# 
   130  001A                     	;# 
   131  001B                     	;# 
   132  001B                     	;# 
   133  001C                     	;# 
   134  001D                     	;# 
   135  001E                     	;# 
   136  001F                     	;# 
   137  0081                     	;# 
   138  0085                     	;# 
   139  0086                     	;# 
   140  0087                     	;# 
   141  0088                     	;# 
   142  0089                     	;# 
   143  008C                     	;# 
   144  008D                     	;# 
   145  008E                     	;# 
   146  0091                     	;# 
   147  0092                     	;# 
   148  0093                     	;# 
   149  0094                     	;# 
   150  0098                     	;# 
   151  0099                     	;# 
   152  009C                     	;# 
   153  009D                     	;# 
   154  009E                     	;# 
   155  009F                     	;# 
   156  010C                     	;# 
   157  010D                     	;# 
   158  010E                     	;# 
   159  010F                     	;# 
   160  018C                     	;# 
   161  018D                     	;# 
   162  0000                     	;# 
   163  0001                     	;# 
   164  0002                     	;# 
   165  0003                     	;# 
   166  0004                     	;# 
   167  0005                     	;# 
   168  0006                     	;# 
   169  0007                     	;# 
   170  0008                     	;# 
   171  0009                     	;# 
   172  000A                     	;# 
   173  000B                     	;# 
   174  000C                     	;# 
   175  000D                     	;# 
   176  000E                     	;# 
   177  000E                     	;# 
   178  000F                     	;# 
   179  0010                     	;# 
   180  0011                     	;# 
   181  0012                     	;# 
   182  0013                     	;# 
   183  0014                     	;# 
   184  0015                     	;# 
   185  0015                     	;# 
   186  0016                     	;# 
   187  0017                     	;# 
   188  0018                     	;# 
   189  0019                     	;# 
   190  001A                     	;# 
   191  001B                     	;# 
   192  001B                     	;# 
   193  001C                     	;# 
   194  001D                     	;# 
   195  001E                     	;# 
   196  001F                     	;# 
   197  0081                     	;# 
   198  0085                     	;# 
   199  0086                     	;# 
   200  0087                     	;# 
   201  0088                     	;# 
   202  0089                     	;# 
   203  008C                     	;# 
   204  008D                     	;# 
   205  008E                     	;# 
   206  0091                     	;# 
   207  0092                     	;# 
   208  0093                     	;# 
   209  0094                     	;# 
   210  0098                     	;# 
   211  0099                     	;# 
   212  009C                     	;# 
   213  009D                     	;# 
   214  009E                     	;# 
   215  009F                     	;# 
   216  010C                     	;# 
   217  010D                     	;# 
   218  010E                     	;# 
   219  010F                     	;# 
   220  018C                     	;# 
   221  018D                     	;# 
   222  0000                     	;# 
   223  0001                     	;# 
   224  0002                     	;# 
   225  0003                     	;# 
   226  0004                     	;# 
   227  0005                     	;# 
   228  0006                     	;# 
   229  0007                     	;# 
   230  0008                     	;# 
   231  0009                     	;# 
   232  000A                     	;# 
   233  000B                     	;# 
   234  000C                     	;# 
   235  000D                     	;# 
   236  000E                     	;# 
   237  000E                     	;# 
   238  000F                     	;# 
   239  0010                     	;# 
   240  0011                     	;# 
   241  0012                     	;# 
   242  0013                     	;# 
   243  0014                     	;# 
   244  0015                     	;# 
   245  0015                     	;# 
   246  0016                     	;# 
   247  0017                     	;# 
   248  0018                     	;# 
   249  0019                     	;# 
   250  001A                     	;# 
   251  001B                     	;# 
   252  001B                     	;# 
   253  001C                     	;# 
   254  001D                     	;# 
   255  001E                     	;# 
   256  001F                     	;# 
   257  0081                     	;# 
   258  0085                     	;# 
   259  0086                     	;# 
   260  0087                     	;# 
   261  0088                     	;# 
   262  0089                     	;# 
   263  008C                     	;# 
   264  008D                     	;# 
   265  008E                     	;# 
   266  0091                     	;# 
   267  0092                     	;# 
   268  0093                     	;# 
   269  0094                     	;# 
   270  0098                     	;# 
   271  0099                     	;# 
   272  009C                     	;# 
   273  009D                     	;# 
   274  009E                     	;# 
   275  009F                     	;# 
   276  010C                     	;# 
   277  010D                     	;# 
   278  010E                     	;# 
   279  010F                     	;# 
   280  018C                     	;# 
   281  018D                     	;# 
   282  0000                     	;# 
   283  0001                     	;# 
   284  0002                     	;# 
   285  0003                     	;# 
   286  0004                     	;# 
   287  0005                     	;# 
   288  0006                     	;# 
   289  0007                     	;# 
   290  0008                     	;# 
   291  0009                     	;# 
   292  000A                     	;# 
   293  000B                     	;# 
   294  000C                     	;# 
   295  000D                     	;# 
   296  000E                     	;# 
   297  000E                     	;# 
   298  000F                     	;# 
   299  0010                     	;# 
   300  0011                     	;# 
   301  0012                     	;# 
   302  0013                     	;# 
   303  0014                     	;# 
   304  0015                     	;# 
   305  0015                     	;# 
   306  0016                     	;# 
   307  0017                     	;# 
   308  0018                     	;# 
   309  0019                     	;# 
   310  001A                     	;# 
   311  001B                     	;# 
   312  001B                     	;# 
   313  001C                     	;# 
   314  001D                     	;# 
   315  001E                     	;# 
   316  001F                     	;# 
   317  0081                     	;# 
   318  0085                     	;# 
   319  0086                     	;# 
   320  0087                     	;# 
   321  0088                     	;# 
   322  0089                     	;# 
   323  008C                     	;# 
   324  008D                     	;# 
   325  008E                     	;# 
   326  0091                     	;# 
   327  0092                     	;# 
   328  0093                     	;# 
   329  0094                     	;# 
   330  0098                     	;# 
   331  0099                     	;# 
   332  009C                     	;# 
   333  009D                     	;# 
   334  009E                     	;# 
   335  009F                     	;# 
   336  010C                     	;# 
   337  010D                     	;# 
   338  010E                     	;# 
   339  010F                     	;# 
   340  018C                     	;# 
   341  018D                     	;# 
   342  0000                     	;# 
   343  0001                     	;# 
   344  0002                     	;# 
   345  0003                     	;# 
   346  0004                     	;# 
   347  0005                     	;# 
   348  0006                     	;# 
   349  0007                     	;# 
   350  0008                     	;# 
   351  0009                     	;# 
   352  000A                     	;# 
   353  000B                     	;# 
   354  000C                     	;# 
   355  000D                     	;# 
   356  000E                     	;# 
   357  000E                     	;# 
   358  000F                     	;# 
   359  0010                     	;# 
   360  0011                     	;# 
   361  0012                     	;# 
   362  0013                     	;# 
   363  0014                     	;# 
   364  0015                     	;# 
   365  0015                     	;# 
   366  0016                     	;# 
   367  0017                     	;# 
   368  0018                     	;# 
   369  0019                     	;# 
   370  001A                     	;# 
   371  001B                     	;# 
   372  001B                     	;# 
   373  001C                     	;# 
   374  001D                     	;# 
   375  001E                     	;# 
   376  001F                     	;# 
   377  0081                     	;# 
   378  0085                     	;# 
   379  0086                     	;# 
   380  0087                     	;# 
   381  0088                     	;# 
   382  0089                     	;# 
   383  008C                     	;# 
   384  008D                     	;# 
   385  008E                     	;# 
   386  0091                     	;# 
   387  0092                     	;# 
   388  0093                     	;# 
   389  0094                     	;# 
   390  0098                     	;# 
   391  0099                     	;# 
   392  009C                     	;# 
   393  009D                     	;# 
   394  009E                     	;# 
   395  009F                     	;# 
   396  010C                     	;# 
   397  010D                     	;# 
   398  010E                     	;# 
   399  010F                     	;# 
   400  018C                     	;# 
   401  018D                     	;# 
   402  0000                     	;# 
   403  0001                     	;# 
   404  0002                     	;# 
   405  0003                     	;# 
   406  0004                     	;# 
   407  0005                     	;# 
   408  0006                     	;# 
   409  0007                     	;# 
   410  0008                     	;# 
   411  0009                     	;# 
   412  000A                     	;# 
   413  000B                     	;# 
   414  000C                     	;# 
   415  000D                     	;# 
   416  000E                     	;# 
   417  000E                     	;# 
   418  000F                     	;# 
   419  0010                     	;# 
   420  0011                     	;# 
   421  0012                     	;# 
   422  0013                     	;# 
   423  0014                     	;# 
   424  0015                     	;# 
   425  0015                     	;# 
   426  0016                     	;# 
   427  0017                     	;# 
   428  0018                     	;# 
   429  0019                     	;# 
   430  001A                     	;# 
   431  001B                     	;# 
   432  001B                     	;# 
   433  001C                     	;# 
   434  001D                     	;# 
   435  001E                     	;# 
   436  001F                     	;# 
   437  0081                     	;# 
   438  0085                     	;# 
   439  0086                     	;# 
   440  0087                     	;# 
   441  0088                     	;# 
   442  0089                     	;# 
   443  008C                     	;# 
   444  008D                     	;# 
   445  008E                     	;# 
   446  0091                     	;# 
   447  0092                     	;# 
   448  0093                     	;# 
   449  0094                     	;# 
   450  0098                     	;# 
   451  0099                     	;# 
   452  009C                     	;# 
   453  009D                     	;# 
   454  009E                     	;# 
   455  009F                     	;# 
   456  010C                     	;# 
   457  010D                     	;# 
   458  010E                     	;# 
   459  010F                     	;# 
   460  018C                     	;# 
   461  018D                     	;# 
   462  0000                     	;# 
   463  0001                     	;# 
   464  0002                     	;# 
   465  0003                     	;# 
   466  0004                     	;# 
   467  0005                     	;# 
   468  0006                     	;# 
   469  0007                     	;# 
   470  0008                     	;# 
   471  0009                     	;# 
   472  000A                     	;# 
   473  000B                     	;# 
   474  000C                     	;# 
   475  000D                     	;# 
   476  000E                     	;# 
   477  000E                     	;# 
   478  000F                     	;# 
   479  0010                     	;# 
   480  0011                     	;# 
   481  0012                     	;# 
   482  0013                     	;# 
   483  0014                     	;# 
   484  0015                     	;# 
   485  0015                     	;# 
   486  0016                     	;# 
   487  0017                     	;# 
   488  0018                     	;# 
   489  0019                     	;# 
   490  001A                     	;# 
   491  001B                     	;# 
   492  001B                     	;# 
   493  001C                     	;# 
   494  001D                     	;# 
   495  001E                     	;# 
   496  001F                     	;# 
   497  0081                     	;# 
   498  0085                     	;# 
   499  0086                     	;# 
   500  0087                     	;# 
   501  0088                     	;# 
   502  0089                     	;# 
   503  008C                     	;# 
   504  008D                     	;# 
   505  008E                     	;# 
   506  0091                     	;# 
   507  0092                     	;# 
   508  0093                     	;# 
   509  0094                     	;# 
   510  0098                     	;# 
   511  0099                     	;# 
   512  009C                     	;# 
   513  009D                     	;# 
   514  009E                     	;# 
   515  009F                     	;# 
   516  010C                     	;# 
   517  010D                     	;# 
   518  010E                     	;# 
   519  010F                     	;# 
   520  018C                     	;# 
   521  018D                     	;# 
   522  0000                     	;# 
   523  0001                     	;# 
   524  0002                     	;# 
   525  0003                     	;# 
   526  0004                     	;# 
   527  0005                     	;# 
   528  0006                     	;# 
   529  0007                     	;# 
   530  0008                     	;# 
   531  0009                     	;# 
   532  000A                     	;# 
   533  000B                     	;# 
   534  000C                     	;# 
   535  000D                     	;# 
   536  000E                     	;# 
   537  000E                     	;# 
   538  000F                     	;# 
   539  0010                     	;# 
   540  0011                     	;# 
   541  0012                     	;# 
   542  0013                     	;# 
   543  0014                     	;# 
   544  0015                     	;# 
   545  0015                     	;# 
   546  0016                     	;# 
   547  0017                     	;# 
   548  0018                     	;# 
   549  0019                     	;# 
   550  001A                     	;# 
   551  001B                     	;# 
   552  001B                     	;# 
   553  001C                     	;# 
   554  001D                     	;# 
   555  001E                     	;# 
   556  001F                     	;# 
   557  0081                     	;# 
   558  0085                     	;# 
   559  0086                     	;# 
   560  0087                     	;# 
   561  0088                     	;# 
   562  0089                     	;# 
   563  008C                     	;# 
   564  008D                     	;# 
   565  008E                     	;# 
   566  0091                     	;# 
   567  0092                     	;# 
   568  0093                     	;# 
   569  0094                     	;# 
   570  0098                     	;# 
   571  0099                     	;# 
   572  009C                     	;# 
   573  009D                     	;# 
   574  009E                     	;# 
   575  009F                     	;# 
   576  010C                     	;# 
   577  010D                     	;# 
   578  010E                     	;# 
   579  010F                     	;# 
   580  018C                     	;# 
   581  018D                     	;# 
   582  0000                     	;# 
   583  0001                     	;# 
   584  0002                     	;# 
   585  0003                     	;# 
   586  0004                     	;# 
   587  0005                     	;# 
   588  0006                     	;# 
   589  0007                     	;# 
   590  0008                     	;# 
   591  0009                     	;# 
   592  000A                     	;# 
   593  000B                     	;# 
   594  000C                     	;# 
   595  000D                     	;# 
   596  000E                     	;# 
   597  000E                     	;# 
   598  000F                     	;# 
   599  0010                     	;# 
   600  0011                     	;# 
   601  0012                     	;# 
   602  0013                     	;# 
   603  0014                     	;# 
   604  0015                     	;# 
   605  0015                     	;# 
   606  0016                     	;# 
   607  0017                     	;# 
   608  0018                     	;# 
   609  0019                     	;# 
   610  001A                     	;# 
   611  001B                     	;# 
   612  001B                     	;# 
   613  001C                     	;# 
   614  001D                     	;# 
   615  001E                     	;# 
   616  001F                     	;# 
   617  0081                     	;# 
   618  0085                     	;# 
   619  0086                     	;# 
   620  0087                     	;# 
   621  0088                     	;# 
   622  0089                     	;# 
   623  008C                     	;# 
   624  008D                     	;# 
   625  008E                     	;# 
   626  0091                     	;# 
   627  0092                     	;# 
   628  0093                     	;# 
   629  0094                     	;# 
   630  0098                     	;# 
   631  0099                     	;# 
   632  009C                     	;# 
   633  009D                     	;# 
   634  009E                     	;# 
   635  009F                     	;# 
   636  010C                     	;# 
   637  010D                     	;# 
   638  010E                     	;# 
   639  010F                     	;# 
   640  018C                     	;# 
   641  018D                     	;# 
   642  0000                     	;# 
   643  0001                     	;# 
   644  0002                     	;# 
   645  0003                     	;# 
   646  0004                     	;# 
   647  0005                     	;# 
   648  0006                     	;# 
   649  0007                     	;# 
   650  0008                     	;# 
   651  0009                     	;# 
   652  000A                     	;# 
   653  000B                     	;# 
   654  000C                     	;# 
   655  000D                     	;# 
   656  000E                     	;# 
   657  000E                     	;# 
   658  000F                     	;# 
   659  0010                     	;# 
   660  0011                     	;# 
   661  0012                     	;# 
   662  0013                     	;# 
   663  0014                     	;# 
   664  0015                     	;# 
   665  0015                     	;# 
   666  0016                     	;# 
   667  0017                     	;# 
   668  0018                     	;# 
   669  0019                     	;# 
   670  001A                     	;# 
   671  001B                     	;# 
   672  001B                     	;# 
   673  001C                     	;# 
   674  001D                     	;# 
   675  001E                     	;# 
   676  001F                     	;# 
   677  0081                     	;# 
   678  0085                     	;# 
   679  0086                     	;# 
   680  0087                     	;# 
   681  0088                     	;# 
   682  0089                     	;# 
   683  008C                     	;# 
   684  008D                     	;# 
   685  008E                     	;# 
   686  0091                     	;# 
   687  0092                     	;# 
   688  0093                     	;# 
   689  0094                     	;# 
   690  0098                     	;# 
   691  0099                     	;# 
   692  009C                     	;# 
   693  009D                     	;# 
   694  009E                     	;# 
   695  009F                     	;# 
   696  010C                     	;# 
   697  010D                     	;# 
   698  010E                     	;# 
   699  010F                     	;# 
   700  018C                     	;# 
   701  018D                     	;# 
   702  0000                     	;# 
   703  0001                     	;# 
   704  0002                     	;# 
   705  0003                     	;# 
   706  0004                     	;# 
   707  0005                     	;# 
   708  0006                     	;# 
   709  0007                     	;# 
   710  0008                     	;# 
   711  0009                     	;# 
   712  000A                     	;# 
   713  000B                     	;# 
   714  000C                     	;# 
   715  000D                     	;# 
   716  000E                     	;# 
   717  000E                     	;# 
   718  000F                     	;# 
   719  0010                     	;# 
   720  0011                     	;# 
   721  0012                     	;# 
   722  0013                     	;# 
   723  0014                     	;# 
   724  0015                     	;# 
   725  0015                     	;# 
   726  0016                     	;# 
   727  0017                     	;# 
   728  0018                     	;# 
   729  0019                     	;# 
   730  001A                     	;# 
   731  001B                     	;# 
   732  001B                     	;# 
   733  001C                     	;# 
   734  001D                     	;# 
   735  001E                     	;# 
   736  001F                     	;# 
   737  0081                     	;# 
   738  0085                     	;# 
   739  0086                     	;# 
   740  0087                     	;# 
   741  0088                     	;# 
   742  0089                     	;# 
   743  008C                     	;# 
   744  008D                     	;# 
   745  008E                     	;# 
   746  0091                     	;# 
   747  0092                     	;# 
   748  0093                     	;# 
   749  0094                     	;# 
   750  0098                     	;# 
   751  0099                     	;# 
   752  009C                     	;# 
   753  009D                     	;# 
   754  009E                     	;# 
   755  009F                     	;# 
   756  010C                     	;# 
   757  010D                     	;# 
   758  010E                     	;# 
   759  010F                     	;# 
   760  018C                     	;# 
   761  018D                     	;# 
   762                           
   763                           	psect	idataBANK1
   764  1B2B                     __pidataBANK1:
   765                           
   766                           ;initializer for _menu_3
   767  1B2B  344E               	retlw	low ((STR_5-__stringbase)| (0+32768))
   768  1B2C  3457               	retlw	low ((STR_6-__stringbase)| (0+32768))
   769                           
   770                           ;initializer for _menu_2
   771  1B2D  3444               	retlw	low ((STR_3-__stringbase)| (0+32768))
   772  1B2E  342B               	retlw	low (((STR_1+4)-__stringbase)| (0+32768))
   773                           
   774                           ;initializer for _menu_1
   775  1B2F  3427               	retlw	low ((STR_1-__stringbase)| (0+32768))
   776  1B30  3436               	retlw	low ((STR_2-__stringbase)| (0+32768))
   777                           
   778                           ;initializer for read_digital_keypad@once
   779  1B31  3401               	retlw	1
   780                           
   781                           	psect	strings
   782  1000                     __pstrings:
   783  1000                     stringtab:
   784  1000                     __stringtab:
   785                           
   786                           ;	String table - string pointers are 1 byte each
   787  1000  1BFF               	btfsc	btemp+1,7
   788  1001  280A               	ljmp	stringcode
   789  1002  1383               	bcf	3,7
   790  1003  187F               	btfsc	btemp+1,0
   791  1004  1783               	bsf	3,7
   792  1005  0800               	movf	0,w
   793  1006  0A84               	incf	4,f
   794  1007  1903               	skipnz
   795  1008  0AFF               	incf	btemp+1,f
   796  1009  0008               	return
   797  100A                     stringcode:
   798  100A                     stringdir:
   799  100A  3010               	movlw	high stringdir
   800  100B  008A               	movwf	10
   801  100C  0804               	movf	4,w
   802  100D  0A84               	incf	4,f
   803  100E  0782               	addwf	2,f
   804  100F                     __stringbase:
   805  100F  3400               	retlw	0
   806  1010                     __end_of__stringtab:
   807  1010                     _times:
   808  1010  344F               	retlw	79
   809  1011  3444               	retlw	68
   810  1012  3457               	retlw	87
   811  1013  3400               	retlw	0
   812  1014                     __end_of_times:
   813  0007                     _PORTC	set	7
   814  0013                     _SSPBUF	set	19
   815  0006                     _PORTB	set	6
   816  0008                     _PORTD	set	8
   817  0092                     _TMR2ON	set	146
   818  005E                     _PEIE	set	94
   819  005F                     _GIE	set	95
   820  0091                     _T2CKPS1	set	145
   821  0090                     _T2CKPS0	set	144
   822  0061                     _TMR2IF	set	97
   823  00A5                     _SSPEN	set	165
   824  00A3                     _SSPM3	set	163
   825  0049                     _RE1	set	73
   826  004A                     _RE2	set	74
   827  0087                     _TRISC	set	135
   828  0092                     _PR2	set	146
   829  0091                     _SSPCON2	set	145
   830  0093                     _SSPADD	set	147
   831  0086                     _TRISB	set	134
   832  0088                     _TRISD	set	136
   833  0461                     _TMR2IE	set	1121
   834  048E                     _ACKSTAT	set	1166
   835  048C                     _ACKEN	set	1164
   836  048D                     _ACKDT	set	1165
   837  048B                     _RCEN	set	1163
   838  048A                     _PEN	set	1162
   839  0488                     _SEN	set	1160
   840  04A2                     _R_nW	set	1186
   841  0449                     _TRISE1	set	1097
   842  044A                     _TRISE2	set	1098
   843  1014                     STR_13:
   844  1014  3420               	retlw	32	;' '
   845  1015  3420               	retlw	32	;' '
   846  1016  3420               	retlw	32	;' '
   847  1017  3420               	retlw	32	;' '
   848  1018  3448               	retlw	72	;'H'
   849  1019  3448               	retlw	72	;'H'
   850  101A  343A               	retlw	58	;':'
   851  101B  344D               	retlw	77	;'M'
   852  101C  344D               	retlw	77	;'M'
   853  101D  343A               	retlw	58	;':'
   854  101E  3453               	retlw	83	;'S'
   855  101F  3453               	retlw	83	;'S'
   856  1020  3420               	retlw	32	;' '
   857  1021  3420               	retlw	32	;' '
   858  1022  3420               	retlw	32	;' '
   859  1023  3420               	retlw	32	;' '
   860  1024  3400               	retlw	0
   861  1025                     STR_14:
   862  1025  3420               	retlw	32	;' '
   863  1026  3420               	retlw	32	;' '
   864  1027  3420               	retlw	32	;' '
   865  1028  3420               	retlw	32	;' '
   866  1029  3444               	retlw	68	;'D'
   867  102A  3444               	retlw	68	;'D'
   868  102B  342D               	retlw	45	;'-'
   869  102C  344D               	retlw	77	;'M'
   870  102D  344D               	retlw	77	;'M'
   871  102E  342D               	retlw	45	;'-'
   872  102F  3459               	retlw	89	;'Y'
   873  1030  3459               	retlw	89	;'Y'
   874  1031  3420               	retlw	32	;' '
   875  1032  3420               	retlw	32	;' '
   876  1033  3420               	retlw	32	;' '
   877  1034  3420               	retlw	32	;' '
   878  1035  3400               	retlw	0
   879  1036                     STR_1:
   880  1036  3453               	retlw	83	;'S'
   881  1037  3445               	retlw	69	;'E'
   882  1038  3454               	retlw	84	;'T'
   883  1039  342F               	retlw	47	;'/'
   884  103A  3456               	retlw	86	;'V'
   885  103B  3449               	retlw	73	;'I'
   886  103C  3445               	retlw	69	;'E'
   887  103D  3457               	retlw	87	;'W'
   888  103E  3420               	retlw	32	;' '
   889  103F  3445               	retlw	69	;'E'
   890  1040  3456               	retlw	86	;'V'
   891  1041  3445               	retlw	69	;'E'
   892  1042  344E               	retlw	78	;'N'
   893  1043  3454               	retlw	84	;'T'
   894  1044  3400               	retlw	0
   895  1045                     STR_2:
   896  1045  3453               	retlw	83	;'S'
   897  1046  3445               	retlw	69	;'E'
   898  1047  3454               	retlw	84	;'T'
   899  1048  3420               	retlw	32	;' '
   900  1049  3454               	retlw	84	;'T'
   901  104A  3449               	retlw	73	;'I'
   902  104B  344D               	retlw	77	;'M'
   903  104C  3445               	retlw	69	;'E'
   904  104D  342F               	retlw	47	;'/'
   905  104E  3444               	retlw	68	;'D'
   906  104F  3441               	retlw	65	;'A'
   907  1050  3454               	retlw	84	;'T'
   908  1051  3445               	retlw	69	;'E'
   909  1052  3400               	retlw	0
   910  1053                     STR_3:
   911  1053  3453               	retlw	83	;'S'
   912  1054  3445               	retlw	69	;'E'
   913  1055  3454               	retlw	84	;'T'
   914  1056  3420               	retlw	32	;' '
   915  1057  3445               	retlw	69	;'E'
   916  1058  3456               	retlw	86	;'V'
   917  1059  3445               	retlw	69	;'E'
   918  105A  344E               	retlw	78	;'N'
   919  105B  3454               	retlw	84	;'T'
   920  105C  3400               	retlw	0
   921  105D                     STR_5:
   922  105D  3453               	retlw	83	;'S'
   923  105E  3445               	retlw	69	;'E'
   924  105F  3454               	retlw	84	;'T'
   925  1060  3420               	retlw	32	;' '
   926  1061  3454               	retlw	84	;'T'
   927  1062  3449               	retlw	73	;'I'
   928  1063  344D               	retlw	77	;'M'
   929  1064  3445               	retlw	69	;'E'
   930  1065  3400               	retlw	0
   931  1066                     STR_6:
   932  1066  3453               	retlw	83	;'S'
   933  1067  3445               	retlw	69	;'E'
   934  1068  3454               	retlw	84	;'T'
   935  1069  3420               	retlw	32	;' '
   936  106A  3444               	retlw	68	;'D'
   937  106B  3441               	retlw	65	;'A'
   938  106C  3454               	retlw	84	;'T'
   939  106D  3445               	retlw	69	;'E'
   940  106E  3400               	retlw	0
   941  106F                     STR_7:
   942  106F  3454               	retlw	84	;'T'
   943  1070  3449               	retlw	73	;'I'
   944  1071  344D               	retlw	77	;'M'
   945  1072  3445               	retlw	69	;'E'
   946  1073  3420               	retlw	32	;' '
   947  1074  3420               	retlw	32	;' '
   948  1075  3400               	retlw	0
   949  1076                     STR_9:
   950  1076  3444               	retlw	68	;'D'
   951  1077  3441               	retlw	65	;'A'
   952  1078  3454               	retlw	84	;'T'
   953  1079  3445               	retlw	69	;'E'
   954  107A  3420               	retlw	32	;' '
   955  107B  3420               	retlw	32	;' '
   956  107C  3400               	retlw	0
   957  107D                     STR_18:
   958  107D  3430               	retlw	48	;'0'
   959  107E  3420               	retlw	32	;' '
   960  107F  3444               	retlw	68	;'D'
   961  1080  3420               	retlw	32	;' '
   962  1081  342D               	retlw	45	;'-'
   963  1082  3420               	retlw	32	;' '
   964  1083  3400               	retlw	0
   965  1084                     STR_16:
   966  1084  3444               	retlw	68	;'D'
   967  1085  3455               	retlw	85	;'U'
   968  1086  3452               	retlw	82	;'R'
   969  1087  3420               	retlw	32	;' '
   970  1088  342D               	retlw	45	;'-'
   971  1089  3420               	retlw	32	;' '
   972  108A  3400               	retlw	0
   973  108B                     STR_17:
   974  108B  3423               	retlw	35	;'#'
   975  108C  3420               	retlw	32	;' '
   976  108D  3454               	retlw	84	;'T'
   977  108E  3420               	retlw	32	;' '
   978  108F  342D               	retlw	45	;'-'
   979  1090  3420               	retlw	32	;' '
   980  1091  3400               	retlw	0
   981  1092                     STR_15:
   982  1092  3454               	retlw	84	;'T'
   983  1093  3449               	retlw	73	;'I'
   984  1094  344D               	retlw	77	;'M'
   985  1095  3445               	retlw	69	;'E'
   986  1096  342D               	retlw	45	;'-'
   987  1097  3420               	retlw	32	;' '
   988  1098  3400               	retlw	0
   989  1099                     STR_8:
   990  1099  3445               	retlw	69	;'E'
   991  109A  3456               	retlw	86	;'V'
   992  109B  3445               	retlw	69	;'E'
   993  109C  344E               	retlw	78	;'N'
   994  109D  3454               	retlw	84	;'T'
   995  109E  3420               	retlw	32	;' '
   996  109F  3400               	retlw	0
   997  10A0                     STR_19:
   998  10A0  3430               	retlw	48	;'0'
   999  10A1  3430               	retlw	48	;'0'
  1000  10A2  3400               	retlw	0
  1001  106F                     
  1002                           	psect	cinit
  1003  0013                     start_initialization:	
  1004                           ; #config settings
  1005                           
  1006  0013                     __initialization:
  1007                           
  1008                           ; Initialize objects allocated to BANK1
  1009  0013  1383               	bcf	3,7	;select IRP bank0
  1010  0014  30E1               	movlw	low (__pdataBANK1+7)
  1011  0015  00FD               	movwf	btemp+-1
  1012  0016  301B               	movlw	high __pidataBANK1
  1013  0017  00FE               	movwf	btemp
  1014  0018  302B               	movlw	low __pidataBANK1
  1015  0019  00FF               	movwf	btemp+1
  1016  001A  30DA               	movlw	low __pdataBANK1
  1017  001B  0084               	movwf	4
  1018  001C  160A  158A  238F  120A  118A  	fcall	init_ram0
  1019                           
  1020                           ; Clear objects allocated to BANK1
  1021  0021  30A0               	movlw	low __pbssBANK1
  1022  0022  0084               	movwf	4
  1023  0023  30DA               	movlw	low (__pbssBANK1+58)
  1024  0024  160A  158A  2332  120A  118A  	fcall	clear_ram0
  1025                           
  1026                           ; Clear objects allocated to BANK0
  1027  0029  3020               	movlw	low __pbssBANK0
  1028  002A  0084               	movwf	4
  1029  002B  3048               	movlw	low (__pbssBANK0+40)
  1030  002C  160A  158A  2332  120A  118A  	fcall	clear_ram0
  1031                           
  1032                           ; Clear objects allocated to COMMON
  1033  0031  01F6               	clrf	__pbssCOMMON& (0+127)
  1034  0032  01F7               	clrf	(__pbssCOMMON+1)& (0+127)
  1035  0033  01F8               	clrf	(__pbssCOMMON+2)& (0+127)
  1036  0034  01F9               	clrf	(__pbssCOMMON+3)& (0+127)
  1037  0035                     end_of_initialization:	
  1038                           ;End of C runtime variable initialization code
  1039                           
  1040  0035                     __end_of__initialization:
  1041  0035  0183               	clrf	3
  1042  0036  120A  158A  2C33   	ljmp	_main	;jump to C main() function
  1043                           
  1044                           	psect	bssCOMMON
  1045  0076                     __pbssCOMMON:
  1046  0076                     _return_time:
  1047  0076                     	ds	2
  1048  0078                     _PM:
  1049  0078                     	ds	1
  1050  0079                     _min:
  1051  0079                     	ds	1
  1052                           
  1053                           	psect	bssBANK0
  1054  0020                     __pbssBANK0:
  1055  0020                     _clock_reg:
  1056  0020                     	ds	3
  1057  0023                     set_event@duration:
  1058  0023                     	ds	1
  1059  0024                     set_event@i:
  1060  0024                     	ds	1
  1061  0025                     set_event@times_flag:
  1062  0025                     	ds	1
  1063  0026                     set_event@duration_flag:
  1064  0026                     	ds	1
  1065  0027                     set_event@flag:
  1066  0027                     	ds	1
  1067  0028                     set_event@hour_flag:
  1068  0028                     	ds	1
  1069  0029                     set_event@minute_flag:
  1070  0029                     	ds	1
  1071  002A                     set_event@am_pm_flag:
  1072  002A                     	ds	1
  1073  002B                     set_date@flag:
  1074  002B                     	ds	1
  1075  002C                     set_date@year_flag:
  1076  002C                     	ds	1
  1077  002D                     set_date@month_flag:
  1078  002D                     	ds	1
  1079  002E                     set_date@day_flag:
  1080  002E                     	ds	1
  1081  002F                     set_time@flag:
  1082  002F                     	ds	1
  1083  0030                     set_time@hour_flag:
  1084  0030                     	ds	1
  1085  0031                     set_time@minute_flag:
  1086  0031                     	ds	1
  1087  0032                     set_time@second_flag:
  1088  0032                     	ds	1
  1089  0033                     menu3@menu_pos:
  1090  0033                     	ds	1
  1091  0034                     menu2@menu_pos:
  1092  0034                     	ds	1
  1093  0035                     menu1@menu_pos:
  1094  0035                     	ds	1
  1095  0036                     _event:
  1096  0036                     	ds	1
  1097  0037                     _year:
  1098  0037                     	ds	1
  1099  0038                     _month:
  1100  0038                     	ds	1
  1101  0039                     _day:
  1102  0039                     	ds	1
  1103  003A                     _hour:
  1104  003A                     	ds	1
  1105  003B                     _minute:
  1106  003B                     	ds	1
  1107  003C                     _second:
  1108  003C                     	ds	1
  1109  003D                     _dur_sec:
  1110  003D                     	ds	1
  1111  003E                     _sec:
  1112  003E                     	ds	1
  1113  003F                     _time:
  1114  003F                     	ds	9
  1115                           
  1116                           	psect	bssBANK1
  1117  00A0                     __pbssBANK1:
  1118  00A0                     _log:
  1119  00A0                     	ds	11
  1120  00AB                     set_date@new_date:
  1121  00AB                     	ds	7
  1122  00B2                     set_time@new_time:
  1123  00B2                     	ds	7
  1124  00B9                     _date_reg:
  1125  00B9                     	ds	4
  1126  00BD                     isr@count:
  1127  00BD                     	ds	2
  1128  00BF                     ring_alarm@alarm_flag:
  1129  00BF                     	ds	1
  1130  00C0                     set_event@delay:
  1131  00C0                     	ds	1
  1132  00C1                     set_date@delay:
  1133  00C1                     	ds	1
  1134  00C2                     set_time@delay:
  1135  00C2                     	ds	1
  1136  00C3                     _date:
  1137  00C3                     	ds	10
  1138  00CD                     _new_event:
  1139  00CD                     	ds	10
  1140  00D7                     _second_time:
  1141  00D7                     	ds	3
  1142                           
  1143                           	psect	dataBANK1
  1144  00DA                     __pdataBANK1:
  1145  00DA                     _menu_3:
  1146  00DA                     	ds	2
  1147  00DC                     _menu_2:
  1148  00DC                     	ds	2
  1149  00DE                     _menu_1:
  1150  00DE                     	ds	2
  1151  00E0                     read_digital_keypad@once:
  1152  00E0                     	ds	1
  1153                           
  1154                           	psect	inittext
  1155  1B8B                     init_fetch0:	
  1156                           ;	Called with low address in FSR and high address in W
  1157                           
  1158  1B8B  087E               	movf	btemp,w
  1159  1B8C  008A               	movwf	10
  1160  1B8D  087F               	movf	btemp+1,w
  1161  1B8E  0082               	movwf	2
  1162  1B8F                     init_ram0:	
  1163                           ;Called with:
  1164                           ;	high address of idata address in btemp 
  1165                           ;	low address of idata address in btemp+1 
  1166                           ;	low address of data in FSR
  1167                           ;	high address + 1 of data in btemp-1
  1168                           
  1169  1B8F  160A  158A  238B  160A  158A  	fcall	init_fetch0
  1170  1B94  0080               	movwf	0
  1171  1B95  0A84               	incf	4,f
  1172  1B96  0804               	movf	4,w
  1173  1B97  067D               	xorwf	btemp+-1,w
  1174  1B98  1903               	btfsc	3,2
  1175  1B99  3400               	retlw	0
  1176  1B9A  0AFF               	incf	btemp+1,f
  1177  1B9B  1903               	btfsc	3,2
  1178  1B9C  0AFE               	incf	btemp,f
  1179  1B9D  2B8F               	goto	init_ram0
  1180                           
  1181                           	psect	clrtext
  1182  1B32                     clear_ram0:	
  1183                           ;	Called with FSR containing the base address, and
  1184                           ;	W with the last address+1
  1185                           
  1186  1B32  0064               	clrwdt	;clear the watchdog before getting into this loop
  1187  1B33                     clrloop0:
  1188  1B33  0180               	clrf	0	;clear RAM location pointed to by FSR
  1189  1B34  0A84               	incf	4,f	;increment pointer
  1190  1B35  0604               	xorwf	4,w	;XOR with final address
  1191  1B36  1903               	btfsc	3,2	;have we reached the end yet?
  1192  1B37  3400               	retlw	0	;all done for this memory range, return
  1193  1B38  0604               	xorwf	4,w	;XOR again to restore value
  1194  1B39  2B33               	goto	clrloop0	;do the next byte
  1195                           
  1196                           	psect	cstackBANK3
  1197  0190                     __pcstackBANK3:
  1198  0190                     main@delay4:
  1199                           
  1200                           ; 2 bytes @ 0x0
  1201  0190                     	ds	2
  1202  0192                     main@delay5:
  1203                           
  1204                           ; 2 bytes @ 0x2
  1205  0192                     	ds	2
  1206  0194                     main@delay6:
  1207                           
  1208                           ; 2 bytes @ 0x4
  1209  0194                     	ds	2
  1210  0196                     main@delay2:
  1211                           
  1212                           ; 2 bytes @ 0x6
  1213  0196                     	ds	2
  1214  0198                     main@delay3:
  1215                           
  1216                           ; 2 bytes @ 0x8
  1217  0198                     	ds	2
  1218  019A                     main@delay1:
  1219                           
  1220                           ; 2 bytes @ 0xA
  1221  019A                     	ds	2
  1222  019C                     main@menu_pos:
  1223                           
  1224                           ; 1 bytes @ 0xC
  1225  019C                     	ds	1
  1226  019D                     main@key:
  1227                           
  1228                           ; 1 bytes @ 0xD
  1229  019D                     	ds	1
  1230  019E                     main@key_level:
  1231                           
  1232                           ; 1 bytes @ 0xE
  1233  019E                     	ds	1
  1234  019F                     main@reset_flag:
  1235                           
  1236                           ; 1 bytes @ 0xF
  1237  019F                     	ds	1
  1238  01A0                     main@control_flag:
  1239                           
  1240                           ; 1 bytes @ 0x10
  1241  01A0                     	ds	1
  1242                           
  1243                           	psect	cstackCOMMON
  1244  0070                     __pcstackCOMMON:
  1245  0070                     ?_read_ds1307:
  1246  0070                     ?_i2c_start:	
  1247                           ; 1 bytes @ 0x0
  1248                           
  1249  0070                     ?_i2c_rep_start:	
  1250                           ; 1 bytes @ 0x0
  1251                           
  1252  0070                     ?_i2c_read:	
  1253                           ; 1 bytes @ 0x0
  1254                           
  1255  0070                     ?_i2c_stop:	
  1256                           ; 1 bytes @ 0x0
  1257                           
  1258  0070                     ?_init_buzzer:	
  1259                           ; 1 bytes @ 0x0
  1260                           
  1261  0070                     ?_clear_screen:	
  1262                           ; 1 bytes @ 0x0
  1263                           
  1264  0070                     ?_dec2bcd:	
  1265                           ; 1 bytes @ 0x0
  1266                           
  1267  0070                     ?_alarm_event:	
  1268                           ; 1 bytes @ 0x0
  1269                           
  1270  0070                     ?_display_dash_screen:	
  1271                           ; 1 bytes @ 0x0
  1272                           
  1273  0070                     ?_display_event:	
  1274                           ; 1 bytes @ 0x0
  1275                           
  1276  0070                     ?_ring_alarm:	
  1277                           ; 1 bytes @ 0x0
  1278                           
  1279  0070                     ?_alarm:	
  1280                           ; 1 bytes @ 0x0
  1281                           
  1282  0070                     ?_stop_alarm:	
  1283                           ; 1 bytes @ 0x0
  1284                           
  1285  0070                     ?_init_display_controller:	
  1286                           ; 1 bytes @ 0x0
  1287                           
  1288  0070                     ?_init_clcd:	
  1289                           ; 1 bytes @ 0x0
  1290                           
  1291  0070                     ?_init_digital_keypad:	
  1292                           ; 1 bytes @ 0x0
  1293                           
  1294  0070                     ?_read_digital_keypad:	
  1295                           ; 1 bytes @ 0x0
  1296                           
  1297  0070                     ?_init_ds1307:	
  1298                           ; 1 bytes @ 0x0
  1299                           
  1300  0070                     ?_read_EEPROM:	
  1301                           ; 1 bytes @ 0x0
  1302                           
  1303  0070                     ?_i2c_wait_for_idle:	
  1304                           ; 1 bytes @ 0x0
  1305                           
  1306  0070                     ?_isr:	
  1307                           ; 1 bytes @ 0x0
  1308                           
  1309  0070                     ??_isr:	
  1310                           ; 1 bytes @ 0x0
  1311                           
  1312  0070                     ?_init_timer2:	
  1313                           ; 1 bytes @ 0x0
  1314                           
  1315  0070                     ?_init_config:	
  1316                           ; 1 bytes @ 0x0
  1317                           
  1318  0070                     ?_main:	
  1319                           ; 1 bytes @ 0x0
  1320                           
  1321  0070                     ?_get_time:	
  1322                           ; 1 bytes @ 0x0
  1323                           
  1324  0070                     ?_get_date:	
  1325                           ; 1 bytes @ 0x0
  1326                           
  1327  0070                     ?_display_time:	
  1328                           ; 1 bytes @ 0x0
  1329                           
  1330  0070                     ?_display_date:	
  1331                           ; 1 bytes @ 0x0
  1332                           
  1333  0070                     ?_i2c_write:	
  1334                           ; 1 bytes @ 0x0
  1335                           
  1336                           
  1337                           ; 2 bytes @ 0x0
  1338  0070                     	ds	4
  1339  0074                     ??_i2c_start:
  1340  0074                     ??_i2c_write:	
  1341                           ; 1 bytes @ 0x4
  1342                           
  1343  0074                     ??_i2c_rep_start:	
  1344                           ; 1 bytes @ 0x4
  1345                           
  1346  0074                     ??_i2c_read:	
  1347                           ; 1 bytes @ 0x4
  1348                           
  1349  0074                     ??_i2c_stop:	
  1350                           ; 1 bytes @ 0x4
  1351                           
  1352  0074                     ??_init_buzzer:	
  1353                           ; 1 bytes @ 0x4
  1354                           
  1355  0074                     ??_strncmp:	
  1356                           ; 1 bytes @ 0x4
  1357                           
  1358  0074                     ??_alarm:	
  1359                           ; 1 bytes @ 0x4
  1360                           
  1361  0074                     ??_stop_alarm:	
  1362                           ; 1 bytes @ 0x4
  1363                           
  1364  0074                     ?_clcd_write:	
  1365                           ; 1 bytes @ 0x4
  1366                           
  1367  0074                     ??_init_digital_keypad:	
  1368                           ; 1 bytes @ 0x4
  1369                           
  1370  0074                     ??_read_digital_keypad:	
  1371                           ; 1 bytes @ 0x4
  1372                           
  1373  0074                     ??_i2c_wait_for_idle:	
  1374                           ; 1 bytes @ 0x4
  1375                           
  1376  0074                     ??_init_timer2:	
  1377                           ; 1 bytes @ 0x4
  1378                           
  1379  0074                     ??___lldiv:	
  1380                           ; 1 bytes @ 0x4
  1381                           
  1382  0074                     ??___awdiv:	
  1383                           ; 1 bytes @ 0x4
  1384                           
  1385  0074                     clcd_write@mode:	
  1386                           ; 1 bytes @ 0x4
  1387                           
  1388  0074                     i2c_write@data:	
  1389                           ; 1 bytes @ 0x4
  1390                           
  1391                           
  1392                           ; 1 bytes @ 0x4
  1393  0074                     	ds	1
  1394  0075                     ??_read_ds1307:
  1395  0075                     ??_read_EEPROM:	
  1396                           ; 1 bytes @ 0x5
  1397                           
  1398  0075                     ?_byte_write_EEPROM:	
  1399                           ; 1 bytes @ 0x5
  1400                           
  1401  0075                     ??___awmod:	
  1402                           ; 1 bytes @ 0x5
  1403                           
  1404  0075                     clcd_write@byte:	
  1405                           ; 1 bytes @ 0x5
  1406                           
  1407  0075                     read_digital_keypad@mode:	
  1408                           ; 1 bytes @ 0x5
  1409                           
  1410  0075                     byte_write_EEPROM@data:	
  1411                           ; 1 bytes @ 0x5
  1412                           
  1413                           
  1414                           ; 1 bytes @ 0x5
  1415  0075                     	ds	1
  1416  0076                     ??_write_ds1307:
  1417  0076                     ??_init_clcd:	
  1418                           ; 1 bytes @ 0x6
  1419                           
  1420  0076                     ??_clcd_putch:	
  1421                           ; 1 bytes @ 0x6
  1422                           
  1423  0076                     ??_clcd_print:	
  1424                           ; 1 bytes @ 0x6
  1425                           
  1426  0076                     ??_byte_write_EEPROM:	
  1427                           ; 1 bytes @ 0x6
  1428                           
  1429  0076                     ??_init_config:	
  1430                           ; 1 bytes @ 0x6
  1431                           
  1432                           
  1433                           	psect	cstackBANK0
  1434  0048                     __pcstackBANK0:	
  1435                           ; 1 bytes @ 0x6
  1436                           
  1437  0048                     ??_clcd_write:
  1438  0048                     ?_strncmp:	
  1439                           ; 1 bytes @ 0x0
  1440                           
  1441  0048                     ?___awdiv:	
  1442                           ; 2 bytes @ 0x0
  1443                           
  1444  0048                     ?___lldiv:	
  1445                           ; 2 bytes @ 0x0
  1446                           
  1447  0048                     byte_write_EEPROM@addr:	
  1448                           ; 4 bytes @ 0x0
  1449                           
  1450  0048                     i2c_read@ack:	
  1451                           ; 1 bytes @ 0x0
  1452                           
  1453  0048                     ___awdiv@divisor:	
  1454                           ; 1 bytes @ 0x0
  1455                           
  1456  0048                     strncmp@s2:	
  1457                           ; 2 bytes @ 0x0
  1458                           
  1459  0048                     ___lldiv@divisor:	
  1460                           ; 2 bytes @ 0x0
  1461                           
  1462                           
  1463                           ; 4 bytes @ 0x0
  1464  0048                     	ds	1
  1465  0049                     ?_str_write_EEPROM:
  1466  0049                     str_write_EEPROM@data:	
  1467                           ; 1 bytes @ 0x1
  1468                           
  1469  0049                     i2c_read@data:	
  1470                           ; 1 bytes @ 0x1
  1471                           
  1472                           
  1473                           ; 1 bytes @ 0x1
  1474  0049                     	ds	1
  1475  004A                     ??_clear_screen:
  1476  004A                     ??_init_display_controller:	
  1477                           ; 1 bytes @ 0x2
  1478                           
  1479  004A                     ?_clcd_print:	
  1480                           ; 1 bytes @ 0x2
  1481                           
  1482  004A                     ??_str_write_EEPROM:	
  1483                           ; 1 bytes @ 0x2
  1484                           
  1485  004A                     read_ds1307@addr:	
  1486                           ; 1 bytes @ 0x2
  1487                           
  1488  004A                     read_EEPROM@addr:	
  1489                           ; 1 bytes @ 0x2
  1490                           
  1491  004A                     clcd_print@str:	
  1492                           ; 1 bytes @ 0x2
  1493                           
  1494  004A                     ___awdiv@dividend:	
  1495                           ; 2 bytes @ 0x2
  1496                           
  1497  004A                     strncmp@len:	
  1498                           ; 2 bytes @ 0x2
  1499                           
  1500                           
  1501                           ; 2 bytes @ 0x2
  1502  004A                     	ds	1
  1503  004B                     read_ds1307@data:
  1504  004B                     read_EEPROM@data:	
  1505                           ; 1 bytes @ 0x3
  1506                           
  1507  004B                     str_write_EEPROM@addr:	
  1508                           ; 1 bytes @ 0x3
  1509                           
  1510                           
  1511                           ; 1 bytes @ 0x3
  1512  004B                     	ds	1
  1513  004C                     ??_alarm_event:
  1514  004C                     ?_clcd_putch:	
  1515                           ; 1 bytes @ 0x4
  1516                           
  1517  004C                     ??_get_time:	
  1518                           ; 1 bytes @ 0x4
  1519                           
  1520  004C                     ??_get_date:	
  1521                           ; 1 bytes @ 0x4
  1522                           
  1523  004C                     ?___bmul:	
  1524                           ; 1 bytes @ 0x4
  1525                           
  1526  004C                     clcd_putch@addr:	
  1527                           ; 1 bytes @ 0x4
  1528                           
  1529  004C                     clcd_print@addr:	
  1530                           ; 1 bytes @ 0x4
  1531                           
  1532  004C                     ___bmul@multiplicand:	
  1533                           ; 1 bytes @ 0x4
  1534                           
  1535  004C                     ___awdiv@counter:	
  1536                           ; 1 bytes @ 0x4
  1537                           
  1538  004C                     strncmp@s1:	
  1539                           ; 1 bytes @ 0x4
  1540                           
  1541  004C                     ___lldiv@dividend:	
  1542                           ; 1 bytes @ 0x4
  1543                           
  1544                           
  1545                           ; 4 bytes @ 0x4
  1546  004C                     	ds	1
  1547  004D                     ??_display_date:
  1548  004D                     ??___bmul:	
  1549                           ; 1 bytes @ 0x5
  1550                           
  1551  004D                     clcd_putch@data:	
  1552                           ; 1 bytes @ 0x5
  1553                           
  1554  004D                     ___awdiv@sign:	
  1555                           ; 1 bytes @ 0x5
  1556                           
  1557                           
  1558                           ; 1 bytes @ 0x5
  1559  004D                     	ds	1
  1560  004E                     ?_menu1:
  1561  004E                     ?_menu2:	
  1562                           ; 1 bytes @ 0x6
  1563                           
  1564  004E                     ?_menu3:	
  1565                           ; 1 bytes @ 0x6
  1566                           
  1567  004E                     ??_display_event:	
  1568                           ; 1 bytes @ 0x6
  1569                           
  1570  004E                     menu1@key:	
  1571                           ; 1 bytes @ 0x6
  1572                           
  1573  004E                     menu2@key:	
  1574                           ; 1 bytes @ 0x6
  1575                           
  1576  004E                     menu3@key:	
  1577                           ; 1 bytes @ 0x6
  1578                           
  1579  004E                     ___bmul@product:	
  1580                           ; 1 bytes @ 0x6
  1581                           
  1582  004E                     ___awdiv@quotient:	
  1583                           ; 1 bytes @ 0x6
  1584                           
  1585                           
  1586                           ; 2 bytes @ 0x6
  1587  004E                     	ds	1
  1588  004F                     ??_menu1:
  1589  004F                     ??_menu2:	
  1590                           ; 1 bytes @ 0x7
  1591                           
  1592  004F                     ??_menu3:	
  1593                           ; 1 bytes @ 0x7
  1594                           
  1595  004F                     display_event@reset_flag:	
  1596                           ; 1 bytes @ 0x7
  1597                           
  1598  004F                     ___bmul@multiplier:	
  1599                           ; 1 bytes @ 0x7
  1600                           
  1601                           
  1602                           ; 1 bytes @ 0x7
  1603  004F                     	ds	1
  1604  0050                     ??_ring_alarm:
  1605  0050                     ?___awmod:	
  1606                           ; 1 bytes @ 0x8
  1607                           
  1608  0050                     menu1@reset_flag:	
  1609                           ; 2 bytes @ 0x8
  1610                           
  1611  0050                     menu2@reset_flag:	
  1612                           ; 1 bytes @ 0x8
  1613                           
  1614  0050                     menu3@reset_flag:	
  1615                           ; 1 bytes @ 0x8
  1616                           
  1617  0050                     ___awmod@divisor:	
  1618                           ; 1 bytes @ 0x8
  1619                           
  1620  0050                     ___lldiv@quotient:	
  1621                           ; 2 bytes @ 0x8
  1622                           
  1623                           
  1624                           ; 4 bytes @ 0x8
  1625  0050                     	ds	2
  1626  0052                     ___awmod@dividend:
  1627                           
  1628                           ; 2 bytes @ 0xA
  1629  0052                     	ds	2
  1630  0054                     ___lldiv@counter:
  1631  0054                     ___awmod@counter:	
  1632                           ; 1 bytes @ 0xC
  1633                           
  1634                           
  1635                           ; 1 bytes @ 0xC
  1636  0054                     	ds	1
  1637  0055                     ?_init_i2c:
  1638  0055                     ___awmod@sign:	
  1639                           ; 1 bytes @ 0xD
  1640                           
  1641  0055                     init_i2c@baud:	
  1642                           ; 1 bytes @ 0xD
  1643                           
  1644                           
  1645                           ; 4 bytes @ 0xD
  1646  0055                     	ds	1
  1647  0056                     ??_dec2bcd:
  1648  0056                     ?_set_time:	
  1649                           ; 1 bytes @ 0xE
  1650                           
  1651  0056                     ?_set_date:	
  1652                           ; 1 bytes @ 0xE
  1653                           
  1654  0056                     ?_set_event:	
  1655                           ; 1 bytes @ 0xE
  1656                           
  1657  0056                     ??_display_time:	
  1658                           ; 1 bytes @ 0xE
  1659                           
  1660  0056                     set_time@key:	
  1661                           ; 1 bytes @ 0xE
  1662                           
  1663  0056                     set_date@key:	
  1664                           ; 1 bytes @ 0xE
  1665                           
  1666  0056                     set_event@key:	
  1667                           ; 1 bytes @ 0xE
  1668                           
  1669                           
  1670                           ; 1 bytes @ 0xE
  1671  0056                     	ds	1
  1672  0057                     ??_set_time:
  1673  0057                     ??_set_date:	
  1674                           ; 1 bytes @ 0xF
  1675                           
  1676  0057                     ??_set_event:	
  1677                           ; 1 bytes @ 0xF
  1678                           
  1679                           
  1680                           ; 1 bytes @ 0xF
  1681  0057                     	ds	2
  1682  0059                     ??_display_dash_screen:
  1683  0059                     ??_init_i2c:	
  1684                           ; 1 bytes @ 0x11
  1685                           
  1686  0059                     dec2bcd@ones:	
  1687                           ; 1 bytes @ 0x11
  1688                           
  1689                           
  1690                           ; 1 bytes @ 0x11
  1691  0059                     	ds	1
  1692  005A                     display_dash_screen@reset_flag:
  1693  005A                     set_time@reset_flag:	
  1694                           ; 1 bytes @ 0x12
  1695                           
  1696  005A                     set_date@reset_flag:	
  1697                           ; 1 bytes @ 0x12
  1698                           
  1699  005A                     set_event@reset_flag:	
  1700                           ; 1 bytes @ 0x12
  1701                           
  1702  005A                     dec2bcd@tens:	
  1703                           ; 1 bytes @ 0x12
  1704                           
  1705                           
  1706                           ; 1 bytes @ 0x12
  1707  005A                     	ds	1
  1708  005B                     dec2bcd@temp:
  1709                           
  1710                           ; 1 bytes @ 0x13
  1711  005B                     	ds	1
  1712  005C                     dec2bcd@num:
  1713                           
  1714                           ; 1 bytes @ 0x14
  1715  005C                     	ds	1
  1716  005D                     ?_write_ds1307:
  1717  005D                     write_ds1307@data:	
  1718                           ; 1 bytes @ 0x15
  1719                           
  1720                           
  1721                           ; 1 bytes @ 0x15
  1722  005D                     	ds	1
  1723  005E                     write_ds1307@addr:
  1724                           
  1725                           ; 1 bytes @ 0x16
  1726  005E                     	ds	1
  1727  005F                     ??_init_ds1307:
  1728                           
  1729                           ; 1 bytes @ 0x17
  1730  005F                     	ds	1
  1731  0060                     init_ds1307@dummy:
  1732                           
  1733                           ; 1 bytes @ 0x18
  1734  0060                     	ds	1
  1735  0061                     ??_main:
  1736                           
  1737                           ; 1 bytes @ 0x19
  1738  0061                     	ds	2
  1739                           
  1740                           	psect	maintext
  1741  0C33                     __pmaintext:	
  1742 ;;
  1743 ;;Main: autosize = 0, tempsize = 2, incstack = 0, save=0
  1744 ;;
  1745 ;; *************** function _main *****************
  1746 ;; Defined at:
  1747 ;;		line 35 in file "main.c"
  1748 ;; Parameters:    Size  Location     Type
  1749 ;;		None
  1750 ;; Auto vars:     Size  Location     Type
  1751 ;;  delay1          2   10[BANK3 ] unsigned int 
  1752 ;;  delay3          2    8[BANK3 ] unsigned int 
  1753 ;;  delay2          2    6[BANK3 ] unsigned int 
  1754 ;;  delay6          2    4[BANK3 ] unsigned int 
  1755 ;;  delay5          2    2[BANK3 ] unsigned int 
  1756 ;;  delay4          2    0[BANK3 ] unsigned int 
  1757 ;;  control_flag    1   16[BANK3 ] unsigned char 
  1758 ;;  reset_flag      1   15[BANK3 ] unsigned char 
  1759 ;;  key_level       1   14[BANK3 ] unsigned char 
  1760 ;;  key             1   13[BANK3 ] unsigned char 
  1761 ;;  menu_pos        1   12[BANK3 ] unsigned char 
  1762 ;; Return value:  Size  Location     Type
  1763 ;;                  1    wreg      void 
  1764 ;; Registers used:
  1765 ;;		wreg, fsr0l, fsr0h, status,2, status,0, btemp+1, pclath, cstack
  1766 ;; Tracked objects:
  1767 ;;		On entry : B00/0
  1768 ;;		On exit  : 0/0
  1769 ;;		Unchanged: 0/0
  1770 ;; Data sizes:     COMMON   BANK0   BANK1   BANK3   BANK2
  1771 ;;      Params:         0       0       0       0       0
  1772 ;;      Locals:         0       0       0      17       0
  1773 ;;      Temps:          0       2       0       0       0
  1774 ;;      Totals:         0       2       0      17       0
  1775 ;;Total ram usage:       19 bytes
  1776 ;; Hardware stack levels required when called: 8
  1777 ;; This function calls:
  1778 ;;		_alarm_event
  1779 ;;		_clear_screen
  1780 ;;		_dec2bcd
  1781 ;;		_display_dash_screen
  1782 ;;		_display_event
  1783 ;;		_init_config
  1784 ;;		_menu1
  1785 ;;		_menu2
  1786 ;;		_menu3
  1787 ;;		_read_digital_keypad
  1788 ;;		_set_date
  1789 ;;		_set_event
  1790 ;;		_set_time
  1791 ;;		_write_ds1307
  1792 ;; This function is called by:
  1793 ;;		Startup code after reset
  1794 ;; This function uses a non-reentrant model
  1795 ;;
  1796                           
  1797                           
  1798                           ;psect for function _main
  1799  0C33                     _main:
  1800  0C33                     l5702:	
  1801                           ;incstack = 0
  1802                           ; Regs used in _main: [wreg-fsr0h+status,2+status,0+btemp+1+pclath+cstack]
  1803                           
  1804                           
  1805                           ;main.c: 37:             clear_screen();
  1806  0C33  3005               	movlw	5
  1807  0C34  1283               	bcf	3,5	;RP0=0, select bank0
  1808  0C35  1303               	bcf	3,6	;RP1=0, select bank0
  1809  0C36  00E1               	movwf	??_main
  1810  0C37  0861               	movf	??_main,w
  1811  0C38  1683               	bsf	3,5	;RP0=1, select bank3
  1812  0C39  1703               	bsf	3,6	;RP1=1, select bank3
  1813  0C3A  00A0               	movwf	main@control_flag^(0+384)
  1814  0C3B  3013               	movlw	19
  1815  0C3C  1283               	bcf	3,5	;RP0=0, select bank0
  1816  0C3D  1303               	bcf	3,6	;RP1=0, select bank0
  1817  0C3E  00E1               	movwf	??_main
  1818  0C3F  0861               	movf	??_main,w
  1819  0C40  1683               	bsf	3,5	;RP0=1, select bank3
  1820  0C41  1703               	bsf	3,6	;RP1=1, select bank3
  1821  0C42  009F               	movwf	main@reset_flag^(0+384)
  1822  0C43                     l5704:
  1823                           
  1824                           ;main.c: 38:             control_flag = 0x02;;main.c: 39:             reset_flag = 0x10;
      +                          ;main.c: 40:         }
  1825  0C43  019A               	clrf	main@delay1^(0+384)
  1826  0C44  019B               	clrf	(main@delay1+1)^(0+384)
  1827  0C45                     l5706:
  1828  0C45  0196               	clrf	main@delay2^(0+384)
  1829  0C46  0197               	clrf	(main@delay2+1)^(0+384)
  1830  0C47                     l5708:
  1831  0C47  0198               	clrf	main@delay3^(0+384)
  1832  0C48  0199               	clrf	(main@delay3+1)^(0+384)
  1833  0C49                     l5710:
  1834  0C49  0190               	clrf	main@delay4^(0+384)
  1835  0C4A  0191               	clrf	(main@delay4+1)^(0+384)
  1836  0C4B                     l5712:
  1837  0C4B  0192               	clrf	main@delay5^(0+384)
  1838  0C4C  0193               	clrf	(main@delay5+1)^(0+384)
  1839  0C4D                     l5714:
  1840  0C4D  0194               	clrf	main@delay6^(0+384)
  1841  0C4E  0195               	clrf	(main@delay6+1)^(0+384)
  1842  0C4F                     l5716:
  1843                           
  1844                           ;main.c: 41:         else if((control_flag == 0x02) && (key_level == 0x37) && (delay1++ 
      +                          == 20))
  1845  0C4F  160A  158A  2484  120A  158A  	fcall	_init_config
  1846  0C54                     l5718:
  1847                           
  1848                           ;main.c: 44:             delay1 = 0;
  1849  0C54  3001               	movlw	1
  1850  0C55  160A  158A  24AF  120A  158A  	fcall	_read_digital_keypad
  1851  0C5A  1283               	bcf	3,5	;RP0=0, select bank0
  1852  0C5B  1303               	bcf	3,6	;RP1=0, select bank0
  1853  0C5C  00E1               	movwf	??_main
  1854  0C5D  0861               	movf	??_main,w
  1855  0C5E  1683               	bsf	3,5	;RP0=1, select bank3
  1856  0C5F  1703               	bsf	3,6	;RP1=1, select bank3
  1857  0C60  009D               	movwf	main@key^(0+384)
  1858  0C61                     l5720:
  1859                           
  1860                           ;main.c: 45:             switch(menu_pos)
  1861  0C61  3000               	movlw	0
  1862  0C62  160A  158A  24AF  120A  158A  	fcall	_read_digital_keypad
  1863  0C67  1283               	bcf	3,5	;RP0=0, select bank0
  1864  0C68  1303               	bcf	3,6	;RP1=0, select bank0
  1865  0C69  00E1               	movwf	??_main
  1866  0C6A  0861               	movf	??_main,w
  1867  0C6B  1683               	bsf	3,5	;RP0=1, select bank3
  1868  0C6C  1703               	bsf	3,6	;RP1=1, select bank3
  1869  0C6D  009E               	movwf	main@key_level^(0+384)
  1870  0C6E                     l5722:
  1871                           
  1872                           ;main.c: 47:                 case 0 :
  1873  0C6E  0320               	decf	main@control_flag^(0+384),w
  1874  0C6F  1D03               	btfss	3,2
  1875  0C70  2C72               	goto	u6231
  1876  0C71  2C73               	goto	u6230
  1877  0C72                     u6231:
  1878  0C72  2C95               	goto	l5734
  1879  0C73                     u6230:
  1880  0C73                     l5724:
  1881  0C73  3037               	movlw	55
  1882  0C74  061D               	xorwf	main@key^(0+384),w
  1883  0C75  1903               	btfsc	3,2
  1884  0C76  2C78               	goto	u6241
  1885  0C77  2C79               	goto	u6240
  1886  0C78                     u6241:
  1887  0C78  2C7F               	goto	l5728
  1888  0C79                     u6240:
  1889  0C79                     l5726:
  1890  0C79  302F               	movlw	47
  1891  0C7A  061D               	xorwf	main@key^(0+384),w
  1892  0C7B  1D03               	btfss	3,2
  1893  0C7C  2C7E               	goto	u6251
  1894  0C7D  2C7F               	goto	u6250
  1895  0C7E                     u6251:
  1896  0C7E  2C95               	goto	l5734
  1897  0C7F                     u6250:
  1898  0C7F                     l5728:
  1899                           
  1900                           ;main.c: 48: ;main.c: 50:                     reset_flag = 0x11;
  1901  0C7F  160A  158A  2379  120A  158A  	fcall	_clear_screen
  1902  0C84                     l5730:
  1903                           
  1904                           ;main.c: 51:                     clear_screen();
  1905  0C84  3002               	movlw	2
  1906  0C85  1283               	bcf	3,5	;RP0=0, select bank0
  1907  0C86  1303               	bcf	3,6	;RP1=0, select bank0
  1908  0C87  00E1               	movwf	??_main
  1909  0C88  0861               	movf	??_main,w
  1910  0C89  1683               	bsf	3,5	;RP0=1, select bank3
  1911  0C8A  1703               	bsf	3,6	;RP1=1, select bank3
  1912  0C8B  00A0               	movwf	main@control_flag^(0+384)
  1913  0C8C                     l5732:
  1914                           
  1915                           ;main.c: 52:                     break;
  1916  0C8C  3010               	movlw	16
  1917  0C8D  1283               	bcf	3,5	;RP0=0, select bank0
  1918  0C8E  1303               	bcf	3,6	;RP1=0, select bank0
  1919  0C8F  00E1               	movwf	??_main
  1920  0C90  0861               	movf	??_main,w
  1921  0C91  1683               	bsf	3,5	;RP0=1, select bank3
  1922  0C92  1703               	bsf	3,6	;RP1=1, select bank3
  1923  0C93  009F               	movwf	main@reset_flag^(0+384)
  1924                           
  1925                           ;main.c: 53:                 case 1 :
  1926  0C94  2FCE               	goto	l5942
  1927  0C95                     l5734:
  1928  0C95  3002               	movlw	2
  1929  0C96  0620               	xorwf	main@control_flag^(0+384),w
  1930  0C97  1D03               	btfss	3,2
  1931  0C98  2C9A               	goto	u6261
  1932  0C99  2C9B               	goto	u6260
  1933  0C9A                     u6261:
  1934  0C9A  2CE6               	goto	l5754
  1935  0C9B                     u6260:
  1936  0C9B                     l5736:
  1937  0C9B  3037               	movlw	55
  1938  0C9C  061E               	xorwf	main@key_level^(0+384),w
  1939  0C9D  1D03               	btfss	3,2
  1940  0C9E  2CA0               	goto	u6271
  1941  0C9F  2CA1               	goto	u6270
  1942  0CA0                     u6271:
  1943  0CA0  2CE6               	goto	l5754
  1944  0CA1                     u6270:
  1945  0CA1                     l5738:
  1946  0CA1  3001               	movlw	1
  1947  0CA2  079A               	addwf	main@delay1^(0+384),f
  1948  0CA3  1803               	skipnc
  1949  0CA4  0A9B               	incf	(main@delay1+1)^(0+384),f
  1950  0CA5  3000               	movlw	0
  1951  0CA6  079B               	addwf	(main@delay1+1)^(0+384),f
  1952  0CA7  3015               	movlw	21
  1953  0CA8  061A               	xorwf	main@delay1^(0+384),w
  1954  0CA9  041B               	iorwf	(main@delay1+1)^(0+384),w
  1955  0CAA  1D03               	btfss	3,2
  1956  0CAB  2CAD               	goto	u6281
  1957  0CAC  2CAE               	goto	u6280
  1958  0CAD                     u6281:
  1959  0CAD  2CE6               	goto	l5754
  1960  0CAE                     u6280:
  1961  0CAE                     l5740:
  1962                           
  1963                           ;main.c: 55:                     control_flag = 0x04;;main.c: 57:                     cl
      +                          ear_screen();
  1964  0CAE  019A               	clrf	main@delay1^(0+384)
  1965  0CAF  019B               	clrf	(main@delay1+1)^(0+384)
  1966                           
  1967                           ;main.c: 58:                     break;
  1968  0CB0  2CD4               	goto	l5752
  1969  0CB1                     l5742:
  1970                           
  1971                           ;main.c: 62:         {
  1972  0CB1  3003               	movlw	3
  1973  0CB2  00E1               	movwf	??_main
  1974  0CB3  0861               	movf	??_main,w
  1975  0CB4  1683               	bsf	3,5	;RP0=1, select bank3
  1976  0CB5  1703               	bsf	3,6	;RP1=1, select bank3
  1977  0CB6  00A0               	movwf	main@control_flag^(0+384)
  1978                           
  1979                           ;main.c: 63: 
  1980  0CB7  3011               	movlw	17
  1981  0CB8  1283               	bcf	3,5	;RP0=0, select bank0
  1982  0CB9  1303               	bcf	3,6	;RP1=0, select bank0
  1983  0CBA  00E1               	movwf	??_main
  1984  0CBB  0861               	movf	??_main,w
  1985  0CBC  1683               	bsf	3,5	;RP0=1, select bank3
  1986  0CBD  1703               	bsf	3,6	;RP1=1, select bank3
  1987  0CBE  009F               	movwf	main@reset_flag^(0+384)
  1988  0CBF                     l5744:
  1989                           
  1990                           ;main.c: 64:             delay2 = 0;
  1991  0CBF  160A  158A  2379  120A  158A  	fcall	_clear_screen
  1992                           
  1993                           ;main.c: 65:             switch(menu_pos)
  1994  0CC4  2FCE               	goto	l5942
  1995  0CC5                     l5746:
  1996                           
  1997                           ;main.c: 68: 
  1998  0CC5  3004               	movlw	4
  1999  0CC6  00E1               	movwf	??_main
  2000  0CC7  0861               	movf	??_main,w
  2001  0CC8  1683               	bsf	3,5	;RP0=1, select bank3
  2002  0CC9  1703               	bsf	3,6	;RP1=1, select bank3
  2003  0CCA  00A0               	movwf	main@control_flag^(0+384)
  2004                           
  2005                           ;main.c: 69:                     control_flag = 0x05;
  2006  0CCB  3012               	movlw	18
  2007  0CCC  1283               	bcf	3,5	;RP0=0, select bank0
  2008  0CCD  1303               	bcf	3,6	;RP1=0, select bank0
  2009  0CCE  00E1               	movwf	??_main
  2010  0CCF  0861               	movf	??_main,w
  2011  0CD0  1683               	bsf	3,5	;RP0=1, select bank3
  2012  0CD1  1703               	bsf	3,6	;RP1=1, select bank3
  2013  0CD2  009F               	movwf	main@reset_flag^(0+384)
  2014  0CD3  2CBF               	goto	l5744
  2015  0CD4                     l5752:
  2016  0CD4  081C               	movf	main@menu_pos^(0+384),w
  2017  0CD5  1283               	bcf	3,5	;RP0=0, select bank0
  2018  0CD6  1303               	bcf	3,6	;RP1=0, select bank0
  2019  0CD7  00E1               	movwf	??_main
  2020  0CD8  01E2               	clrf	??_main+1
  2021                           
  2022                           ; Switch on 2 bytes has been partitioned into a top level switch of size 1, and 1 sub-sw
      +                          itches
  2023                           ; Switch size 1, requested type "simple"
  2024                           ; Number of cases is 1, Range of values is 0 to 0
  2025                           ; switch strategies available:
  2026                           ; Name         Instructions Cycles
  2027                           ; simple_byte            4     3 (average)
  2028                           ; direct_byte           11     8 (fixed)
  2029                           ; jumptable            260     6 (fixed)
  2030                           ;	Chosen strategy is simple_byte
  2031  0CD9  0862               	movf	??_main+1,w
  2032  0CDA  3A00               	xorlw	0	; case 0
  2033  0CDB  1903               	skipnz
  2034  0CDC  2CDE               	goto	l6090
  2035  0CDD  2FCE               	goto	l5942
  2036  0CDE                     l6090:
  2037                           
  2038                           ; Switch size 1, requested type "simple"
  2039                           ; Number of cases is 2, Range of values is 0 to 1
  2040                           ; switch strategies available:
  2041                           ; Name         Instructions Cycles
  2042                           ; simple_byte            7     4 (average)
  2043                           ; direct_byte           14     8 (fixed)
  2044                           ; jumptable            260     6 (fixed)
  2045                           ;	Chosen strategy is simple_byte
  2046  0CDE  0861               	movf	??_main,w
  2047  0CDF  3A00               	xorlw	0	; case 0
  2048  0CE0  1903               	skipnz
  2049  0CE1  2CB1               	goto	l5742
  2050  0CE2  3A01               	xorlw	1	; case 1
  2051  0CE3  1903               	skipnz
  2052  0CE4  2CC5               	goto	l5746
  2053  0CE5  2FCE               	goto	l5942
  2054  0CE6                     l5754:
  2055  0CE6  3003               	movlw	3
  2056  0CE7  0620               	xorwf	main@control_flag^(0+384),w
  2057  0CE8  1D03               	btfss	3,2
  2058  0CE9  2CEB               	goto	u6291
  2059  0CEA  2CEC               	goto	u6290
  2060  0CEB                     u6291:
  2061  0CEB  2D32               	goto	l5774
  2062  0CEC                     u6290:
  2063  0CEC                     l5756:
  2064  0CEC  3037               	movlw	55
  2065  0CED  061E               	xorwf	main@key_level^(0+384),w
  2066  0CEE  1D03               	btfss	3,2
  2067  0CEF  2CF1               	goto	u6301
  2068  0CF0  2CF2               	goto	u6300
  2069  0CF1                     u6301:
  2070  0CF1  2D32               	goto	l5774
  2071  0CF2                     u6300:
  2072  0CF2                     l5758:
  2073  0CF2  3001               	movlw	1
  2074  0CF3  0796               	addwf	main@delay2^(0+384),f
  2075  0CF4  1803               	skipnc
  2076  0CF5  0A97               	incf	(main@delay2+1)^(0+384),f
  2077  0CF6  3000               	movlw	0
  2078  0CF7  0797               	addwf	(main@delay2+1)^(0+384),f
  2079  0CF8  3015               	movlw	21
  2080  0CF9  0616               	xorwf	main@delay2^(0+384),w
  2081  0CFA  0417               	iorwf	(main@delay2+1)^(0+384),w
  2082  0CFB  1D03               	btfss	3,2
  2083  0CFC  2CFE               	goto	u6311
  2084  0CFD  2CFF               	goto	u6310
  2085  0CFE                     u6311:
  2086  0CFE  2D32               	goto	l5774
  2087  0CFF                     u6310:
  2088  0CFF                     l5760:
  2089                           
  2090                           ;main.c: 75:                     control_flag = 0x06;;main.c: 77:                     cl
      +                          ear_screen();
  2091  0CFF  0196               	clrf	main@delay2^(0+384)
  2092  0D00  0197               	clrf	(main@delay2+1)^(0+384)
  2093                           
  2094                           ;main.c: 78:                     break;
  2095  0D01  2D20               	goto	l5772
  2096  0D02                     l5762:
  2097                           
  2098                           ;main.c: 82:         {
  2099  0D02  3005               	movlw	5
  2100  0D03  00E1               	movwf	??_main
  2101  0D04  0861               	movf	??_main,w
  2102  0D05  1683               	bsf	3,5	;RP0=1, select bank3
  2103  0D06  1703               	bsf	3,6	;RP1=1, select bank3
  2104  0D07  00A0               	movwf	main@control_flag^(0+384)
  2105                           
  2106                           ;main.c: 83: 
  2107  0D08  3013               	movlw	19
  2108  0D09  1283               	bcf	3,5	;RP0=0, select bank0
  2109  0D0A  1303               	bcf	3,6	;RP1=0, select bank0
  2110  0D0B  00E1               	movwf	??_main
  2111  0D0C  0861               	movf	??_main,w
  2112  0D0D  1683               	bsf	3,5	;RP0=1, select bank3
  2113  0D0E  1703               	bsf	3,6	;RP1=1, select bank3
  2114  0D0F  009F               	movwf	main@reset_flag^(0+384)
  2115  0D10  2CBF               	goto	l5744
  2116  0D11                     l5766:
  2117                           
  2118                           ;main.c: 88: 
  2119  0D11  3006               	movlw	6
  2120  0D12  00E1               	movwf	??_main
  2121  0D13  0861               	movf	??_main,w
  2122  0D14  1683               	bsf	3,5	;RP0=1, select bank3
  2123  0D15  1703               	bsf	3,6	;RP1=1, select bank3
  2124  0D16  00A0               	movwf	main@control_flag^(0+384)
  2125                           
  2126                           ;main.c: 89:                     control_flag = 0x07;
  2127  0D17  3015               	movlw	21
  2128  0D18  1283               	bcf	3,5	;RP0=0, select bank0
  2129  0D19  1303               	bcf	3,6	;RP1=0, select bank0
  2130  0D1A  00E1               	movwf	??_main
  2131  0D1B  0861               	movf	??_main,w
  2132  0D1C  1683               	bsf	3,5	;RP0=1, select bank3
  2133  0D1D  1703               	bsf	3,6	;RP1=1, select bank3
  2134  0D1E  009F               	movwf	main@reset_flag^(0+384)
  2135  0D1F  2CBF               	goto	l5744
  2136  0D20                     l5772:
  2137  0D20  081C               	movf	main@menu_pos^(0+384),w
  2138  0D21  1283               	bcf	3,5	;RP0=0, select bank0
  2139  0D22  1303               	bcf	3,6	;RP1=0, select bank0
  2140  0D23  00E1               	movwf	??_main
  2141  0D24  01E2               	clrf	??_main+1
  2142                           
  2143                           ; Switch on 2 bytes has been partitioned into a top level switch of size 1, and 1 sub-sw
      +                          itches
  2144                           ; Switch size 1, requested type "simple"
  2145                           ; Number of cases is 1, Range of values is 0 to 0
  2146                           ; switch strategies available:
  2147                           ; Name         Instructions Cycles
  2148                           ; simple_byte            4     3 (average)
  2149                           ; direct_byte           11     8 (fixed)
  2150                           ; jumptable            260     6 (fixed)
  2151                           ;	Chosen strategy is simple_byte
  2152  0D25  0862               	movf	??_main+1,w
  2153  0D26  3A00               	xorlw	0	; case 0
  2154  0D27  1903               	skipnz
  2155  0D28  2D2A               	goto	l6092
  2156  0D29  2FCE               	goto	l5942
  2157  0D2A                     l6092:
  2158                           
  2159                           ; Switch size 1, requested type "simple"
  2160                           ; Number of cases is 2, Range of values is 0 to 1
  2161                           ; switch strategies available:
  2162                           ; Name         Instructions Cycles
  2163                           ; simple_byte            7     4 (average)
  2164                           ; direct_byte           14     8 (fixed)
  2165                           ; jumptable            260     6 (fixed)
  2166                           ;	Chosen strategy is simple_byte
  2167  0D2A  0861               	movf	??_main,w
  2168  0D2B  3A00               	xorlw	0	; case 0
  2169  0D2C  1903               	skipnz
  2170  0D2D  2D02               	goto	l5762
  2171  0D2E  3A01               	xorlw	1	; case 1
  2172  0D2F  1903               	skipnz
  2173  0D30  2D11               	goto	l5766
  2174  0D31  2FCE               	goto	l5942
  2175  0D32                     l5774:
  2176  0D32  3004               	movlw	4
  2177  0D33  0620               	xorwf	main@control_flag^(0+384),w
  2178  0D34  1D03               	btfss	3,2
  2179  0D35  2D37               	goto	u6321
  2180  0D36  2D38               	goto	u6320
  2181  0D37                     u6321:
  2182  0D37  2D7F               	goto	l5794
  2183  0D38                     u6320:
  2184  0D38                     l5776:
  2185  0D38  3037               	movlw	55
  2186  0D39  061E               	xorwf	main@key_level^(0+384),w
  2187  0D3A  1D03               	btfss	3,2
  2188  0D3B  2D3D               	goto	u6331
  2189  0D3C  2D3E               	goto	u6330
  2190  0D3D                     u6331:
  2191  0D3D  2D7F               	goto	l5794
  2192  0D3E                     u6330:
  2193  0D3E                     l5778:
  2194  0D3E  3001               	movlw	1
  2195  0D3F  0798               	addwf	main@delay3^(0+384),f
  2196  0D40  1803               	skipnc
  2197  0D41  0A99               	incf	(main@delay3+1)^(0+384),f
  2198  0D42  3000               	movlw	0
  2199  0D43  0799               	addwf	(main@delay3+1)^(0+384),f
  2200  0D44  3015               	movlw	21
  2201  0D45  0618               	xorwf	main@delay3^(0+384),w
  2202  0D46  0419               	iorwf	(main@delay3+1)^(0+384),w
  2203  0D47  1D03               	btfss	3,2
  2204  0D48  2D4A               	goto	u6341
  2205  0D49  2D4B               	goto	u6340
  2206  0D4A                     u6341:
  2207  0D4A  2D7F               	goto	l5794
  2208  0D4B                     u6340:
  2209  0D4B                     l5780:
  2210                           
  2211                           ;main.c: 95:                     control_flag = 0x08;;main.c: 97:                     cl
      +                          ear_screen();
  2212  0D4B  0198               	clrf	main@delay3^(0+384)
  2213  0D4C  0199               	clrf	(main@delay3+1)^(0+384)
  2214                           
  2215                           ;main.c: 98:                     break;
  2216  0D4D  2D6C               	goto	l5792
  2217  0D4E                     l5782:
  2218                           
  2219                           ;main.c: 102:         {
  2220  0D4E  3007               	movlw	7
  2221  0D4F  00E1               	movwf	??_main
  2222  0D50  0861               	movf	??_main,w
  2223  0D51  1683               	bsf	3,5	;RP0=1, select bank3
  2224  0D52  1703               	bsf	3,6	;RP1=1, select bank3
  2225  0D53  00A0               	movwf	main@control_flag^(0+384)
  2226                           
  2227                           ;main.c: 103: 
  2228  0D54  3014               	movlw	20
  2229  0D55  1283               	bcf	3,5	;RP0=0, select bank0
  2230  0D56  1303               	bcf	3,6	;RP1=0, select bank0
  2231  0D57  00E1               	movwf	??_main
  2232  0D58  0861               	movf	??_main,w
  2233  0D59  1683               	bsf	3,5	;RP0=1, select bank3
  2234  0D5A  1703               	bsf	3,6	;RP1=1, select bank3
  2235  0D5B  009F               	movwf	main@reset_flag^(0+384)
  2236  0D5C  2CBF               	goto	l5744
  2237  0D5D                     l5786:
  2238                           
  2239                           ;main.c: 108:         else if((control_flag == 0x03) && (key_level == 0x2F) && (delay5++
      +                           == 20))
  2240  0D5D  3008               	movlw	8
  2241  0D5E  00E1               	movwf	??_main
  2242  0D5F  0861               	movf	??_main,w
  2243  0D60  1683               	bsf	3,5	;RP0=1, select bank3
  2244  0D61  1703               	bsf	3,6	;RP1=1, select bank3
  2245  0D62  00A0               	movwf	main@control_flag^(0+384)
  2246                           
  2247                           ;main.c: 109:         {
  2248  0D63  3016               	movlw	22
  2249  0D64  1283               	bcf	3,5	;RP0=0, select bank0
  2250  0D65  1303               	bcf	3,6	;RP1=0, select bank0
  2251  0D66  00E1               	movwf	??_main
  2252  0D67  0861               	movf	??_main,w
  2253  0D68  1683               	bsf	3,5	;RP0=1, select bank3
  2254  0D69  1703               	bsf	3,6	;RP1=1, select bank3
  2255  0D6A  009F               	movwf	main@reset_flag^(0+384)
  2256  0D6B  2CBF               	goto	l5744
  2257  0D6C                     l5792:
  2258  0D6C  081C               	movf	main@menu_pos^(0+384),w
  2259  0D6D  1283               	bcf	3,5	;RP0=0, select bank0
  2260  0D6E  1303               	bcf	3,6	;RP1=0, select bank0
  2261  0D6F  00E1               	movwf	??_main
  2262  0D70  01E2               	clrf	??_main+1
  2263                           
  2264                           ; Switch on 2 bytes has been partitioned into a top level switch of size 1, and 1 sub-sw
      +                          itches
  2265                           ; Switch size 1, requested type "simple"
  2266                           ; Number of cases is 1, Range of values is 0 to 0
  2267                           ; switch strategies available:
  2268                           ; Name         Instructions Cycles
  2269                           ; simple_byte            4     3 (average)
  2270                           ; direct_byte           11     8 (fixed)
  2271                           ; jumptable            260     6 (fixed)
  2272                           ;	Chosen strategy is simple_byte
  2273  0D71  0862               	movf	??_main+1,w
  2274  0D72  3A00               	xorlw	0	; case 0
  2275  0D73  1903               	skipnz
  2276  0D74  2D76               	goto	l6094
  2277  0D75  2FCE               	goto	l5942
  2278  0D76                     l6094:
  2279                           
  2280                           ; Switch size 1, requested type "simple"
  2281                           ; Number of cases is 2, Range of values is 0 to 1
  2282                           ; switch strategies available:
  2283                           ; Name         Instructions Cycles
  2284                           ; simple_byte            7     4 (average)
  2285                           ; direct_byte           14     8 (fixed)
  2286                           ; jumptable            260     6 (fixed)
  2287                           ;	Chosen strategy is simple_byte
  2288  0D76  0861               	movf	??_main,w
  2289  0D77  3A00               	xorlw	0	; case 0
  2290  0D78  1903               	skipnz
  2291  0D79  2D4E               	goto	l5782
  2292  0D7A  3A01               	xorlw	1	; case 1
  2293  0D7B  1903               	skipnz
  2294  0D7C  2D5D               	goto	l5786
  2295  0D7D  2FCE               	goto	l5942
  2296  0D7E                     l270:
  2297                           
  2298                           ;main.c: 113:             reset_flag = 0x10;
  2299  0D7E  2FCE               	goto	l5942
  2300  0D7F                     l5794:
  2301  0D7F  3002               	movlw	2
  2302  0D80  0620               	xorwf	main@control_flag^(0+384),w
  2303  0D81  1D03               	btfss	3,2
  2304  0D82  2D84               	goto	u6351
  2305  0D83  2D85               	goto	u6350
  2306  0D84                     u6351:
  2307  0D84  2DA5               	goto	l5806
  2308  0D85                     u6350:
  2309  0D85                     l5796:
  2310  0D85  302F               	movlw	47
  2311  0D86  061E               	xorwf	main@key_level^(0+384),w
  2312  0D87  1D03               	btfss	3,2
  2313  0D88  2D8A               	goto	u6361
  2314  0D89  2D8B               	goto	u6360
  2315  0D8A                     u6361:
  2316  0D8A  2DA5               	goto	l5806
  2317  0D8B                     u6360:
  2318  0D8B                     l5798:
  2319  0D8B  3001               	movlw	1
  2320  0D8C  0790               	addwf	main@delay4^(0+384),f
  2321  0D8D  1803               	skipnc
  2322  0D8E  0A91               	incf	(main@delay4+1)^(0+384),f
  2323  0D8F  3000               	movlw	0
  2324  0D90  0791               	addwf	(main@delay4+1)^(0+384),f
  2325  0D91  3015               	movlw	21
  2326  0D92  0610               	xorwf	main@delay4^(0+384),w
  2327  0D93  0411               	iorwf	(main@delay4+1)^(0+384),w
  2328  0D94  1D03               	btfss	3,2
  2329  0D95  2D97               	goto	u6371
  2330  0D96  2D98               	goto	u6370
  2331  0D97                     u6371:
  2332  0D97  2DA5               	goto	l5806
  2333  0D98                     u6370:
  2334  0D98                     l5800:
  2335                           
  2336                           ;main.c: 115:         else if((control_flag == 0x04) && (key_level == 0x2F) && (delay6++
      +                           == 20));main.c: 117: 
  2337  0D98  0190               	clrf	main@delay4^(0+384)
  2338  0D99  0191               	clrf	(main@delay4+1)^(0+384)
  2339  0D9A                     l5802:
  2340                           
  2341                           ;main.c: 118:             delay6 = 0;
  2342  0D9A  01A0               	clrf	main@control_flag^(0+384)
  2343  0D9B  0AA0               	incf	main@control_flag^(0+384),f
  2344  0D9C                     l5804:
  2345                           
  2346                           ;main.c: 119:             control_flag = 0x02;
  2347  0D9C  3017               	movlw	23
  2348  0D9D  1283               	bcf	3,5	;RP0=0, select bank0
  2349  0D9E  1303               	bcf	3,6	;RP1=0, select bank0
  2350  0D9F  00E1               	movwf	??_main
  2351  0DA0  0861               	movf	??_main,w
  2352  0DA1  1683               	bsf	3,5	;RP0=1, select bank3
  2353  0DA2  1703               	bsf	3,6	;RP1=1, select bank3
  2354  0DA3  009F               	movwf	main@reset_flag^(0+384)
  2355                           
  2356                           ;main.c: 120:             reset_flag = 0x10;
  2357  0DA4  2FCE               	goto	l5942
  2358  0DA5                     l5806:
  2359  0DA5  3003               	movlw	3
  2360  0DA6  0620               	xorwf	main@control_flag^(0+384),w
  2361  0DA7  1D03               	btfss	3,2
  2362  0DA8  2DAA               	goto	u6381
  2363  0DA9  2DAB               	goto	u6380
  2364  0DAA                     u6381:
  2365  0DAA  2DC1               	goto	l5818
  2366  0DAB                     u6380:
  2367  0DAB                     l5808:
  2368  0DAB  302F               	movlw	47
  2369  0DAC  061E               	xorwf	main@key_level^(0+384),w
  2370  0DAD  1D03               	btfss	3,2
  2371  0DAE  2DB0               	goto	u6391
  2372  0DAF  2DB1               	goto	u6390
  2373  0DB0                     u6391:
  2374  0DB0  2DC1               	goto	l5818
  2375  0DB1                     u6390:
  2376  0DB1                     l5810:
  2377  0DB1  3001               	movlw	1
  2378  0DB2  0792               	addwf	main@delay5^(0+384),f
  2379  0DB3  1803               	skipnc
  2380  0DB4  0A93               	incf	(main@delay5+1)^(0+384),f
  2381  0DB5  3000               	movlw	0
  2382  0DB6  0793               	addwf	(main@delay5+1)^(0+384),f
  2383  0DB7  3015               	movlw	21
  2384  0DB8  0612               	xorwf	main@delay5^(0+384),w
  2385  0DB9  0413               	iorwf	(main@delay5+1)^(0+384),w
  2386  0DBA  1D03               	btfss	3,2
  2387  0DBB  2DBD               	goto	u6401
  2388  0DBC  2DBE               	goto	u6400
  2389  0DBD                     u6401:
  2390  0DBD  2DC1               	goto	l5818
  2391  0DBE                     u6400:
  2392  0DBE                     l5812:
  2393                           
  2394                           ;main.c: 122:         else if((control_flag == 0x07) && (key_level == 0x2F) && (delay1++
      +                           == 20));main.c: 124: 
  2395  0DBE  0192               	clrf	main@delay5^(0+384)
  2396  0DBF  0193               	clrf	(main@delay5+1)^(0+384)
  2397  0DC0  2C84               	goto	l5730
  2398  0DC1                     l5818:
  2399  0DC1  3004               	movlw	4
  2400  0DC2  0620               	xorwf	main@control_flag^(0+384),w
  2401  0DC3  1D03               	btfss	3,2
  2402  0DC4  2DC6               	goto	u6411
  2403  0DC5  2DC7               	goto	u6410
  2404  0DC6                     u6411:
  2405  0DC6  2DDD               	goto	l5830
  2406  0DC7                     u6410:
  2407  0DC7                     l5820:
  2408  0DC7  302F               	movlw	47
  2409  0DC8  061E               	xorwf	main@key_level^(0+384),w
  2410  0DC9  1D03               	btfss	3,2
  2411  0DCA  2DCC               	goto	u6421
  2412  0DCB  2DCD               	goto	u6420
  2413  0DCC                     u6421:
  2414  0DCC  2DDD               	goto	l5830
  2415  0DCD                     u6420:
  2416  0DCD                     l5822:
  2417  0DCD  3001               	movlw	1
  2418  0DCE  0794               	addwf	main@delay6^(0+384),f
  2419  0DCF  1803               	skipnc
  2420  0DD0  0A95               	incf	(main@delay6+1)^(0+384),f
  2421  0DD1  3000               	movlw	0
  2422  0DD2  0795               	addwf	(main@delay6+1)^(0+384),f
  2423  0DD3  3015               	movlw	21
  2424  0DD4  0614               	xorwf	main@delay6^(0+384),w
  2425  0DD5  0415               	iorwf	(main@delay6+1)^(0+384),w
  2426  0DD6  1D03               	btfss	3,2
  2427  0DD7  2DD9               	goto	u6431
  2428  0DD8  2DDA               	goto	u6430
  2429  0DD9                     u6431:
  2430  0DD9  2DDD               	goto	l5830
  2431  0DDA                     u6430:
  2432  0DDA                     l5824:
  2433                           
  2434                           ;main.c: 129:             write_ds1307(0x00, dec2bcd(second));;main.c: 131:             
      +                          write_ds1307(0x02, dec2bcd(hour));
  2435  0DDA  0194               	clrf	main@delay6^(0+384)
  2436  0DDB  0195               	clrf	(main@delay6+1)^(0+384)
  2437  0DDC  2C84               	goto	l5730
  2438  0DDD                     l5830:
  2439  0DDD  3007               	movlw	7
  2440  0DDE  0620               	xorwf	main@control_flag^(0+384),w
  2441  0DDF  1D03               	btfss	3,2
  2442  0DE0  2DE2               	goto	u6441
  2443  0DE1  2DE3               	goto	u6440
  2444  0DE2                     u6441:
  2445  0DE2  2E42               	goto	l5850
  2446  0DE3                     u6440:
  2447  0DE3                     l5832:
  2448  0DE3  302F               	movlw	47
  2449  0DE4  061E               	xorwf	main@key_level^(0+384),w
  2450  0DE5  1D03               	btfss	3,2
  2451  0DE6  2DE8               	goto	u6451
  2452  0DE7  2DE9               	goto	u6450
  2453  0DE8                     u6451:
  2454  0DE8  2E42               	goto	l5850
  2455  0DE9                     u6450:
  2456  0DE9                     l5834:
  2457  0DE9  3001               	movlw	1
  2458  0DEA  079A               	addwf	main@delay1^(0+384),f
  2459  0DEB  1803               	skipnc
  2460  0DEC  0A9B               	incf	(main@delay1+1)^(0+384),f
  2461  0DED  3000               	movlw	0
  2462  0DEE  079B               	addwf	(main@delay1+1)^(0+384),f
  2463  0DEF  3015               	movlw	21
  2464  0DF0  061A               	xorwf	main@delay1^(0+384),w
  2465  0DF1  041B               	iorwf	(main@delay1+1)^(0+384),w
  2466  0DF2  1D03               	btfss	3,2
  2467  0DF3  2DF5               	goto	u6461
  2468  0DF4  2DF6               	goto	u6460
  2469  0DF5                     u6461:
  2470  0DF5  2E42               	goto	l5850
  2471  0DF6                     u6460:
  2472  0DF6                     l5836:
  2473                           
  2474                           ;main.c: 136: ;main.c: 138:             control_flag = 0x04;
  2475  0DF6  019A               	clrf	main@delay1^(0+384)
  2476  0DF7  019B               	clrf	(main@delay1+1)^(0+384)
  2477  0DF8                     l5838:
  2478                           
  2479                           ;main.c: 139:             reset_flag = 0x12;
  2480  0DF8  3004               	movlw	4
  2481  0DF9  1283               	bcf	3,5	;RP0=0, select bank0
  2482  0DFA  1303               	bcf	3,6	;RP1=0, select bank0
  2483  0DFB  00E1               	movwf	??_main
  2484  0DFC  0861               	movf	??_main,w
  2485  0DFD  1683               	bsf	3,5	;RP0=1, select bank3
  2486  0DFE  1703               	bsf	3,6	;RP1=1, select bank3
  2487  0DFF  00A0               	movwf	main@control_flag^(0+384)
  2488  0E00                     l5840:
  2489                           
  2490                           ;main.c: 140: 
  2491  0E00  3012               	movlw	18
  2492  0E01  1283               	bcf	3,5	;RP0=0, select bank0
  2493  0E02  1303               	bcf	3,6	;RP1=0, select bank0
  2494  0E03  00E1               	movwf	??_main
  2495  0E04  0861               	movf	??_main,w
  2496  0E05  1683               	bsf	3,5	;RP0=1, select bank3
  2497  0E06  1703               	bsf	3,6	;RP1=1, select bank3
  2498  0E07  009F               	movwf	main@reset_flag^(0+384)
  2499  0E08                     l5842:
  2500                           
  2501                           ;main.c: 142:             write_ds1307(0x05, dec2bcd(month));
  2502  0E08  1283               	bcf	3,5	;RP0=0, select bank0
  2503  0E09  1303               	bcf	3,6	;RP1=0, select bank0
  2504  0E0A  083C               	movf	_second,w
  2505  0E0B  120A  158A  200C  120A  158A  	fcall	_dec2bcd
  2506  0E10  1283               	bcf	3,5	;RP0=0, select bank0
  2507  0E11  1303               	bcf	3,6	;RP1=0, select bank0
  2508  0E12  00E1               	movwf	??_main
  2509  0E13  0861               	movf	??_main,w
  2510  0E14  00DD               	movwf	write_ds1307@data
  2511  0E15  3000               	movlw	0
  2512  0E16  160A  158A  2439  120A  158A  	fcall	_write_ds1307
  2513  0E1B                     l5844:
  2514                           
  2515                           ;main.c: 143:             write_ds1307(0x04, dec2bcd(day));
  2516  0E1B  1283               	bcf	3,5	;RP0=0, select bank0
  2517  0E1C  1303               	bcf	3,6	;RP1=0, select bank0
  2518  0E1D  083B               	movf	_minute,w
  2519  0E1E  120A  158A  200C  120A  158A  	fcall	_dec2bcd
  2520  0E23  1283               	bcf	3,5	;RP0=0, select bank0
  2521  0E24  1303               	bcf	3,6	;RP1=0, select bank0
  2522  0E25  00E1               	movwf	??_main
  2523  0E26  0861               	movf	??_main,w
  2524  0E27  00DD               	movwf	write_ds1307@data
  2525  0E28  3001               	movlw	1
  2526  0E29  160A  158A  2439  120A  158A  	fcall	_write_ds1307
  2527  0E2E                     l5846:
  2528                           
  2529                           ;main.c: 144:             clear_screen();
  2530  0E2E  1283               	bcf	3,5	;RP0=0, select bank0
  2531  0E2F  1303               	bcf	3,6	;RP1=0, select bank0
  2532  0E30  083A               	movf	_hour,w
  2533  0E31  120A  158A  200C  120A  158A  	fcall	_dec2bcd
  2534  0E36  1283               	bcf	3,5	;RP0=0, select bank0
  2535  0E37  1303               	bcf	3,6	;RP1=0, select bank0
  2536  0E38  00E1               	movwf	??_main
  2537  0E39  0861               	movf	??_main,w
  2538  0E3A  00DD               	movwf	write_ds1307@data
  2539  0E3B  3002               	movlw	2
  2540  0E3C  160A  158A  2439  120A  158A  	fcall	_write_ds1307
  2541  0E41  2CBF               	goto	l5744
  2542  0E42                     l5850:
  2543  0E42  3008               	movlw	8
  2544  0E43  0620               	xorwf	main@control_flag^(0+384),w
  2545  0E44  1D03               	btfss	3,2
  2546  0E45  2E47               	goto	u6471
  2547  0E46  2E48               	goto	u6470
  2548  0E47                     u6471:
  2549  0E47  2EA7               	goto	l5870
  2550  0E48                     u6470:
  2551  0E48                     l5852:
  2552  0E48  302F               	movlw	47
  2553  0E49  061E               	xorwf	main@key_level^(0+384),w
  2554  0E4A  1D03               	btfss	3,2
  2555  0E4B  2E4D               	goto	u6481
  2556  0E4C  2E4E               	goto	u6480
  2557  0E4D                     u6481:
  2558  0E4D  2EA7               	goto	l5870
  2559  0E4E                     u6480:
  2560  0E4E                     l5854:
  2561  0E4E  3001               	movlw	1
  2562  0E4F  0796               	addwf	main@delay2^(0+384),f
  2563  0E50  1803               	skipnc
  2564  0E51  0A97               	incf	(main@delay2+1)^(0+384),f
  2565  0E52  3000               	movlw	0
  2566  0E53  0797               	addwf	(main@delay2+1)^(0+384),f
  2567  0E54  3015               	movlw	21
  2568  0E55  0616               	xorwf	main@delay2^(0+384),w
  2569  0E56  0417               	iorwf	(main@delay2+1)^(0+384),w
  2570  0E57  1D03               	btfss	3,2
  2571  0E58  2E5A               	goto	u6491
  2572  0E59  2E5B               	goto	u6490
  2573  0E5A                     u6491:
  2574  0E5A  2EA7               	goto	l5870
  2575  0E5B                     u6490:
  2576  0E5B                     l5856:
  2577                           
  2578                           ;main.c: 148: ;main.c: 150:             control_flag = 0x03;
  2579  0E5B  0196               	clrf	main@delay2^(0+384)
  2580  0E5C  0197               	clrf	(main@delay2+1)^(0+384)
  2581  0E5D                     l5858:
  2582                           
  2583                           ;main.c: 151:             reset_flag = 0x11;
  2584  0E5D  3004               	movlw	4
  2585  0E5E  1283               	bcf	3,5	;RP0=0, select bank0
  2586  0E5F  1303               	bcf	3,6	;RP1=0, select bank0
  2587  0E60  00E1               	movwf	??_main
  2588  0E61  0861               	movf	??_main,w
  2589  0E62  1683               	bsf	3,5	;RP0=1, select bank3
  2590  0E63  1703               	bsf	3,6	;RP1=1, select bank3
  2591  0E64  00A0               	movwf	main@control_flag^(0+384)
  2592  0E65                     l5860:
  2593                           
  2594                           ;main.c: 152:             alarm_event();
  2595  0E65  3012               	movlw	18
  2596  0E66  1283               	bcf	3,5	;RP0=0, select bank0
  2597  0E67  1303               	bcf	3,6	;RP1=0, select bank0
  2598  0E68  00E1               	movwf	??_main
  2599  0E69  0861               	movf	??_main,w
  2600  0E6A  1683               	bsf	3,5	;RP0=1, select bank3
  2601  0E6B  1703               	bsf	3,6	;RP1=1, select bank3
  2602  0E6C  009F               	movwf	main@reset_flag^(0+384)
  2603  0E6D                     l5862:
  2604                           
  2605                           ;main.c: 154:         }
  2606  0E6D  1283               	bcf	3,5	;RP0=0, select bank0
  2607  0E6E  1303               	bcf	3,6	;RP1=0, select bank0
  2608  0E6F  0837               	movf	_year,w
  2609  0E70  120A  158A  200C  120A  158A  	fcall	_dec2bcd
  2610  0E75  1283               	bcf	3,5	;RP0=0, select bank0
  2611  0E76  1303               	bcf	3,6	;RP1=0, select bank0
  2612  0E77  00E1               	movwf	??_main
  2613  0E78  0861               	movf	??_main,w
  2614  0E79  00DD               	movwf	write_ds1307@data
  2615  0E7A  3006               	movlw	6
  2616  0E7B  160A  158A  2439  120A  158A  	fcall	_write_ds1307
  2617  0E80                     l5864:
  2618                           
  2619                           ;main.c: 155:         else if((control_flag == 0x06) && (key_level == 0x2F) && (delay1++
      +                           == 20))
  2620  0E80  1283               	bcf	3,5	;RP0=0, select bank0
  2621  0E81  1303               	bcf	3,6	;RP1=0, select bank0
  2622  0E82  0838               	movf	_month,w
  2623  0E83  120A  158A  200C  120A  158A  	fcall	_dec2bcd
  2624  0E88  1283               	bcf	3,5	;RP0=0, select bank0
  2625  0E89  1303               	bcf	3,6	;RP1=0, select bank0
  2626  0E8A  00E1               	movwf	??_main
  2627  0E8B  0861               	movf	??_main,w
  2628  0E8C  00DD               	movwf	write_ds1307@data
  2629  0E8D  3005               	movlw	5
  2630  0E8E  160A  158A  2439  120A  158A  	fcall	_write_ds1307
  2631  0E93                     l5866:
  2632                           
  2633                           ;main.c: 156:         {
  2634  0E93  1283               	bcf	3,5	;RP0=0, select bank0
  2635  0E94  1303               	bcf	3,6	;RP1=0, select bank0
  2636  0E95  0839               	movf	_day,w
  2637  0E96  120A  158A  200C  120A  158A  	fcall	_dec2bcd
  2638  0E9B  1283               	bcf	3,5	;RP0=0, select bank0
  2639  0E9C  1303               	bcf	3,6	;RP1=0, select bank0
  2640  0E9D  00E1               	movwf	??_main
  2641  0E9E  0861               	movf	??_main,w
  2642  0E9F  00DD               	movwf	write_ds1307@data
  2643  0EA0  3004               	movlw	4
  2644  0EA1  160A  158A  2439  120A  158A  	fcall	_write_ds1307
  2645  0EA6  2CBF               	goto	l5744
  2646  0EA7                     l5870:
  2647  0EA7  3005               	movlw	5
  2648  0EA8  0620               	xorwf	main@control_flag^(0+384),w
  2649  0EA9  1D03               	btfss	3,2
  2650  0EAA  2EAC               	goto	u6501
  2651  0EAB  2EAD               	goto	u6500
  2652  0EAC                     u6501:
  2653  0EAC  2ED8               	goto	l5886
  2654  0EAD                     u6500:
  2655  0EAD                     l5872:
  2656  0EAD  302F               	movlw	47
  2657  0EAE  061E               	xorwf	main@key_level^(0+384),w
  2658  0EAF  1D03               	btfss	3,2
  2659  0EB0  2EB2               	goto	u6511
  2660  0EB1  2EB3               	goto	u6510
  2661  0EB2                     u6511:
  2662  0EB2  2ED8               	goto	l5886
  2663  0EB3                     u6510:
  2664  0EB3                     l5874:
  2665  0EB3  3001               	movlw	1
  2666  0EB4  0798               	addwf	main@delay3^(0+384),f
  2667  0EB5  1803               	skipnc
  2668  0EB6  0A99               	incf	(main@delay3+1)^(0+384),f
  2669  0EB7  3000               	movlw	0
  2670  0EB8  0799               	addwf	(main@delay3+1)^(0+384),f
  2671  0EB9  3015               	movlw	21
  2672  0EBA  0618               	xorwf	main@delay3^(0+384),w
  2673  0EBB  0419               	iorwf	(main@delay3+1)^(0+384),w
  2674  0EBC  1D03               	btfss	3,2
  2675  0EBD  2EBF               	goto	u6521
  2676  0EBE  2EC0               	goto	u6520
  2677  0EBF                     u6521:
  2678  0EBF  2ED8               	goto	l5886
  2679  0EC0                     u6520:
  2680  0EC0                     l5876:
  2681                           
  2682                           ;main.c: 160:             reset_flag = 0x11;;main.c: 162:         }
  2683  0EC0  0198               	clrf	main@delay3^(0+384)
  2684  0EC1  0199               	clrf	(main@delay3+1)^(0+384)
  2685  0EC2                     l5878:
  2686                           
  2687                           ;main.c: 163: 
  2688  0EC2  3003               	movlw	3
  2689  0EC3  1283               	bcf	3,5	;RP0=0, select bank0
  2690  0EC4  1303               	bcf	3,6	;RP1=0, select bank0
  2691  0EC5  00E1               	movwf	??_main
  2692  0EC6  0861               	movf	??_main,w
  2693  0EC7  1683               	bsf	3,5	;RP0=1, select bank3
  2694  0EC8  1703               	bsf	3,6	;RP1=1, select bank3
  2695  0EC9  00A0               	movwf	main@control_flag^(0+384)
  2696  0ECA                     l5880:
  2697                           
  2698                           ;main.c: 164: 
  2699  0ECA  3011               	movlw	17
  2700  0ECB  1283               	bcf	3,5	;RP0=0, select bank0
  2701  0ECC  1303               	bcf	3,6	;RP1=0, select bank0
  2702  0ECD  00E1               	movwf	??_main
  2703  0ECE  0861               	movf	??_main,w
  2704  0ECF  1683               	bsf	3,5	;RP0=1, select bank3
  2705  0ED0  1703               	bsf	3,6	;RP1=1, select bank3
  2706  0ED1  009F               	movwf	main@reset_flag^(0+384)
  2707  0ED2                     l5882:
  2708                           
  2709                           ;main.c: 165:         switch(control_flag)
  2710  0ED2  160A  158A  239E  120A  158A  	fcall	_alarm_event
  2711  0ED7  2CBF               	goto	l5744
  2712  0ED8                     l5886:
  2713  0ED8  3006               	movlw	6
  2714  0ED9  0620               	xorwf	main@control_flag^(0+384),w
  2715  0EDA  1D03               	btfss	3,2
  2716  0EDB  2EDD               	goto	u6531
  2717  0EDC  2EDE               	goto	u6530
  2718  0EDD                     u6531:
  2719  0EDD  2D7E               	goto	l270
  2720  0EDE                     u6530:
  2721  0EDE                     l5888:
  2722  0EDE  302F               	movlw	47
  2723  0EDF  061E               	xorwf	main@key_level^(0+384),w
  2724  0EE0  1D03               	btfss	3,2
  2725  0EE1  2EE3               	goto	u6541
  2726  0EE2  2EE4               	goto	u6540
  2727  0EE3                     u6541:
  2728  0EE3  2D7E               	goto	l270
  2729  0EE4                     u6540:
  2730  0EE4                     l5890:
  2731  0EE4  3001               	movlw	1
  2732  0EE5  079A               	addwf	main@delay1^(0+384),f
  2733  0EE6  1803               	skipnc
  2734  0EE7  0A9B               	incf	(main@delay1+1)^(0+384),f
  2735  0EE8  3000               	movlw	0
  2736  0EE9  079B               	addwf	(main@delay1+1)^(0+384),f
  2737  0EEA  3015               	movlw	21
  2738  0EEB  061A               	xorwf	main@delay1^(0+384),w
  2739  0EEC  041B               	iorwf	(main@delay1+1)^(0+384),w
  2740  0EED  1D03               	btfss	3,2
  2741  0EEE  2EF0               	goto	u6551
  2742  0EEF  2EF1               	goto	u6550
  2743  0EF0                     u6551:
  2744  0EF0  2D7E               	goto	l270
  2745  0EF1                     u6550:
  2746  0EF1                     l5892:
  2747                           
  2748                           ;main.c: 169:             {;main.c: 171:                 break;
  2749  0EF1  019A               	clrf	main@delay1^(0+384)
  2750  0EF2  019B               	clrf	(main@delay1+1)^(0+384)
  2751  0EF3                     l5894:
  2752                           
  2753                           ;main.c: 172:             }
  2754  0EF3  3003               	movlw	3
  2755  0EF4  1283               	bcf	3,5	;RP0=0, select bank0
  2756  0EF5  1303               	bcf	3,6	;RP1=0, select bank0
  2757  0EF6  00E1               	movwf	??_main
  2758  0EF7  0861               	movf	??_main,w
  2759  0EF8  1683               	bsf	3,5	;RP0=1, select bank3
  2760  0EF9  1703               	bsf	3,6	;RP1=1, select bank3
  2761  0EFA  00A0               	movwf	main@control_flag^(0+384)
  2762  0EFB                     l5896:
  2763                           
  2764                           ;main.c: 173: 
  2765  0EFB  3011               	movlw	17
  2766  0EFC  1283               	bcf	3,5	;RP0=0, select bank0
  2767  0EFD  1303               	bcf	3,6	;RP1=0, select bank0
  2768  0EFE  00E1               	movwf	??_main
  2769  0EFF  0861               	movf	??_main,w
  2770  0F00  1683               	bsf	3,5	;RP0=1, select bank3
  2771  0F01  1703               	bsf	3,6	;RP1=1, select bank3
  2772  0F02  009F               	movwf	main@reset_flag^(0+384)
  2773  0F03  2CBF               	goto	l5744
  2774  0F04                     l5900:
  2775                           
  2776                           ;main.c: 182:                     reset_flag = 0x17;;main.c: 183:                     cl
      +                          ear_screen();
  2777  0F04  1683               	bsf	3,5	;RP0=1, select bank3
  2778  0F05  1703               	bsf	3,6	;RP1=1, select bank3
  2779  0F06  081F               	movf	main@reset_flag^(0+384),w
  2780  0F07  120A  118A  25E9  120A  158A  	fcall	_display_dash_screen
  2781                           
  2782                           ;main.c: 184:                     continue;
  2783  0F0C  2FF4               	goto	l5944
  2784  0F0D                     l289:	
  2785                           ;main.c: 185:                 };main.c: 187:             }
  2786                           
  2787                           
  2788                           ;main.c: 188: ;main.c: 190:             {
  2789  0F0D  1512               	bsf	18,2	;volatile
  2790  0F0E                     l5902:
  2791                           
  2792                           ;main.c: 191: 
  2793  0F0E  1683               	bsf	3,5	;RP0=1, select bank3
  2794  0F0F  1703               	bsf	3,6	;RP1=1, select bank3
  2795  0F10  081D               	movf	main@key^(0+384),w
  2796  0F11  1283               	bcf	3,5	;RP0=0, select bank0
  2797  0F12  1303               	bcf	3,6	;RP1=0, select bank0
  2798  0F13  00E1               	movwf	??_main
  2799  0F14  0861               	movf	??_main,w
  2800  0F15  00CE               	movwf	menu1@key
  2801  0F16  1683               	bsf	3,5	;RP0=1, select bank3
  2802  0F17  1703               	bsf	3,6	;RP1=1, select bank3
  2803  0F18  081F               	movf	main@reset_flag^(0+384),w
  2804  0F19  160A  118A  212B  120A  158A  	fcall	_menu1
  2805  0F1E  1283               	bcf	3,5	;RP0=0, select bank0
  2806  0F1F  1303               	bcf	3,6	;RP1=0, select bank0
  2807  0F20  00E2               	movwf	??_main+1
  2808  0F21  0862               	movf	??_main+1,w
  2809  0F22  1683               	bsf	3,5	;RP0=1, select bank3
  2810  0F23  1703               	bsf	3,6	;RP1=1, select bank3
  2811  0F24  009C               	movwf	main@menu_pos^(0+384)
  2812  0F25                     l5904:
  2813                           
  2814                           ;main.c: 192:                 TMR2ON = 1;
  2815  0F25  3022               	movlw	34
  2816  0F26  061C               	xorwf	main@menu_pos^(0+384),w
  2817  0F27  1D03               	btfss	3,2
  2818  0F28  2F2A               	goto	u6561
  2819  0F29  2F2B               	goto	u6560
  2820  0F2A                     u6561:
  2821  0F2A  2FF4               	goto	l5944
  2822  0F2B                     u6560:
  2823  0F2B                     l5906:
  2824                           
  2825                           ;main.c: 193:                 menu_pos = menu2(reset_flag, key);;main.c: 194:           
      +                                if(menu_pos == 0x22)
  2826  0F2B  01A0               	clrf	main@control_flag^(0+384)
  2827  0F2C  0AA0               	incf	main@control_flag^(0+384),f
  2828  0F2D                     l5908:
  2829                           
  2830                           ;main.c: 195:                 {
  2831  0F2D  3017               	movlw	23
  2832  0F2E  1283               	bcf	3,5	;RP0=0, select bank0
  2833  0F2F  1303               	bcf	3,6	;RP1=0, select bank0
  2834  0F30  00E1               	movwf	??_main
  2835  0F31  0861               	movf	??_main,w
  2836  0F32  1683               	bsf	3,5	;RP0=1, select bank3
  2837  0F33  1703               	bsf	3,6	;RP1=1, select bank3
  2838  0F34  009F               	movwf	main@reset_flag^(0+384)
  2839  0F35                     l5910:
  2840                           
  2841                           ;main.c: 196:                     control_flag = 0x02;
  2842  0F35  160A  158A  2379  120A  158A  	fcall	_clear_screen
  2843                           
  2844                           ;main.c: 197:                     reset_flag = 0x10;
  2845  0F3A  2C54               	goto	l5718
  2846  0F3B                     l292:	
  2847                           ;main.c: 200:                 };main.c: 202:             }
  2848                           
  2849                           
  2850                           ;main.c: 203: ;main.c: 205:             {
  2851  0F3B  1512               	bsf	18,2	;volatile
  2852  0F3C                     l5912:
  2853                           
  2854                           ;main.c: 206: 
  2855  0F3C  1683               	bsf	3,5	;RP0=1, select bank3
  2856  0F3D  1703               	bsf	3,6	;RP1=1, select bank3
  2857  0F3E  081D               	movf	main@key^(0+384),w
  2858  0F3F  1283               	bcf	3,5	;RP0=0, select bank0
  2859  0F40  1303               	bcf	3,6	;RP1=0, select bank0
  2860  0F41  00E1               	movwf	??_main
  2861  0F42  0861               	movf	??_main,w
  2862  0F43  00CE               	movwf	menu2@key
  2863  0F44  1683               	bsf	3,5	;RP0=1, select bank3
  2864  0F45  1703               	bsf	3,6	;RP1=1, select bank3
  2865  0F46  081F               	movf	main@reset_flag^(0+384),w
  2866  0F47  160A  118A  21CF  120A  158A  	fcall	_menu2
  2867  0F4C  1283               	bcf	3,5	;RP0=0, select bank0
  2868  0F4D  1303               	bcf	3,6	;RP1=0, select bank0
  2869  0F4E  00E2               	movwf	??_main+1
  2870  0F4F  0862               	movf	??_main+1,w
  2871  0F50  1683               	bsf	3,5	;RP0=1, select bank3
  2872  0F51  1703               	bsf	3,6	;RP1=1, select bank3
  2873  0F52  009C               	movwf	main@menu_pos^(0+384)
  2874  0F53                     l5914:
  2875                           
  2876                           ;main.c: 207:                 TMR2ON = 1;
  2877  0F53  3022               	movlw	34
  2878  0F54  061C               	xorwf	main@menu_pos^(0+384),w
  2879  0F55  1D03               	btfss	3,2
  2880  0F56  2F58               	goto	u6571
  2881  0F57  2F59               	goto	u6570
  2882  0F58                     u6571:
  2883  0F58  2FF4               	goto	l5944
  2884  0F59                     u6570:
  2885  0F59                     l5916:
  2886                           
  2887                           ;main.c: 208:                 menu_pos = menu3(reset_flag, key);;main.c: 209:           
      +                                if(menu_pos == 0x22)
  2888  0F59  3002               	movlw	2
  2889  0F5A  1283               	bcf	3,5	;RP0=0, select bank0
  2890  0F5B  1303               	bcf	3,6	;RP1=0, select bank0
  2891  0F5C  00E1               	movwf	??_main
  2892  0F5D  0861               	movf	??_main,w
  2893  0F5E  1683               	bsf	3,5	;RP0=1, select bank3
  2894  0F5F  1703               	bsf	3,6	;RP1=1, select bank3
  2895  0F60  00A0               	movwf	main@control_flag^(0+384)
  2896                           
  2897                           ;main.c: 210:                 {
  2898  0F61  3010               	movlw	16
  2899  0F62  1283               	bcf	3,5	;RP0=0, select bank0
  2900  0F63  1303               	bcf	3,6	;RP1=0, select bank0
  2901  0F64  00E1               	movwf	??_main
  2902  0F65  0861               	movf	??_main,w
  2903  0F66  1683               	bsf	3,5	;RP0=1, select bank3
  2904  0F67  1703               	bsf	3,6	;RP1=1, select bank3
  2905  0F68  009F               	movwf	main@reset_flag^(0+384)
  2906  0F69  2F35               	goto	l5910
  2907  0F6A                     l294:	
  2908                           ;main.c: 215:                 };main.c: 217:             }
  2909                           
  2910                           
  2911                           ;main.c: 218: ;main.c: 220:             {
  2912  0F6A  1512               	bsf	18,2	;volatile
  2913  0F6B                     l5920:
  2914                           
  2915                           ;main.c: 221: 
  2916  0F6B  1683               	bsf	3,5	;RP0=1, select bank3
  2917  0F6C  1703               	bsf	3,6	;RP1=1, select bank3
  2918  0F6D  081D               	movf	main@key^(0+384),w
  2919  0F6E  1283               	bcf	3,5	;RP0=0, select bank0
  2920  0F6F  1303               	bcf	3,6	;RP1=0, select bank0
  2921  0F70  00E1               	movwf	??_main
  2922  0F71  0861               	movf	??_main,w
  2923  0F72  00CE               	movwf	menu3@key
  2924  0F73  1683               	bsf	3,5	;RP0=1, select bank3
  2925  0F74  1703               	bsf	3,6	;RP1=1, select bank3
  2926  0F75  081F               	movf	main@reset_flag^(0+384),w
  2927  0F76  160A  118A  2273  120A  158A  	fcall	_menu3
  2928  0F7B  1283               	bcf	3,5	;RP0=0, select bank0
  2929  0F7C  1303               	bcf	3,6	;RP1=0, select bank0
  2930  0F7D  00E2               	movwf	??_main+1
  2931  0F7E  0862               	movf	??_main+1,w
  2932  0F7F  1683               	bsf	3,5	;RP0=1, select bank3
  2933  0F80  1703               	bsf	3,6	;RP1=1, select bank3
  2934  0F81  009C               	movwf	main@menu_pos^(0+384)
  2935  0F82                     l5922:
  2936                           
  2937                           ;main.c: 222:                 TMR2ON = 0;
  2938  0F82  3022               	movlw	34
  2939  0F83  061C               	xorwf	main@menu_pos^(0+384),w
  2940  0F84  1D03               	btfss	3,2
  2941  0F85  2F87               	goto	u6581
  2942  0F86  2F88               	goto	u6580
  2943  0F87                     u6581:
  2944  0F87  2FF4               	goto	l5944
  2945  0F88                     u6580:
  2946  0F88  2F59               	goto	l5916
  2947  0F89                     l296:	
  2948                           ;main.c: 230:                 TMR2ON = 0;;main.c: 232:                 break;
  2949                           
  2950                           
  2951                           ;main.c: 233:             };main.c: 235:             case 0x05 :
  2952  0F89  1112               	bcf	18,2	;volatile
  2953  0F8A                     l5928:
  2954                           
  2955                           ;main.c: 236:             {
  2956  0F8A  1683               	bsf	3,5	;RP0=1, select bank3
  2957  0F8B  1703               	bsf	3,6	;RP1=1, select bank3
  2958  0F8C  081D               	movf	main@key^(0+384),w
  2959  0F8D  1283               	bcf	3,5	;RP0=0, select bank0
  2960  0F8E  1303               	bcf	3,6	;RP1=0, select bank0
  2961  0F8F  00E1               	movwf	??_main
  2962  0F90  0861               	movf	??_main,w
  2963  0F91  00D6               	movwf	set_time@key
  2964  0F92  1683               	bsf	3,5	;RP0=1, select bank3
  2965  0F93  1703               	bsf	3,6	;RP1=1, select bank3
  2966  0F94  081F               	movf	main@reset_flag^(0+384),w
  2967  0F95  160A  118A  2504  120A  158A  	fcall	_set_time
  2968                           
  2969                           ;main.c: 237: 
  2970  0F9A  2FF4               	goto	l5944
  2971  0F9B                     l297:	
  2972                           ;main.c: 238:                 TMR2ON = 0;;main.c: 240:                 break;
  2973                           
  2974                           
  2975                           ;main.c: 241:             };main.c: 243:             case 0x06 :
  2976  0F9B  1112               	bcf	18,2	;volatile
  2977  0F9C                     l5930:
  2978                           
  2979                           ;main.c: 244:             {
  2980  0F9C  1683               	bsf	3,5	;RP0=1, select bank3
  2981  0F9D  1703               	bsf	3,6	;RP1=1, select bank3
  2982  0F9E  081D               	movf	main@key^(0+384),w
  2983  0F9F  1283               	bcf	3,5	;RP0=0, select bank0
  2984  0FA0  1303               	bcf	3,6	;RP1=0, select bank0
  2985  0FA1  00E1               	movwf	??_main
  2986  0FA2  0861               	movf	??_main,w
  2987  0FA3  00D6               	movwf	set_date@key
  2988  0FA4  1683               	bsf	3,5	;RP0=1, select bank3
  2989  0FA5  1703               	bsf	3,6	;RP1=1, select bank3
  2990  0FA6  081F               	movf	main@reset_flag^(0+384),w
  2991  0FA7  120A  158A  2105  120A  158A  	fcall	_set_date
  2992                           
  2993                           ;main.c: 245: 
  2994  0FAC  2FF4               	goto	l5944
  2995  0FAD                     l298:	
  2996                           ;main.c: 246:                 TMR2ON = 1;;main.c: 248:                 {
  2997                           
  2998                           
  2999                           ;main.c: 249:                     control_flag = 0x02;;main.c: 251:                     
      +                          clear_screen();
  3000  0FAD  1112               	bcf	18,2	;volatile
  3001  0FAE                     l5932:
  3002                           
  3003                           ;main.c: 252:                     continue;
  3004  0FAE  1683               	bsf	3,5	;RP0=1, select bank3
  3005  0FAF  1703               	bsf	3,6	;RP1=1, select bank3
  3006  0FB0  081D               	movf	main@key^(0+384),w
  3007  0FB1  1283               	bcf	3,5	;RP0=0, select bank0
  3008  0FB2  1303               	bcf	3,6	;RP1=0, select bank0
  3009  0FB3  00E1               	movwf	??_main
  3010  0FB4  0861               	movf	??_main,w
  3011  0FB5  00D6               	movwf	set_event@key
  3012  0FB6  1683               	bsf	3,5	;RP0=1, select bank3
  3013  0FB7  1703               	bsf	3,6	;RP1=1, select bank3
  3014  0FB8  081F               	movf	main@reset_flag^(0+384),w
  3015  0FB9  120A  118A  2039  120A  158A  	fcall	_set_event
  3016                           
  3017                           ;main.c: 253:                 }
  3018  0FBE  2FF4               	goto	l5944
  3019  0FBF                     l299:	
  3020                           ;main.c: 254:                 break;;main.c: 256:         }
  3021                           
  3022                           
  3023                           ;main.c: 257:         reset_flag = 0x09;;main.c: 259:     return;
  3024  0FBF  1512               	bsf	18,2	;volatile
  3025  0FC0                     l5934:
  3026                           
  3027                           ;main.c: 260: }
  3028  0FC0  1683               	bsf	3,5	;RP0=1, select bank3
  3029  0FC1  1703               	bsf	3,6	;RP1=1, select bank3
  3030  0FC2  081F               	movf	main@reset_flag^(0+384),w
  3031  0FC3  160A  118A  23C5  120A  158A  	fcall	_display_event
  3032  0FC8  3A22               	xorlw	34
  3033  0FC9  1D03               	skipz
  3034  0FCA  2FCC               	goto	u6591
  3035  0FCB  2FCD               	goto	u6590
  3036  0FCC                     u6591:
  3037  0FCC  2FF4               	goto	l5944
  3038  0FCD                     u6590:
  3039  0FCD  2F59               	goto	l5916
  3040  0FCE                     l5942:
  3041  0FCE  1683               	bsf	3,5	;RP0=1, select bank3
  3042  0FCF  1703               	bsf	3,6	;RP1=1, select bank3
  3043  0FD0  0820               	movf	main@control_flag^(0+384),w
  3044  0FD1  1283               	bcf	3,5	;RP0=0, select bank0
  3045  0FD2  1303               	bcf	3,6	;RP1=0, select bank0
  3046  0FD3  00E1               	movwf	??_main
  3047  0FD4  01E2               	clrf	??_main+1
  3048                           
  3049                           ; Switch on 2 bytes has been partitioned into a top level switch of size 1, and 1 sub-sw
      +                          itches
  3050                           ; Switch size 1, requested type "simple"
  3051                           ; Number of cases is 1, Range of values is 0 to 0
  3052                           ; switch strategies available:
  3053                           ; Name         Instructions Cycles
  3054                           ; simple_byte            4     3 (average)
  3055                           ; direct_byte           11     8 (fixed)
  3056                           ; jumptable            260     6 (fixed)
  3057                           ;	Chosen strategy is simple_byte
  3058  0FD5  0862               	movf	??_main+1,w
  3059  0FD6  3A00               	xorlw	0	; case 0
  3060  0FD7  1903               	skipnz
  3061  0FD8  2FDA               	goto	l6096
  3062  0FD9  2FF4               	goto	l5944
  3063  0FDA                     l6096:
  3064                           
  3065                           ; Switch size 1, requested type "simple"
  3066                           ; Number of cases is 8, Range of values is 1 to 8
  3067                           ; switch strategies available:
  3068                           ; Name         Instructions Cycles
  3069                           ; simple_byte           25    13 (average)
  3070                           ; direct_byte           35    11 (fixed)
  3071                           ; jumptable            263     9 (fixed)
  3072                           ;	Chosen strategy is simple_byte
  3073  0FDA  0861               	movf	??_main,w
  3074  0FDB  3A01               	xorlw	1	; case 1
  3075  0FDC  1903               	skipnz
  3076  0FDD  2F04               	goto	l5900
  3077  0FDE  3A03               	xorlw	3	; case 2
  3078  0FDF  1903               	skipnz
  3079  0FE0  2F0D               	goto	l289
  3080  0FE1  3A01               	xorlw	1	; case 3
  3081  0FE2  1903               	skipnz
  3082  0FE3  2F3B               	goto	l292
  3083  0FE4  3A07               	xorlw	7	; case 4
  3084  0FE5  1903               	skipnz
  3085  0FE6  2F6A               	goto	l294
  3086  0FE7  3A01               	xorlw	1	; case 5
  3087  0FE8  1903               	skipnz
  3088  0FE9  2FAD               	goto	l298
  3089  0FEA  3A03               	xorlw	3	; case 6
  3090  0FEB  1903               	skipnz
  3091  0FEC  2FBF               	goto	l299
  3092  0FED  3A01               	xorlw	1	; case 7
  3093  0FEE  1903               	skipnz
  3094  0FEF  2F89               	goto	l296
  3095  0FF0  3A0F               	xorlw	15	; case 8
  3096  0FF1  1903               	skipnz
  3097  0FF2  2F9B               	goto	l297
  3098  0FF3  2FF4               	goto	l5944
  3099  0FF4                     l5944:
  3100  0FF4  3009               	movlw	9
  3101  0FF5  1283               	bcf	3,5	;RP0=0, select bank0
  3102  0FF6  1303               	bcf	3,6	;RP1=0, select bank0
  3103  0FF7  00E1               	movwf	??_main
  3104  0FF8  0861               	movf	??_main,w
  3105  0FF9  1683               	bsf	3,5	;RP0=1, select bank3
  3106  0FFA  1703               	bsf	3,6	;RP1=1, select bank3
  3107  0FFB  009F               	movwf	main@reset_flag^(0+384)
  3108  0FFC  2C54               	goto	l5718
  3109  0FFD  120A  118A  2810   	ljmp	start
  3110  1000                     __end_of_main:
  3111                           
  3112                           	psect	text1
  3113  1504                     __ptext1:	
  3114 ;; *************** function _set_time *****************
  3115 ;; Defined at:
  3116 ;;		line 296 in file "digital_alarm_clock_def.c"
  3117 ;; Parameters:    Size  Location     Type
  3118 ;;  reset_flag      1    wreg     unsigned char 
  3119 ;;  key             1   14[BANK0 ] unsigned char 
  3120 ;; Auto vars:     Size  Location     Type
  3121 ;;  reset_flag      1   18[BANK0 ] unsigned char 
  3122 ;; Return value:  Size  Location     Type
  3123 ;;                  1    wreg      void 
  3124 ;; Registers used:
  3125 ;;		wreg, fsr0l, fsr0h, status,2, status,0, btemp+1, pclath, cstack
  3126 ;; Tracked objects:
  3127 ;;		On entry : 0/0
  3128 ;;		On exit  : 0/0
  3129 ;;		Unchanged: 0/0
  3130 ;; Data sizes:     COMMON   BANK0   BANK1   BANK3   BANK2
  3131 ;;      Params:         0       1       0       0       0
  3132 ;;      Locals:         0       1       0       0       0
  3133 ;;      Temps:          0       3       0       0       0
  3134 ;;      Totals:         0       5       0       0       0
  3135 ;;Total ram usage:        5 bytes
  3136 ;; Hardware stack levels used: 1
  3137 ;; Hardware stack levels required when called: 6
  3138 ;; This function calls:
  3139 ;;		___awdiv
  3140 ;;		___awmod
  3141 ;;		___bmul
  3142 ;;		_clcd_print
  3143 ;;		_clcd_putch
  3144 ;;		_clear_screen
  3145 ;;		_get_time
  3146 ;; This function is called by:
  3147 ;;		_main
  3148 ;; This function uses a non-reentrant model
  3149 ;;
  3150                           
  3151                           
  3152                           ;psect for function _set_time
  3153  1504                     _set_time:
  3154                           
  3155                           ;incstack = 0
  3156                           ; Regs used in _set_time: [wreg-fsr0h+status,2+status,0+btemp+1+pclath+cstack]
  3157                           ;set_time@reset_flag stored from wreg
  3158  1504  1283               	bcf	3,5	;RP0=0, select bank0
  3159  1505  1303               	bcf	3,6	;RP1=0, select bank0
  3160  1506  00DA               	movwf	set_time@reset_flag
  3161  1507                     l5148:
  3162                           
  3163                           ;digital_alarm_clock_def.c: 296: void set_time(unsigned char reset_flag, unsigned char k
      +                          ey);digital_alarm_clock_def.c: 297: {;digital_alarm_clock_def.c: 298:     static unsigne
      +                          d char second_flag, minute_flag, hour_flag, delay, flag;;digital_alarm_clock_def.c: 300:
      +                               static char new_time[7];;digital_alarm_clock_def.c: 301:     if(reset_flag == 0x14)
  3164  1507  3014               	movlw	20
  3165  1508  065A               	xorwf	set_time@reset_flag,w
  3166  1509  1D03               	btfss	3,2
  3167  150A  2D0C               	goto	u5351
  3168  150B  2D0D               	goto	u5350
  3169  150C                     u5351:
  3170  150C  2E03               	goto	l5202
  3171  150D                     u5350:
  3172  150D                     l5150:
  3173                           
  3174                           ;digital_alarm_clock_def.c: 302:     {;digital_alarm_clock_def.c: 303:         key = 0x3
      +                          F;
  3175  150D  303F               	movlw	63
  3176  150E  00D7               	movwf	??_set_time
  3177  150F  0857               	movf	??_set_time,w
  3178  1510  00D6               	movwf	set_time@key
  3179  1511                     l5152:
  3180                           
  3181                           ;digital_alarm_clock_def.c: 304:         second_flag = 1;
  3182  1511  01B2               	clrf	set_time@second_flag
  3183  1512  0AB2               	incf	set_time@second_flag,f
  3184  1513                     l5154:
  3185                           
  3186                           ;digital_alarm_clock_def.c: 305:         minute_flag = 0;
  3187  1513  01B1               	clrf	set_time@minute_flag
  3188  1514                     l5156:
  3189                           
  3190                           ;digital_alarm_clock_def.c: 306:         hour_flag = 0;
  3191  1514  01B0               	clrf	set_time@hour_flag
  3192  1515                     l5158:
  3193                           
  3194                           ;digital_alarm_clock_def.c: 307:         delay = 0;
  3195  1515  1683               	bsf	3,5	;RP0=1, select bank1
  3196  1516  1303               	bcf	3,6	;RP1=0, select bank1
  3197  1517  01C2               	clrf	set_time@delay^(0+128)
  3198  1518                     l5160:
  3199                           
  3200                           ;digital_alarm_clock_def.c: 308:         clear_screen();
  3201  1518  160A  158A  2379  160A  118A  	fcall	_clear_screen
  3202  151D                     l5162:
  3203                           
  3204                           ;digital_alarm_clock_def.c: 309:         clcd_print("    HH:MM:SS    ", (0x80 + 0));
  3205  151D  3005               	movlw	(low ((STR_13-__stringbase)| (0+32768)))& (0+255)
  3206  151E  1283               	bcf	3,5	;RP0=0, select bank0
  3207  151F  1303               	bcf	3,6	;RP1=0, select bank0
  3208  1520  00CA               	movwf	clcd_print@str
  3209  1521  3080               	movlw	128
  3210  1522  00CB               	movwf	clcd_print@str+1
  3211  1523  3080               	movlw	128
  3212  1524  00D7               	movwf	??_set_time
  3213  1525  0857               	movf	??_set_time,w
  3214  1526  00CC               	movwf	clcd_print@addr
  3215  1527  160A  158A  24DE  160A  118A  	fcall	_clcd_print
  3216  152C                     l5164:
  3217                           
  3218                           ;digital_alarm_clock_def.c: 310:         get_time();
  3219  152C  160A  158A  23F4  160A  118A  	fcall	_get_time
  3220  1531                     l5166:
  3221                           
  3222                           ;digital_alarm_clock_def.c: 314:         time[0] = ((clock_reg[0] >> 4) & 0x03) + '0';
  3223  1531  1283               	bcf	3,5	;RP0=0, select bank0
  3224  1532  1303               	bcf	3,6	;RP1=0, select bank0
  3225  1533  0820               	movf	_clock_reg,w
  3226  1534  00D7               	movwf	??_set_time
  3227  1535  3004               	movlw	4
  3228  1536                     u5365:
  3229  1536  1003               	clrc
  3230  1537  0CD7               	rrf	??_set_time,f
  3231  1538  3EFF               	addlw	-1
  3232  1539  1D03               	skipz
  3233  153A  2D36               	goto	u5365
  3234  153B  0857               	movf	??_set_time,w
  3235  153C  3903               	andlw	3
  3236  153D  3E30               	addlw	48
  3237  153E  00D8               	movwf	??_set_time+1
  3238  153F  0858               	movf	??_set_time+1,w
  3239  1540  00BF               	movwf	_time
  3240  1541                     l5168:
  3241                           
  3242                           ;digital_alarm_clock_def.c: 315:         time[1] = (clock_reg[0] & 0x0F) + '0';
  3243  1541  0820               	movf	_clock_reg,w
  3244  1542  390F               	andlw	15
  3245  1543  3E30               	addlw	48
  3246  1544  00D7               	movwf	??_set_time
  3247  1545  0857               	movf	??_set_time,w
  3248  1546  00C0               	movwf	_time+1
  3249  1547                     l5170:
  3250                           
  3251                           ;digital_alarm_clock_def.c: 318:         time[2] = ((clock_reg[1] >> 4) & 0x07) + '0';
  3252  1547  0821               	movf	_clock_reg+1,w
  3253  1548  00D7               	movwf	??_set_time
  3254  1549  3004               	movlw	4
  3255  154A                     u5375:
  3256  154A  1003               	clrc
  3257  154B  0CD7               	rrf	??_set_time,f
  3258  154C  3EFF               	addlw	-1
  3259  154D  1D03               	skipz
  3260  154E  2D4A               	goto	u5375
  3261  154F  0857               	movf	??_set_time,w
  3262  1550  3907               	andlw	7
  3263  1551  3E30               	addlw	48
  3264  1552  00D8               	movwf	??_set_time+1
  3265  1553  0858               	movf	??_set_time+1,w
  3266  1554  00C1               	movwf	_time+2
  3267  1555                     l5172:
  3268                           
  3269                           ;digital_alarm_clock_def.c: 319:         time[3] = (clock_reg[1] & 0x0F) + '0';
  3270  1555  0821               	movf	_clock_reg+1,w
  3271  1556  390F               	andlw	15
  3272  1557  3E30               	addlw	48
  3273  1558  00D7               	movwf	??_set_time
  3274  1559  0857               	movf	??_set_time,w
  3275  155A  00C2               	movwf	_time+3
  3276  155B                     l5174:
  3277                           
  3278                           ;digital_alarm_clock_def.c: 322:         time[4] = ((clock_reg[2] >> 4) & 0x07) + '0';
  3279  155B  0822               	movf	_clock_reg+2,w
  3280  155C  00D7               	movwf	??_set_time
  3281  155D  3004               	movlw	4
  3282  155E                     u5385:
  3283  155E  1003               	clrc
  3284  155F  0CD7               	rrf	??_set_time,f
  3285  1560  3EFF               	addlw	-1
  3286  1561  1D03               	skipz
  3287  1562  2D5E               	goto	u5385
  3288  1563  0857               	movf	??_set_time,w
  3289  1564  3907               	andlw	7
  3290  1565  3E30               	addlw	48
  3291  1566  00D8               	movwf	??_set_time+1
  3292  1567  0858               	movf	??_set_time+1,w
  3293  1568  00C3               	movwf	_time+4
  3294  1569                     l5176:
  3295                           
  3296                           ;digital_alarm_clock_def.c: 323:         time[5] = (clock_reg[2] & 0x0F) + '0';
  3297  1569  0822               	movf	_clock_reg+2,w
  3298  156A  390F               	andlw	15
  3299  156B  3E30               	addlw	48
  3300  156C  00D7               	movwf	??_set_time
  3301  156D  0857               	movf	??_set_time,w
  3302  156E  00C4               	movwf	_time+5
  3303  156F                     l5178:
  3304                           
  3305                           ;digital_alarm_clock_def.c: 324:         time[6] = '\0';
  3306  156F  01C5               	clrf	_time+6
  3307  1570                     l5180:
  3308                           
  3309                           ;digital_alarm_clock_def.c: 326:         clcd_putch(time[0], (0xC0 + 4));
  3310  1570  30C4               	movlw	196
  3311  1571  00D7               	movwf	??_set_time
  3312  1572  0857               	movf	??_set_time,w
  3313  1573  00CC               	movwf	clcd_putch@addr
  3314  1574  083F               	movf	_time,w
  3315  1575  120A  118A  27EA  160A  118A  	fcall	_clcd_putch
  3316  157A                     l5182:
  3317                           
  3318                           ;digital_alarm_clock_def.c: 327:         clcd_putch(time[1], (0xC0 + 5));
  3319  157A  30C5               	movlw	197
  3320  157B  1283               	bcf	3,5	;RP0=0, select bank0
  3321  157C  1303               	bcf	3,6	;RP1=0, select bank0
  3322  157D  00D7               	movwf	??_set_time
  3323  157E  0857               	movf	??_set_time,w
  3324  157F  00CC               	movwf	clcd_putch@addr
  3325  1580  0840               	movf	_time+1,w
  3326  1581  120A  118A  27EA  160A  118A  	fcall	_clcd_putch
  3327  1586                     l5184:
  3328                           
  3329                           ;digital_alarm_clock_def.c: 328:         clcd_putch(':', (0xC0 + 6));
  3330  1586  30C6               	movlw	198
  3331  1587  1283               	bcf	3,5	;RP0=0, select bank0
  3332  1588  1303               	bcf	3,6	;RP1=0, select bank0
  3333  1589  00D7               	movwf	??_set_time
  3334  158A  0857               	movf	??_set_time,w
  3335  158B  00CC               	movwf	clcd_putch@addr
  3336  158C  303A               	movlw	58
  3337  158D  120A  118A  27EA  160A  118A  	fcall	_clcd_putch
  3338  1592                     l5186:
  3339                           
  3340                           ;digital_alarm_clock_def.c: 329:         clcd_putch(time[2], (0xC0 + 7));
  3341  1592  30C7               	movlw	199
  3342  1593  1283               	bcf	3,5	;RP0=0, select bank0
  3343  1594  1303               	bcf	3,6	;RP1=0, select bank0
  3344  1595  00D7               	movwf	??_set_time
  3345  1596  0857               	movf	??_set_time,w
  3346  1597  00CC               	movwf	clcd_putch@addr
  3347  1598  0841               	movf	_time+2,w
  3348  1599  120A  118A  27EA  160A  118A  	fcall	_clcd_putch
  3349  159E                     l5188:
  3350                           
  3351                           ;digital_alarm_clock_def.c: 330:         clcd_putch(time[3], (0xC0 + 8));
  3352  159E  30C8               	movlw	200
  3353  159F  1283               	bcf	3,5	;RP0=0, select bank0
  3354  15A0  1303               	bcf	3,6	;RP1=0, select bank0
  3355  15A1  00D7               	movwf	??_set_time
  3356  15A2  0857               	movf	??_set_time,w
  3357  15A3  00CC               	movwf	clcd_putch@addr
  3358  15A4  0842               	movf	_time+3,w
  3359  15A5  120A  118A  27EA  160A  118A  	fcall	_clcd_putch
  3360  15AA                     l5190:
  3361                           
  3362                           ;digital_alarm_clock_def.c: 331:         clcd_putch(':', (0xC0 + 9));
  3363  15AA  30C9               	movlw	201
  3364  15AB  1283               	bcf	3,5	;RP0=0, select bank0
  3365  15AC  1303               	bcf	3,6	;RP1=0, select bank0
  3366  15AD  00D7               	movwf	??_set_time
  3367  15AE  0857               	movf	??_set_time,w
  3368  15AF  00CC               	movwf	clcd_putch@addr
  3369  15B0  303A               	movlw	58
  3370  15B1  120A  118A  27EA  160A  118A  	fcall	_clcd_putch
  3371  15B6                     l5192:
  3372                           
  3373                           ;digital_alarm_clock_def.c: 332:         clcd_putch(time[4], (0xC0 + 10));
  3374  15B6  30CA               	movlw	202
  3375  15B7  1283               	bcf	3,5	;RP0=0, select bank0
  3376  15B8  1303               	bcf	3,6	;RP1=0, select bank0
  3377  15B9  00D7               	movwf	??_set_time
  3378  15BA  0857               	movf	??_set_time,w
  3379  15BB  00CC               	movwf	clcd_putch@addr
  3380  15BC  0843               	movf	_time+4,w
  3381  15BD  120A  118A  27EA  160A  118A  	fcall	_clcd_putch
  3382  15C2                     l5194:
  3383                           
  3384                           ;digital_alarm_clock_def.c: 333:         clcd_putch(time[5], (0xC0 + 11));
  3385  15C2  30CB               	movlw	203
  3386  15C3  1283               	bcf	3,5	;RP0=0, select bank0
  3387  15C4  1303               	bcf	3,6	;RP1=0, select bank0
  3388  15C5  00D7               	movwf	??_set_time
  3389  15C6  0857               	movf	??_set_time,w
  3390  15C7  00CC               	movwf	clcd_putch@addr
  3391  15C8  0844               	movf	_time+5,w
  3392  15C9  120A  118A  27EA  160A  118A  	fcall	_clcd_putch
  3393  15CE                     l5196:
  3394                           
  3395                           ;digital_alarm_clock_def.c: 334:         hour = (time[0]-'0')*10+(time[1]-'0');
  3396  15CE  300A               	movlw	10
  3397  15CF  1283               	bcf	3,5	;RP0=0, select bank0
  3398  15D0  1303               	bcf	3,6	;RP1=0, select bank0
  3399  15D1  00D7               	movwf	??_set_time
  3400  15D2  0857               	movf	??_set_time,w
  3401  15D3  00CC               	movwf	___bmul@multiplicand
  3402  15D4  083F               	movf	_time,w
  3403  15D5  160A  118A  20A3  160A  118A  	fcall	___bmul
  3404  15DA  1283               	bcf	3,5	;RP0=0, select bank0
  3405  15DB  1303               	bcf	3,6	;RP1=0, select bank0
  3406  15DC  0740               	addwf	_time+1,w
  3407  15DD  3EF0               	addlw	240
  3408  15DE  00D8               	movwf	??_set_time+1
  3409  15DF  0858               	movf	??_set_time+1,w
  3410  15E0  00BA               	movwf	_hour
  3411  15E1                     l5198:
  3412                           
  3413                           ;digital_alarm_clock_def.c: 335:         minute = (time[2]-'0')*10+(time[3]-'0');
  3414  15E1  300A               	movlw	10
  3415  15E2  00D7               	movwf	??_set_time
  3416  15E3  0857               	movf	??_set_time,w
  3417  15E4  00CC               	movwf	___bmul@multiplicand
  3418  15E5  0841               	movf	_time+2,w
  3419  15E6  160A  118A  20A3  160A  118A  	fcall	___bmul
  3420  15EB  1283               	bcf	3,5	;RP0=0, select bank0
  3421  15EC  1303               	bcf	3,6	;RP1=0, select bank0
  3422  15ED  0742               	addwf	_time+3,w
  3423  15EE  3EF0               	addlw	240
  3424  15EF  00D8               	movwf	??_set_time+1
  3425  15F0  0858               	movf	??_set_time+1,w
  3426  15F1  00BB               	movwf	_minute
  3427  15F2                     l5200:
  3428                           
  3429                           ;digital_alarm_clock_def.c: 336:         second = (time[4]-'0')*10+(time[5]-'0');
  3430  15F2  300A               	movlw	10
  3431  15F3  00D7               	movwf	??_set_time
  3432  15F4  0857               	movf	??_set_time,w
  3433  15F5  00CC               	movwf	___bmul@multiplicand
  3434  15F6  0843               	movf	_time+4,w
  3435  15F7  160A  118A  20A3  160A  118A  	fcall	___bmul
  3436  15FC  1283               	bcf	3,5	;RP0=0, select bank0
  3437  15FD  1303               	bcf	3,6	;RP1=0, select bank0
  3438  15FE  0744               	addwf	_time+5,w
  3439  15FF  3EF0               	addlw	240
  3440  1600  00D8               	movwf	??_set_time+1
  3441  1601  0858               	movf	??_set_time+1,w
  3442  1602  00BC               	movwf	_second
  3443  1603                     l5202:
  3444                           
  3445                           ;digital_alarm_clock_def.c: 341:     if(key == 0x37)
  3446  1603  3037               	movlw	55
  3447  1604  0656               	xorwf	set_time@key,w
  3448  1605  1D03               	btfss	3,2
  3449  1606  2E08               	goto	u5391
  3450  1607  2E09               	goto	u5390
  3451  1608                     u5391:
  3452  1608  2E3D               	goto	l5228
  3453  1609                     u5390:
  3454  1609                     l5204:
  3455                           
  3456                           ;digital_alarm_clock_def.c: 342:     {;digital_alarm_clock_def.c: 343:         if(minute
      +                          _flag)
  3457  1609  0831               	movf	set_time@minute_flag,w
  3458  160A  1903               	btfsc	3,2
  3459  160B  2E0D               	goto	u5401
  3460  160C  2E0E               	goto	u5400
  3461  160D                     u5401:
  3462  160D  2E1A               	goto	l5212
  3463  160E                     u5400:
  3464  160E                     l5206:
  3465                           
  3466                           ;digital_alarm_clock_def.c: 344:         {;digital_alarm_clock_def.c: 345:             +
      +                          +minute;
  3467  160E  3001               	movlw	1
  3468  160F  00D7               	movwf	??_set_time
  3469  1610  0857               	movf	??_set_time,w
  3470  1611  07BB               	addwf	_minute,f
  3471  1612                     l5208:
  3472                           
  3473                           ;digital_alarm_clock_def.c: 346:             if(minute > 60)
  3474  1612  303D               	movlw	61
  3475  1613  023B               	subwf	_minute,w
  3476  1614  1C03               	skipc
  3477  1615  2E17               	goto	u5411
  3478  1616  2E18               	goto	u5410
  3479  1617                     u5411:
  3480  1617  2E60               	goto	l5248
  3481  1618                     u5410:
  3482  1618                     l5210:
  3483                           
  3484                           ;digital_alarm_clock_def.c: 347:                 minute = 0;
  3485  1618  01BB               	clrf	_minute
  3486  1619  2E60               	goto	l5248
  3487  161A                     l5212:
  3488  161A  0830               	movf	set_time@hour_flag,w
  3489  161B  1903               	btfsc	3,2
  3490  161C  2E1E               	goto	u5421
  3491  161D  2E1F               	goto	u5420
  3492  161E                     u5421:
  3493  161E  2E2B               	goto	l5220
  3494  161F                     u5420:
  3495  161F                     l5214:
  3496                           
  3497                           ;digital_alarm_clock_def.c: 350:         {;digital_alarm_clock_def.c: 351:             +
      +                          +hour;
  3498  161F  3001               	movlw	1
  3499  1620  00D7               	movwf	??_set_time
  3500  1621  0857               	movf	??_set_time,w
  3501  1622  07BA               	addwf	_hour,f
  3502  1623                     l5216:
  3503                           
  3504                           ;digital_alarm_clock_def.c: 352:             if(hour > 24)
  3505  1623  3019               	movlw	25
  3506  1624  023A               	subwf	_hour,w
  3507  1625  1C03               	skipc
  3508  1626  2E28               	goto	u5431
  3509  1627  2E29               	goto	u5430
  3510  1628                     u5431:
  3511  1628  2E60               	goto	l5248
  3512  1629                     u5430:
  3513  1629                     l5218:
  3514                           
  3515                           ;digital_alarm_clock_def.c: 353:                 hour = 0;
  3516  1629  01BA               	clrf	_hour
  3517  162A  2E60               	goto	l5248
  3518  162B                     l5220:
  3519  162B  0832               	movf	set_time@second_flag,w
  3520  162C  1903               	btfsc	3,2
  3521  162D  2E2F               	goto	u5441
  3522  162E  2E30               	goto	u5440
  3523  162F                     u5441:
  3524  162F  2E3C               	goto	l460
  3525  1630                     u5440:
  3526  1630                     l5222:
  3527                           
  3528                           ;digital_alarm_clock_def.c: 356:         {;digital_alarm_clock_def.c: 357:             +
      +                          +second;
  3529  1630  3001               	movlw	1
  3530  1631  00D7               	movwf	??_set_time
  3531  1632  0857               	movf	??_set_time,w
  3532  1633  07BC               	addwf	_second,f
  3533  1634                     l5224:
  3534                           
  3535                           ;digital_alarm_clock_def.c: 358:             if(second > 60)
  3536  1634  303D               	movlw	61
  3537  1635  023C               	subwf	_second,w
  3538  1636  1C03               	skipc
  3539  1637  2E39               	goto	u5451
  3540  1638  2E3A               	goto	u5450
  3541  1639                     u5451:
  3542  1639  2E60               	goto	l5248
  3543  163A                     u5450:
  3544  163A                     l5226:
  3545                           
  3546                           ;digital_alarm_clock_def.c: 359:                 second = 0;
  3547  163A  01BC               	clrf	_second
  3548  163B  2E60               	goto	l5248
  3549  163C                     l460:
  3550                           
  3551                           ;digital_alarm_clock_def.c: 361:     }
  3552  163C  2E60               	goto	l5248
  3553  163D                     l5228:
  3554  163D  302F               	movlw	47
  3555  163E  0656               	xorwf	set_time@key,w
  3556  163F  1D03               	btfss	3,2
  3557  1640  2E42               	goto	u5461
  3558  1641  2E43               	goto	u5460
  3559  1642                     u5461:
  3560  1642  2E60               	goto	l5248
  3561  1643                     u5460:
  3562  1643                     l5230:
  3563                           
  3564                           ;digital_alarm_clock_def.c: 364:     {;digital_alarm_clock_def.c: 365:         if(second
      +                          _flag)
  3565  1643  0832               	movf	set_time@second_flag,w
  3566  1644  1903               	btfsc	3,2
  3567  1645  2E47               	goto	u5471
  3568  1646  2E48               	goto	u5470
  3569  1647                     u5471:
  3570  1647  2E4D               	goto	l5236
  3571  1648                     u5470:
  3572  1648                     l5232:
  3573                           
  3574                           ;digital_alarm_clock_def.c: 366:         {;digital_alarm_clock_def.c: 367:             h
      +                          our_flag = 0;
  3575  1648  01B0               	clrf	set_time@hour_flag
  3576  1649                     l5234:
  3577                           
  3578                           ;digital_alarm_clock_def.c: 368:             minute_flag = 1;
  3579  1649  01B1               	clrf	set_time@minute_flag
  3580  164A  0AB1               	incf	set_time@minute_flag,f
  3581                           
  3582                           ;digital_alarm_clock_def.c: 369:             second_flag = 0;
  3583  164B  01B2               	clrf	set_time@second_flag
  3584                           
  3585                           ;digital_alarm_clock_def.c: 370:         }
  3586  164C  2E60               	goto	l5248
  3587  164D                     l5236:
  3588  164D  0831               	movf	set_time@minute_flag,w
  3589  164E  1903               	btfsc	3,2
  3590  164F  2E51               	goto	u5481
  3591  1650  2E52               	goto	u5480
  3592  1651                     u5481:
  3593  1651  2E57               	goto	l5242
  3594  1652                     u5480:
  3595  1652                     l5238:
  3596                           
  3597                           ;digital_alarm_clock_def.c: 372:         {;digital_alarm_clock_def.c: 373:             h
      +                          our_flag = 1;
  3598  1652  01B0               	clrf	set_time@hour_flag
  3599  1653  0AB0               	incf	set_time@hour_flag,f
  3600  1654                     l5240:
  3601                           
  3602                           ;digital_alarm_clock_def.c: 374:             minute_flag = 0;
  3603  1654  01B1               	clrf	set_time@minute_flag
  3604                           
  3605                           ;digital_alarm_clock_def.c: 375:             second_flag = 0;
  3606  1655  01B2               	clrf	set_time@second_flag
  3607                           
  3608                           ;digital_alarm_clock_def.c: 376:         }
  3609  1656  2E60               	goto	l5248
  3610  1657                     l5242:
  3611  1657  0830               	movf	set_time@hour_flag,w
  3612  1658  1903               	btfsc	3,2
  3613  1659  2E5B               	goto	u5491
  3614  165A  2E5C               	goto	u5490
  3615  165B                     u5491:
  3616  165B  2E3C               	goto	l460
  3617  165C                     u5490:
  3618  165C                     l5244:
  3619                           
  3620                           ;digital_alarm_clock_def.c: 378:         {;digital_alarm_clock_def.c: 379:             h
      +                          our_flag = 0;
  3621  165C  01B0               	clrf	set_time@hour_flag
  3622                           
  3623                           ;digital_alarm_clock_def.c: 380:             minute_flag = 0;
  3624  165D  01B1               	clrf	set_time@minute_flag
  3625  165E                     l5246:
  3626                           
  3627                           ;digital_alarm_clock_def.c: 381:             second_flag = 1;
  3628  165E  01B2               	clrf	set_time@second_flag
  3629  165F  0AB2               	incf	set_time@second_flag,f
  3630  1660                     l5248:
  3631                           
  3632                           ;digital_alarm_clock_def.c: 386:     if(second_flag)
  3633  1660  0832               	movf	set_time@second_flag,w
  3634  1661  1903               	btfsc	3,2
  3635  1662  2E64               	goto	u5501
  3636  1663  2E65               	goto	u5500
  3637  1664                     u5501:
  3638  1664  2E6A               	goto	l5252
  3639  1665                     u5500:
  3640  1665                     l5250:
  3641                           
  3642                           ;digital_alarm_clock_def.c: 387:     {;digital_alarm_clock_def.c: 388:         if(flag)
  3643  1665  082F               	movf	set_time@flag,w
  3644  1666  1903               	btfsc	3,2
  3645  1667  2E69               	goto	u5511
  3646  1668  2E6A               	goto	u5510
  3647  1669                     u5511:
  3648  1669  2EAE               	goto	l5254
  3649  166A                     u5510:
  3650  166A                     l5252:
  3651                           
  3652                           ;digital_alarm_clock_def.c: 389:         {;digital_alarm_clock_def.c: 390:             n
      +                          ew_time[4] = (second / 10) % 10 + '0';
  3653  166A  300A               	movlw	10
  3654  166B  00D0               	movwf	___awmod@divisor
  3655  166C  3000               	movlw	0
  3656  166D  00D1               	movwf	___awmod@divisor+1
  3657  166E  300A               	movlw	10
  3658  166F  00C8               	movwf	___awdiv@divisor
  3659  1670  3000               	movlw	0
  3660  1671  00C9               	movwf	___awdiv@divisor+1
  3661  1672  083C               	movf	_second,w
  3662  1673  00D7               	movwf	??_set_time
  3663  1674  01D8               	clrf	??_set_time+1
  3664  1675  0857               	movf	??_set_time,w
  3665  1676  00CA               	movwf	___awdiv@dividend
  3666  1677  0858               	movf	??_set_time+1,w
  3667  1678  00CB               	movwf	___awdiv@dividend+1
  3668  1679  160A  158A  2797  160A  118A  	fcall	___awdiv
  3669  167E  1283               	bcf	3,5	;RP0=0, select bank0
  3670  167F  1303               	bcf	3,6	;RP1=0, select bank0
  3671  1680  0849               	movf	?___awdiv+1,w
  3672  1681  00D3               	movwf	___awmod@dividend+1
  3673  1682  0848               	movf	?___awdiv,w
  3674  1683  00D2               	movwf	___awmod@dividend
  3675  1684  160A  158A  2670  160A  118A  	fcall	___awmod
  3676  1689  1283               	bcf	3,5	;RP0=0, select bank0
  3677  168A  1303               	bcf	3,6	;RP1=0, select bank0
  3678  168B  0850               	movf	?___awmod,w
  3679  168C  3E30               	addlw	48
  3680  168D  00D9               	movwf	??_set_time+2
  3681  168E  0859               	movf	??_set_time+2,w
  3682  168F  1683               	bsf	3,5	;RP0=1, select bank1
  3683  1690  1303               	bcf	3,6	;RP1=0, select bank1
  3684  1691  00B6               	movwf	(set_time@new_time^(0+128)+4)
  3685                           
  3686                           ;digital_alarm_clock_def.c: 391:             new_time[5] = (second / 1) % 10 + '0';
  3687  1692  300A               	movlw	10
  3688  1693  1283               	bcf	3,5	;RP0=0, select bank0
  3689  1694  1303               	bcf	3,6	;RP1=0, select bank0
  3690  1695  00D0               	movwf	___awmod@divisor
  3691  1696  3000               	movlw	0
  3692  1697  00D1               	movwf	___awmod@divisor+1
  3693  1698  083C               	movf	_second,w
  3694  1699  00D7               	movwf	??_set_time
  3695  169A  01D8               	clrf	??_set_time+1
  3696  169B  0857               	movf	??_set_time,w
  3697  169C  00D2               	movwf	___awmod@dividend
  3698  169D  0858               	movf	??_set_time+1,w
  3699  169E  00D3               	movwf	___awmod@dividend+1
  3700  169F  160A  158A  2670  160A  118A  	fcall	___awmod
  3701  16A4  1283               	bcf	3,5	;RP0=0, select bank0
  3702  16A5  1303               	bcf	3,6	;RP1=0, select bank0
  3703  16A6  0850               	movf	?___awmod,w
  3704  16A7  3E30               	addlw	48
  3705  16A8  00D9               	movwf	??_set_time+2
  3706  16A9  0859               	movf	??_set_time+2,w
  3707  16AA  1683               	bsf	3,5	;RP0=1, select bank1
  3708  16AB  1303               	bcf	3,6	;RP1=0, select bank1
  3709  16AC  00B7               	movwf	(set_time@new_time^(0+128)+5)
  3710                           
  3711                           ;digital_alarm_clock_def.c: 392:         }
  3712  16AD  2EBC               	goto	l5258
  3713  16AE                     l5254:
  3714                           
  3715                           ;digital_alarm_clock_def.c: 394:         {;digital_alarm_clock_def.c: 395:             n
      +                          ew_time[4] = ' ';
  3716  16AE  3020               	movlw	32
  3717  16AF  00D7               	movwf	??_set_time
  3718  16B0  0857               	movf	??_set_time,w
  3719  16B1  1683               	bsf	3,5	;RP0=1, select bank1
  3720  16B2  1303               	bcf	3,6	;RP1=0, select bank1
  3721  16B3  00B6               	movwf	(set_time@new_time^(0+128)+4)
  3722                           
  3723                           ;digital_alarm_clock_def.c: 396:             new_time[5] = ' ';
  3724  16B4  3020               	movlw	32
  3725  16B5  1283               	bcf	3,5	;RP0=0, select bank0
  3726  16B6  1303               	bcf	3,6	;RP1=0, select bank0
  3727  16B7  00D7               	movwf	??_set_time
  3728  16B8  0857               	movf	??_set_time,w
  3729  16B9  1683               	bsf	3,5	;RP0=1, select bank1
  3730  16BA  1303               	bcf	3,6	;RP1=0, select bank1
  3731  16BB  00B7               	movwf	(set_time@new_time^(0+128)+5)
  3732  16BC                     l5258:
  3733                           
  3734                           ;digital_alarm_clock_def.c: 404:     if(minute_flag)
  3735  16BC  1283               	bcf	3,5	;RP0=0, select bank0
  3736  16BD  1303               	bcf	3,6	;RP1=0, select bank0
  3737  16BE  0831               	movf	set_time@minute_flag,w
  3738  16BF  1903               	btfsc	3,2
  3739  16C0  2EC2               	goto	u5521
  3740  16C1  2EC3               	goto	u5520
  3741  16C2                     u5521:
  3742  16C2  2EC8               	goto	l5262
  3743  16C3                     u5520:
  3744  16C3                     l5260:
  3745                           
  3746                           ;digital_alarm_clock_def.c: 405:     {;digital_alarm_clock_def.c: 406:         if(flag)
  3747  16C3  082F               	movf	set_time@flag,w
  3748  16C4  1903               	btfsc	3,2
  3749  16C5  2EC7               	goto	u5531
  3750  16C6  2EC8               	goto	u5530
  3751  16C7                     u5531:
  3752  16C7  2F0C               	goto	l5264
  3753  16C8                     u5530:
  3754  16C8                     l5262:
  3755                           
  3756                           ;digital_alarm_clock_def.c: 407:         {;digital_alarm_clock_def.c: 408:             n
      +                          ew_time[2] = (minute / 10) % 10 + '0';
  3757  16C8  300A               	movlw	10
  3758  16C9  00D0               	movwf	___awmod@divisor
  3759  16CA  3000               	movlw	0
  3760  16CB  00D1               	movwf	___awmod@divisor+1
  3761  16CC  300A               	movlw	10
  3762  16CD  00C8               	movwf	___awdiv@divisor
  3763  16CE  3000               	movlw	0
  3764  16CF  00C9               	movwf	___awdiv@divisor+1
  3765  16D0  083B               	movf	_minute,w
  3766  16D1  00D7               	movwf	??_set_time
  3767  16D2  01D8               	clrf	??_set_time+1
  3768  16D3  0857               	movf	??_set_time,w
  3769  16D4  00CA               	movwf	___awdiv@dividend
  3770  16D5  0858               	movf	??_set_time+1,w
  3771  16D6  00CB               	movwf	___awdiv@dividend+1
  3772  16D7  160A  158A  2797  160A  118A  	fcall	___awdiv
  3773  16DC  1283               	bcf	3,5	;RP0=0, select bank0
  3774  16DD  1303               	bcf	3,6	;RP1=0, select bank0
  3775  16DE  0849               	movf	?___awdiv+1,w
  3776  16DF  00D3               	movwf	___awmod@dividend+1
  3777  16E0  0848               	movf	?___awdiv,w
  3778  16E1  00D2               	movwf	___awmod@dividend
  3779  16E2  160A  158A  2670  160A  118A  	fcall	___awmod
  3780  16E7  1283               	bcf	3,5	;RP0=0, select bank0
  3781  16E8  1303               	bcf	3,6	;RP1=0, select bank0
  3782  16E9  0850               	movf	?___awmod,w
  3783  16EA  3E30               	addlw	48
  3784  16EB  00D9               	movwf	??_set_time+2
  3785  16EC  0859               	movf	??_set_time+2,w
  3786  16ED  1683               	bsf	3,5	;RP0=1, select bank1
  3787  16EE  1303               	bcf	3,6	;RP1=0, select bank1
  3788  16EF  00B4               	movwf	(set_time@new_time^(0+128)+2)
  3789                           
  3790                           ;digital_alarm_clock_def.c: 409:             new_time[3] = (minute / 1) % 10 + '0';
  3791  16F0  300A               	movlw	10
  3792  16F1  1283               	bcf	3,5	;RP0=0, select bank0
  3793  16F2  1303               	bcf	3,6	;RP1=0, select bank0
  3794  16F3  00D0               	movwf	___awmod@divisor
  3795  16F4  3000               	movlw	0
  3796  16F5  00D1               	movwf	___awmod@divisor+1
  3797  16F6  083B               	movf	_minute,w
  3798  16F7  00D7               	movwf	??_set_time
  3799  16F8  01D8               	clrf	??_set_time+1
  3800  16F9  0857               	movf	??_set_time,w
  3801  16FA  00D2               	movwf	___awmod@dividend
  3802  16FB  0858               	movf	??_set_time+1,w
  3803  16FC  00D3               	movwf	___awmod@dividend+1
  3804  16FD  160A  158A  2670  160A  118A  	fcall	___awmod
  3805  1702  1283               	bcf	3,5	;RP0=0, select bank0
  3806  1703  1303               	bcf	3,6	;RP1=0, select bank0
  3807  1704  0850               	movf	?___awmod,w
  3808  1705  3E30               	addlw	48
  3809  1706  00D9               	movwf	??_set_time+2
  3810  1707  0859               	movf	??_set_time+2,w
  3811  1708  1683               	bsf	3,5	;RP0=1, select bank1
  3812  1709  1303               	bcf	3,6	;RP1=0, select bank1
  3813  170A  00B5               	movwf	(set_time@new_time^(0+128)+3)
  3814                           
  3815                           ;digital_alarm_clock_def.c: 410:         }
  3816  170B  2F1A               	goto	l5268
  3817  170C                     l5264:
  3818                           
  3819                           ;digital_alarm_clock_def.c: 412:         {;digital_alarm_clock_def.c: 413:             n
      +                          ew_time[2] = ' ';
  3820  170C  3020               	movlw	32
  3821  170D  00D7               	movwf	??_set_time
  3822  170E  0857               	movf	??_set_time,w
  3823  170F  1683               	bsf	3,5	;RP0=1, select bank1
  3824  1710  1303               	bcf	3,6	;RP1=0, select bank1
  3825  1711  00B4               	movwf	(set_time@new_time^(0+128)+2)
  3826                           
  3827                           ;digital_alarm_clock_def.c: 414:             new_time[3] = ' ';
  3828  1712  3020               	movlw	32
  3829  1713  1283               	bcf	3,5	;RP0=0, select bank0
  3830  1714  1303               	bcf	3,6	;RP1=0, select bank0
  3831  1715  00D7               	movwf	??_set_time
  3832  1716  0857               	movf	??_set_time,w
  3833  1717  1683               	bsf	3,5	;RP0=1, select bank1
  3834  1718  1303               	bcf	3,6	;RP1=0, select bank1
  3835  1719  00B5               	movwf	(set_time@new_time^(0+128)+3)
  3836  171A                     l5268:
  3837                           
  3838                           ;digital_alarm_clock_def.c: 423:     if(hour_flag)
  3839  171A  1283               	bcf	3,5	;RP0=0, select bank0
  3840  171B  1303               	bcf	3,6	;RP1=0, select bank0
  3841  171C  0830               	movf	set_time@hour_flag,w
  3842  171D  1903               	btfsc	3,2
  3843  171E  2F20               	goto	u5541
  3844  171F  2F21               	goto	u5540
  3845  1720                     u5541:
  3846  1720  2F26               	goto	l5272
  3847  1721                     u5540:
  3848  1721                     l5270:
  3849                           
  3850                           ;digital_alarm_clock_def.c: 424:     {;digital_alarm_clock_def.c: 425:         if(flag)
  3851  1721  082F               	movf	set_time@flag,w
  3852  1722  1903               	btfsc	3,2
  3853  1723  2F25               	goto	u5551
  3854  1724  2F26               	goto	u5550
  3855  1725                     u5551:
  3856  1725  2F6A               	goto	l5274
  3857  1726                     u5550:
  3858  1726                     l5272:
  3859                           
  3860                           ;digital_alarm_clock_def.c: 426:         {;digital_alarm_clock_def.c: 427:             n
      +                          ew_time[0] = (hour / 10) % 10 + '0';
  3861  1726  300A               	movlw	10
  3862  1727  00D0               	movwf	___awmod@divisor
  3863  1728  3000               	movlw	0
  3864  1729  00D1               	movwf	___awmod@divisor+1
  3865  172A  300A               	movlw	10
  3866  172B  00C8               	movwf	___awdiv@divisor
  3867  172C  3000               	movlw	0
  3868  172D  00C9               	movwf	___awdiv@divisor+1
  3869  172E  083A               	movf	_hour,w
  3870  172F  00D7               	movwf	??_set_time
  3871  1730  01D8               	clrf	??_set_time+1
  3872  1731  0857               	movf	??_set_time,w
  3873  1732  00CA               	movwf	___awdiv@dividend
  3874  1733  0858               	movf	??_set_time+1,w
  3875  1734  00CB               	movwf	___awdiv@dividend+1
  3876  1735  160A  158A  2797  160A  118A  	fcall	___awdiv
  3877  173A  1283               	bcf	3,5	;RP0=0, select bank0
  3878  173B  1303               	bcf	3,6	;RP1=0, select bank0
  3879  173C  0849               	movf	?___awdiv+1,w
  3880  173D  00D3               	movwf	___awmod@dividend+1
  3881  173E  0848               	movf	?___awdiv,w
  3882  173F  00D2               	movwf	___awmod@dividend
  3883  1740  160A  158A  2670  160A  118A  	fcall	___awmod
  3884  1745  1283               	bcf	3,5	;RP0=0, select bank0
  3885  1746  1303               	bcf	3,6	;RP1=0, select bank0
  3886  1747  0850               	movf	?___awmod,w
  3887  1748  3E30               	addlw	48
  3888  1749  00D9               	movwf	??_set_time+2
  3889  174A  0859               	movf	??_set_time+2,w
  3890  174B  1683               	bsf	3,5	;RP0=1, select bank1
  3891  174C  1303               	bcf	3,6	;RP1=0, select bank1
  3892  174D  00B2               	movwf	set_time@new_time^(0+128)
  3893                           
  3894                           ;digital_alarm_clock_def.c: 428:             new_time[1] = (hour / 1) % 10 + '0';
  3895  174E  300A               	movlw	10
  3896  174F  1283               	bcf	3,5	;RP0=0, select bank0
  3897  1750  1303               	bcf	3,6	;RP1=0, select bank0
  3898  1751  00D0               	movwf	___awmod@divisor
  3899  1752  3000               	movlw	0
  3900  1753  00D1               	movwf	___awmod@divisor+1
  3901  1754  083A               	movf	_hour,w
  3902  1755  00D7               	movwf	??_set_time
  3903  1756  01D8               	clrf	??_set_time+1
  3904  1757  0857               	movf	??_set_time,w
  3905  1758  00D2               	movwf	___awmod@dividend
  3906  1759  0858               	movf	??_set_time+1,w
  3907  175A  00D3               	movwf	___awmod@dividend+1
  3908  175B  160A  158A  2670  160A  118A  	fcall	___awmod
  3909  1760  1283               	bcf	3,5	;RP0=0, select bank0
  3910  1761  1303               	bcf	3,6	;RP1=0, select bank0
  3911  1762  0850               	movf	?___awmod,w
  3912  1763  3E30               	addlw	48
  3913  1764  00D9               	movwf	??_set_time+2
  3914  1765  0859               	movf	??_set_time+2,w
  3915  1766  1683               	bsf	3,5	;RP0=1, select bank1
  3916  1767  1303               	bcf	3,6	;RP1=0, select bank1
  3917  1768  00B3               	movwf	(set_time@new_time^(0+128)+1)
  3918                           
  3919                           ;digital_alarm_clock_def.c: 429:         }
  3920  1769  2F78               	goto	l484
  3921  176A                     l5274:
  3922                           
  3923                           ;digital_alarm_clock_def.c: 431:         {;digital_alarm_clock_def.c: 432:             n
      +                          ew_time[0] = ' ';
  3924  176A  3020               	movlw	32
  3925  176B  00D7               	movwf	??_set_time
  3926  176C  0857               	movf	??_set_time,w
  3927  176D  1683               	bsf	3,5	;RP0=1, select bank1
  3928  176E  1303               	bcf	3,6	;RP1=0, select bank1
  3929  176F  00B2               	movwf	set_time@new_time^(0+128)
  3930                           
  3931                           ;digital_alarm_clock_def.c: 433:             new_time[1] = ' ';
  3932  1770  3020               	movlw	32
  3933  1771  1283               	bcf	3,5	;RP0=0, select bank0
  3934  1772  1303               	bcf	3,6	;RP1=0, select bank0
  3935  1773  00D7               	movwf	??_set_time
  3936  1774  0857               	movf	??_set_time,w
  3937  1775  1683               	bsf	3,5	;RP0=1, select bank1
  3938  1776  1303               	bcf	3,6	;RP1=0, select bank1
  3939  1777  00B3               	movwf	(set_time@new_time^(0+128)+1)
  3940  1778                     l484:	
  3941                           ;digital_alarm_clock_def.c: 440:     }
  3942                           
  3943                           
  3944                           ;digital_alarm_clock_def.c: 443:     clcd_putch(new_time[0], (0xC0 + 4));
  3945  1778  30C4               	movlw	196
  3946  1779  1283               	bcf	3,5	;RP0=0, select bank0
  3947  177A  1303               	bcf	3,6	;RP1=0, select bank0
  3948  177B  00D7               	movwf	??_set_time
  3949  177C  0857               	movf	??_set_time,w
  3950  177D  00CC               	movwf	clcd_putch@addr
  3951  177E  1683               	bsf	3,5	;RP0=1, select bank1
  3952  177F  1303               	bcf	3,6	;RP1=0, select bank1
  3953  1780  0832               	movf	set_time@new_time^(0+128),w
  3954  1781  120A  118A  27EA  160A  118A  	fcall	_clcd_putch
  3955                           
  3956                           ;digital_alarm_clock_def.c: 444:     clcd_putch(new_time[1], (0xC0 + 5));
  3957  1786  30C5               	movlw	197
  3958  1787  1283               	bcf	3,5	;RP0=0, select bank0
  3959  1788  1303               	bcf	3,6	;RP1=0, select bank0
  3960  1789  00D7               	movwf	??_set_time
  3961  178A  0857               	movf	??_set_time,w
  3962  178B  00CC               	movwf	clcd_putch@addr
  3963  178C  1683               	bsf	3,5	;RP0=1, select bank1
  3964  178D  1303               	bcf	3,6	;RP1=0, select bank1
  3965  178E  0833               	movf	(set_time@new_time^(0+128)+1),w
  3966  178F  120A  118A  27EA  160A  118A  	fcall	_clcd_putch
  3967                           
  3968                           ;digital_alarm_clock_def.c: 445:     clcd_putch(':', (0xC0 + 6));
  3969  1794  30C6               	movlw	198
  3970  1795  1283               	bcf	3,5	;RP0=0, select bank0
  3971  1796  1303               	bcf	3,6	;RP1=0, select bank0
  3972  1797  00D7               	movwf	??_set_time
  3973  1798  0857               	movf	??_set_time,w
  3974  1799  00CC               	movwf	clcd_putch@addr
  3975  179A  303A               	movlw	58
  3976  179B  120A  118A  27EA  160A  118A  	fcall	_clcd_putch
  3977                           
  3978                           ;digital_alarm_clock_def.c: 446:     clcd_putch(new_time[2], (0xC0 + 7));
  3979  17A0  30C7               	movlw	199
  3980  17A1  1283               	bcf	3,5	;RP0=0, select bank0
  3981  17A2  1303               	bcf	3,6	;RP1=0, select bank0
  3982  17A3  00D7               	movwf	??_set_time
  3983  17A4  0857               	movf	??_set_time,w
  3984  17A5  00CC               	movwf	clcd_putch@addr
  3985  17A6  1683               	bsf	3,5	;RP0=1, select bank1
  3986  17A7  1303               	bcf	3,6	;RP1=0, select bank1
  3987  17A8  0834               	movf	(set_time@new_time^(0+128)+2),w
  3988  17A9  120A  118A  27EA  160A  118A  	fcall	_clcd_putch
  3989                           
  3990                           ;digital_alarm_clock_def.c: 447:     clcd_putch(new_time[3], (0xC0 + 8));
  3991  17AE  30C8               	movlw	200
  3992  17AF  1283               	bcf	3,5	;RP0=0, select bank0
  3993  17B0  1303               	bcf	3,6	;RP1=0, select bank0
  3994  17B1  00D7               	movwf	??_set_time
  3995  17B2  0857               	movf	??_set_time,w
  3996  17B3  00CC               	movwf	clcd_putch@addr
  3997  17B4  1683               	bsf	3,5	;RP0=1, select bank1
  3998  17B5  1303               	bcf	3,6	;RP1=0, select bank1
  3999  17B6  0835               	movf	(set_time@new_time^(0+128)+3),w
  4000  17B7  120A  118A  27EA  160A  118A  	fcall	_clcd_putch
  4001                           
  4002                           ;digital_alarm_clock_def.c: 448:     clcd_putch(':', (0xC0 + 9));
  4003  17BC  30C9               	movlw	201
  4004  17BD  1283               	bcf	3,5	;RP0=0, select bank0
  4005  17BE  1303               	bcf	3,6	;RP1=0, select bank0
  4006  17BF  00D7               	movwf	??_set_time
  4007  17C0  0857               	movf	??_set_time,w
  4008  17C1  00CC               	movwf	clcd_putch@addr
  4009  17C2  303A               	movlw	58
  4010  17C3  120A  118A  27EA  160A  118A  	fcall	_clcd_putch
  4011                           
  4012                           ;digital_alarm_clock_def.c: 449:     clcd_putch(new_time[4], (0xC0 + 10));
  4013  17C8  30CA               	movlw	202
  4014  17C9  1283               	bcf	3,5	;RP0=0, select bank0
  4015  17CA  1303               	bcf	3,6	;RP1=0, select bank0
  4016  17CB  00D7               	movwf	??_set_time
  4017  17CC  0857               	movf	??_set_time,w
  4018  17CD  00CC               	movwf	clcd_putch@addr
  4019  17CE  1683               	bsf	3,5	;RP0=1, select bank1
  4020  17CF  1303               	bcf	3,6	;RP1=0, select bank1
  4021  17D0  0836               	movf	(set_time@new_time^(0+128)+4),w
  4022  17D1  120A  118A  27EA  160A  118A  	fcall	_clcd_putch
  4023                           
  4024                           ;digital_alarm_clock_def.c: 450:     clcd_putch(new_time[5], (0xC0 + 11));
  4025  17D6  30CB               	movlw	203
  4026  17D7  1283               	bcf	3,5	;RP0=0, select bank0
  4027  17D8  1303               	bcf	3,6	;RP1=0, select bank0
  4028  17D9  00D7               	movwf	??_set_time
  4029  17DA  0857               	movf	??_set_time,w
  4030  17DB  00CC               	movwf	clcd_putch@addr
  4031  17DC  1683               	bsf	3,5	;RP0=1, select bank1
  4032  17DD  1303               	bcf	3,6	;RP1=0, select bank1
  4033  17DE  0837               	movf	(set_time@new_time^(0+128)+5),w
  4034  17DF  120A  118A  27EA  160A  118A  	fcall	_clcd_putch
  4035  17E4                     l5278:
  4036                           
  4037                           ;digital_alarm_clock_def.c: 453:     if(delay++ == 8)
  4038  17E4  3001               	movlw	1
  4039  17E5  1283               	bcf	3,5	;RP0=0, select bank0
  4040  17E6  1303               	bcf	3,6	;RP1=0, select bank0
  4041  17E7  00D7               	movwf	??_set_time
  4042  17E8  0857               	movf	??_set_time,w
  4043  17E9  1683               	bsf	3,5	;RP0=1, select bank1
  4044  17EA  1303               	bcf	3,6	;RP1=0, select bank1
  4045  17EB  07C2               	addwf	set_time@delay^(0+128),f
  4046  17EC  3009               	movlw	9
  4047  17ED  0642               	xorwf	set_time@delay^(0+128),w
  4048  17EE  1D03               	btfss	3,2
  4049  17EF  2FF1               	goto	u5561
  4050  17F0  2FF2               	goto	u5560
  4051  17F1                     u5561:
  4052  17F1  2FFF               	goto	l486
  4053  17F2                     u5560:
  4054  17F2                     l5280:
  4055                           
  4056                           ;digital_alarm_clock_def.c: 454:     {;digital_alarm_clock_def.c: 455:         delay = 0
      +                          ;
  4057  17F2  01C2               	clrf	set_time@delay^(0+128)
  4058  17F3                     l5282:
  4059                           
  4060                           ;digital_alarm_clock_def.c: 456:         flag = !flag;
  4061  17F3  1283               	bcf	3,5	;RP0=0, select bank0
  4062  17F4  1303               	bcf	3,6	;RP1=0, select bank0
  4063  17F5  082F               	movf	set_time@flag,w
  4064  17F6  1903               	btfsc	3,2
  4065  17F7  2FF9               	goto	u5571
  4066  17F8  2FFB               	goto	u5570
  4067  17F9                     u5571:
  4068  17F9  3001               	movlw	1
  4069  17FA  2FFC               	goto	u5580
  4070  17FB                     u5570:
  4071  17FB  3000               	movlw	0
  4072  17FC                     u5580:
  4073  17FC  00D7               	movwf	??_set_time
  4074  17FD  0857               	movf	??_set_time,w
  4075  17FE  00AF               	movwf	set_time@flag
  4076  17FF                     l486:
  4077  17FF  0008               	return
  4078  1800                     __end_of_set_time:
  4079                           
  4080                           	psect	text2
  4081  0039                     __ptext2:	
  4082 ;; *************** function _set_event *****************
  4083 ;; Defined at:
  4084 ;;		line 626 in file "digital_alarm_clock_def.c"
  4085 ;; Parameters:    Size  Location     Type
  4086 ;;  reset_flag      1    wreg     unsigned char 
  4087 ;;  key             1   14[BANK0 ] unsigned char 
  4088 ;; Auto vars:     Size  Location     Type
  4089 ;;  reset_flag      1   18[BANK0 ] unsigned char 
  4090 ;; Return value:  Size  Location     Type
  4091 ;;                  1    wreg      void 
  4092 ;; Registers used:
  4093 ;;		wreg, fsr0l, fsr0h, status,2, status,0, btemp+1, pclath, cstack
  4094 ;; Tracked objects:
  4095 ;;		On entry : 0/0
  4096 ;;		On exit  : 0/0
  4097 ;;		Unchanged: 0/0
  4098 ;; Data sizes:     COMMON   BANK0   BANK1   BANK3   BANK2
  4099 ;;      Params:         0       1       0       0       0
  4100 ;;      Locals:         0       1       0       0       0
  4101 ;;      Temps:          0       3       0       0       0
  4102 ;;      Totals:         0       5       0       0       0
  4103 ;;Total ram usage:        5 bytes
  4104 ;; Hardware stack levels used: 1
  4105 ;; Hardware stack levels required when called: 6
  4106 ;; This function calls:
  4107 ;;		___awdiv
  4108 ;;		___awmod
  4109 ;;		___bmul
  4110 ;;		_clcd_print
  4111 ;;		_clcd_putch
  4112 ;;		_clear_screen
  4113 ;;		_get_time
  4114 ;; This function is called by:
  4115 ;;		_main
  4116 ;; This function uses a non-reentrant model
  4117 ;;
  4118                           
  4119                           
  4120                           ;psect for function _set_event
  4121  0039                     _set_event:
  4122                           
  4123                           ;incstack = 0
  4124                           ; Regs used in _set_event: [wreg-fsr0h+status,2+status,0+btemp+1+pclath+cstack]
  4125                           ;set_event@reset_flag stored from wreg
  4126  0039  1283               	bcf	3,5	;RP0=0, select bank0
  4127  003A  1303               	bcf	3,6	;RP1=0, select bank0
  4128  003B  00DA               	movwf	set_event@reset_flag
  4129  003C                     l5420:
  4130                           
  4131                           ;digital_alarm_clock_def.c: 626: void set_event(unsigned char reset_flag, unsigned char 
      +                          key);digital_alarm_clock_def.c: 627: {;digital_alarm_clock_def.c: 628:     static unsign
      +                          ed char am_pm_flag, minute_flag, hour_flag, delay, flag;;digital_alarm_clock_def.c: 629:
      +                               static unsigned char duration_flag, times_flag, i, duration;;digital_alarm_clock_de
      +                          f.c: 631:     if(reset_flag == 0x13)
  4132  003C  3013               	movlw	19
  4133  003D  065A               	xorwf	set_event@reset_flag,w
  4134  003E  1D03               	btfss	3,2
  4135  003F  2841               	goto	u5831
  4136  0040  2842               	goto	u5830
  4137  0041                     u5831:
  4138  0041  2928               	goto	l5478
  4139  0042                     u5830:
  4140  0042                     l5422:
  4141                           
  4142                           ;digital_alarm_clock_def.c: 632:     {;digital_alarm_clock_def.c: 633:         key = 0x3
      +                          F;
  4143  0042  303F               	movlw	63
  4144  0043  00D7               	movwf	??_set_event
  4145  0044  0857               	movf	??_set_event,w
  4146  0045  00D6               	movwf	set_event@key
  4147  0046                     l5424:
  4148                           
  4149                           ;digital_alarm_clock_def.c: 634:         am_pm_flag = 0;
  4150  0046  01AA               	clrf	set_event@am_pm_flag
  4151  0047                     l5426:
  4152                           
  4153                           ;digital_alarm_clock_def.c: 635:         minute_flag = 0;
  4154  0047  01A9               	clrf	set_event@minute_flag
  4155  0048                     l5428:
  4156                           
  4157                           ;digital_alarm_clock_def.c: 636:         hour_flag = 1;
  4158  0048  01A8               	clrf	set_event@hour_flag
  4159  0049  0AA8               	incf	set_event@hour_flag,f
  4160  004A                     l5430:
  4161                           
  4162                           ;digital_alarm_clock_def.c: 637:         duration_flag = 0;
  4163  004A  01A6               	clrf	set_event@duration_flag
  4164  004B                     l5432:
  4165                           
  4166                           ;digital_alarm_clock_def.c: 638:         times_flag = 0;
  4167  004B  01A5               	clrf	set_event@times_flag
  4168  004C                     l5434:
  4169                           
  4170                           ;digital_alarm_clock_def.c: 639:         delay = 0;
  4171  004C  1683               	bsf	3,5	;RP0=1, select bank1
  4172  004D  1303               	bcf	3,6	;RP1=0, select bank1
  4173  004E  01C0               	clrf	set_event@delay^(0+128)
  4174  004F                     l5436:
  4175                           
  4176                           ;digital_alarm_clock_def.c: 640:         clear_screen();
  4177  004F  160A  158A  2379  120A  118A  	fcall	_clear_screen
  4178  0054                     l5438:
  4179                           
  4180                           ;digital_alarm_clock_def.c: 641:         clcd_print("TIME- ", (0x80 + 0));
  4181  0054  3083               	movlw	(low ((STR_15-__stringbase)| (0+32768)))& (0+255)
  4182  0055  1283               	bcf	3,5	;RP0=0, select bank0
  4183  0056  1303               	bcf	3,6	;RP1=0, select bank0
  4184  0057  00CA               	movwf	clcd_print@str
  4185  0058  3080               	movlw	128
  4186  0059  00CB               	movwf	clcd_print@str+1
  4187  005A  3080               	movlw	128
  4188  005B  00D7               	movwf	??_set_event
  4189  005C  0857               	movf	??_set_event,w
  4190  005D  00CC               	movwf	clcd_print@addr
  4191  005E  160A  158A  24DE  120A  118A  	fcall	_clcd_print
  4192  0063                     l5440:
  4193                           
  4194                           ;digital_alarm_clock_def.c: 642:         clcd_print("DUR - ", (0xC0 + 0));
  4195  0063  3075               	movlw	(low ((STR_16-__stringbase)| (0+32768)))& (0+255)
  4196  0064  1283               	bcf	3,5	;RP0=0, select bank0
  4197  0065  1303               	bcf	3,6	;RP1=0, select bank0
  4198  0066  00CA               	movwf	clcd_print@str
  4199  0067  3080               	movlw	128
  4200  0068  00CB               	movwf	clcd_print@str+1
  4201  0069  30C0               	movlw	192
  4202  006A  00D7               	movwf	??_set_event
  4203  006B  0857               	movf	??_set_event,w
  4204  006C  00CC               	movwf	clcd_print@addr
  4205  006D  160A  158A  24DE  120A  118A  	fcall	_clcd_print
  4206  0072                     l5442:
  4207                           
  4208                           ;digital_alarm_clock_def.c: 643:         get_time();
  4209  0072  160A  158A  23F4  120A  118A  	fcall	_get_time
  4210  0077                     l5444:
  4211                           
  4212                           ;digital_alarm_clock_def.c: 647:         time[0] = ((clock_reg[0] >> 4) & 0x03) + '0';
  4213  0077  1283               	bcf	3,5	;RP0=0, select bank0
  4214  0078  1303               	bcf	3,6	;RP1=0, select bank0
  4215  0079  0820               	movf	_clock_reg,w
  4216  007A  00D7               	movwf	??_set_event
  4217  007B  3004               	movlw	4
  4218  007C                     u5845:
  4219  007C  1003               	clrc
  4220  007D  0CD7               	rrf	??_set_event,f
  4221  007E  3EFF               	addlw	-1
  4222  007F  1D03               	skipz
  4223  0080  287C               	goto	u5845
  4224  0081  0857               	movf	??_set_event,w
  4225  0082  3903               	andlw	3
  4226  0083  3E30               	addlw	48
  4227  0084  00D8               	movwf	??_set_event+1
  4228  0085  0858               	movf	??_set_event+1,w
  4229  0086  00BF               	movwf	_time
  4230  0087                     l5446:
  4231                           
  4232                           ;digital_alarm_clock_def.c: 648:         time[1] = (clock_reg[0] & 0x0F) + '0';
  4233  0087  0820               	movf	_clock_reg,w
  4234  0088  390F               	andlw	15
  4235  0089  3E30               	addlw	48
  4236  008A  00D7               	movwf	??_set_event
  4237  008B  0857               	movf	??_set_event,w
  4238  008C  00C0               	movwf	_time+1
  4239  008D                     l5448:
  4240                           
  4241                           ;digital_alarm_clock_def.c: 650:         hour = (time[0]-'0')*10+(time[1]-'0');
  4242  008D  300A               	movlw	10
  4243  008E  00D7               	movwf	??_set_event
  4244  008F  0857               	movf	??_set_event,w
  4245  0090  00CC               	movwf	___bmul@multiplicand
  4246  0091  083F               	movf	_time,w
  4247  0092  160A  118A  20A3  120A  118A  	fcall	___bmul
  4248  0097  1283               	bcf	3,5	;RP0=0, select bank0
  4249  0098  1303               	bcf	3,6	;RP1=0, select bank0
  4250  0099  0740               	addwf	_time+1,w
  4251  009A  3EF0               	addlw	240
  4252  009B  00D8               	movwf	??_set_event+1
  4253  009C  0858               	movf	??_set_event+1,w
  4254  009D  00BA               	movwf	_hour
  4255  009E                     l5450:
  4256                           
  4257                           ;digital_alarm_clock_def.c: 651:         if(hour > 12)
  4258  009E  300D               	movlw	13
  4259  009F  023A               	subwf	_hour,w
  4260  00A0  1C03               	skipc
  4261  00A1  28A3               	goto	u5851
  4262  00A2  28A4               	goto	u5850
  4263  00A3                     u5851:
  4264  00A3  28DA               	goto	l5460
  4265  00A4                     u5850:
  4266  00A4                     l5452:
  4267                           
  4268                           ;digital_alarm_clock_def.c: 652:         {;digital_alarm_clock_def.c: 653:             h
      +                          our = hour - 12;
  4269  00A4  083A               	movf	_hour,w
  4270  00A5  3EF4               	addlw	244
  4271  00A6  00D7               	movwf	??_set_event
  4272  00A7  0857               	movf	??_set_event,w
  4273  00A8  00BA               	movwf	_hour
  4274  00A9                     l5454:
  4275                           
  4276                           ;digital_alarm_clock_def.c: 654:             time[0] = hour/10 + '0';
  4277  00A9  300A               	movlw	10
  4278  00AA  00C8               	movwf	___awdiv@divisor
  4279  00AB  3000               	movlw	0
  4280  00AC  00C9               	movwf	___awdiv@divisor+1
  4281  00AD  083A               	movf	_hour,w
  4282  00AE  00D7               	movwf	??_set_event
  4283  00AF  01D8               	clrf	??_set_event+1
  4284  00B0  0857               	movf	??_set_event,w
  4285  00B1  00CA               	movwf	___awdiv@dividend
  4286  00B2  0858               	movf	??_set_event+1,w
  4287  00B3  00CB               	movwf	___awdiv@dividend+1
  4288  00B4  160A  158A  2797  120A  118A  	fcall	___awdiv
  4289  00B9  1283               	bcf	3,5	;RP0=0, select bank0
  4290  00BA  1303               	bcf	3,6	;RP1=0, select bank0
  4291  00BB  0848               	movf	?___awdiv,w
  4292  00BC  3E30               	addlw	48
  4293  00BD  00D9               	movwf	??_set_event+2
  4294  00BE  0859               	movf	??_set_event+2,w
  4295  00BF  00BF               	movwf	_time
  4296  00C0                     l5456:
  4297                           
  4298                           ;digital_alarm_clock_def.c: 655:             time[1] = hour%10 + '0';
  4299  00C0  300A               	movlw	10
  4300  00C1  00D0               	movwf	___awmod@divisor
  4301  00C2  3000               	movlw	0
  4302  00C3  00D1               	movwf	___awmod@divisor+1
  4303  00C4  083A               	movf	_hour,w
  4304  00C5  00D7               	movwf	??_set_event
  4305  00C6  01D8               	clrf	??_set_event+1
  4306  00C7  0857               	movf	??_set_event,w
  4307  00C8  00D2               	movwf	___awmod@dividend
  4308  00C9  0858               	movf	??_set_event+1,w
  4309  00CA  00D3               	movwf	___awmod@dividend+1
  4310  00CB  160A  158A  2670  120A  118A  	fcall	___awmod
  4311  00D0  1283               	bcf	3,5	;RP0=0, select bank0
  4312  00D1  1303               	bcf	3,6	;RP1=0, select bank0
  4313  00D2  0850               	movf	?___awmod,w
  4314  00D3  3E30               	addlw	48
  4315  00D4  00D9               	movwf	??_set_event+2
  4316  00D5  0859               	movf	??_set_event+2,w
  4317  00D6  00C0               	movwf	_time+1
  4318  00D7                     l5458:
  4319                           
  4320                           ;digital_alarm_clock_def.c: 656:             PM = 1;
  4321  00D7  01F8               	clrf	_PM
  4322  00D8  0AF8               	incf	_PM,f
  4323                           
  4324                           ;digital_alarm_clock_def.c: 657:         }
  4325  00D9  28DB               	goto	l5462
  4326  00DA                     l5460:
  4327                           
  4328                           ;digital_alarm_clock_def.c: 659:         {;digital_alarm_clock_def.c: 660:             P
      +                          M = 0;
  4329  00DA  01F8               	clrf	_PM
  4330  00DB                     l5462:
  4331                           
  4332                           ;digital_alarm_clock_def.c: 664:         time[2] = ((clock_reg[1] >> 4) & 0x07) + '0';
  4333  00DB  0821               	movf	_clock_reg+1,w
  4334  00DC  00D7               	movwf	??_set_event
  4335  00DD  3004               	movlw	4
  4336  00DE                     u5865:
  4337  00DE  1003               	clrc
  4338  00DF  0CD7               	rrf	??_set_event,f
  4339  00E0  3EFF               	addlw	-1
  4340  00E1  1D03               	skipz
  4341  00E2  28DE               	goto	u5865
  4342  00E3  0857               	movf	??_set_event,w
  4343  00E4  3907               	andlw	7
  4344  00E5  3E30               	addlw	48
  4345  00E6  00D8               	movwf	??_set_event+1
  4346  00E7  0858               	movf	??_set_event+1,w
  4347  00E8  00C1               	movwf	_time+2
  4348  00E9                     l5464:
  4349                           
  4350                           ;digital_alarm_clock_def.c: 665:         time[3] = (clock_reg[1] & 0x0F) + '0';
  4351  00E9  0821               	movf	_clock_reg+1,w
  4352  00EA  390F               	andlw	15
  4353  00EB  3E30               	addlw	48
  4354  00EC  00D7               	movwf	??_set_event
  4355  00ED  0857               	movf	??_set_event,w
  4356  00EE  00C2               	movwf	_time+3
  4357  00EF                     l5466:
  4358                           
  4359                           ;digital_alarm_clock_def.c: 668:         if(PM)
  4360  00EF  0878               	movf	_PM,w
  4361  00F0  1903               	btfsc	3,2
  4362  00F1  28F3               	goto	u5871
  4363  00F2  28F4               	goto	u5870
  4364  00F3                     u5871:
  4365  00F3  28FD               	goto	l5470
  4366  00F4                     u5870:
  4367  00F4                     l5468:
  4368                           
  4369                           ;digital_alarm_clock_def.c: 669:         {;digital_alarm_clock_def.c: 670:             t
      +                          ime[4] = 'P';
  4370  00F4  3050               	movlw	80
  4371  00F5  00D7               	movwf	??_set_event
  4372  00F6  0857               	movf	??_set_event,w
  4373  00F7  00C3               	movwf	_time+4
  4374                           
  4375                           ;digital_alarm_clock_def.c: 671:             time[5] = 'M';
  4376  00F8  304D               	movlw	77
  4377  00F9  00D7               	movwf	??_set_event
  4378  00FA  0857               	movf	??_set_event,w
  4379  00FB  00C4               	movwf	_time+5
  4380                           
  4381                           ;digital_alarm_clock_def.c: 672:         }
  4382  00FC  2905               	goto	l5472
  4383  00FD                     l5470:
  4384                           
  4385                           ;digital_alarm_clock_def.c: 674:         {;digital_alarm_clock_def.c: 675:             t
      +                          ime[4] = 'A';
  4386  00FD  3041               	movlw	65
  4387  00FE  00D7               	movwf	??_set_event
  4388  00FF  0857               	movf	??_set_event,w
  4389  0100  00C3               	movwf	_time+4
  4390                           
  4391                           ;digital_alarm_clock_def.c: 676:             time[5] = 'M';
  4392  0101  304D               	movlw	77
  4393  0102  00D7               	movwf	??_set_event
  4394  0103  0857               	movf	??_set_event,w
  4395  0104  00C4               	movwf	_time+5
  4396  0105                     l5472:
  4397                           
  4398                           ;digital_alarm_clock_def.c: 678:         time[6] = '\0';
  4399  0105  01C5               	clrf	_time+6
  4400  0106                     l5474:
  4401                           
  4402                           ;digital_alarm_clock_def.c: 680:         hour = (time[0]-'0')*10+(time[1]-'0');
  4403  0106  300A               	movlw	10
  4404  0107  00D7               	movwf	??_set_event
  4405  0108  0857               	movf	??_set_event,w
  4406  0109  00CC               	movwf	___bmul@multiplicand
  4407  010A  083F               	movf	_time,w
  4408  010B  160A  118A  20A3  120A  118A  	fcall	___bmul
  4409  0110  1283               	bcf	3,5	;RP0=0, select bank0
  4410  0111  1303               	bcf	3,6	;RP1=0, select bank0
  4411  0112  0740               	addwf	_time+1,w
  4412  0113  3EF0               	addlw	240
  4413  0114  00D8               	movwf	??_set_event+1
  4414  0115  0858               	movf	??_set_event+1,w
  4415  0116  00BA               	movwf	_hour
  4416  0117                     l5476:
  4417                           
  4418                           ;digital_alarm_clock_def.c: 681:         minute = (time[2]-'0')*10+(time[3]-'0');
  4419  0117  300A               	movlw	10
  4420  0118  00D7               	movwf	??_set_event
  4421  0119  0857               	movf	??_set_event,w
  4422  011A  00CC               	movwf	___bmul@multiplicand
  4423  011B  0841               	movf	_time+2,w
  4424  011C  160A  118A  20A3  120A  118A  	fcall	___bmul
  4425  0121  1283               	bcf	3,5	;RP0=0, select bank0
  4426  0122  1303               	bcf	3,6	;RP1=0, select bank0
  4427  0123  0742               	addwf	_time+3,w
  4428  0124  3EF0               	addlw	240
  4429  0125  00D8               	movwf	??_set_event+1
  4430  0126  0858               	movf	??_set_event+1,w
  4431  0127  00BB               	movwf	_minute
  4432  0128                     l5478:
  4433                           
  4434                           ;digital_alarm_clock_def.c: 686:     if(key == 0x37)
  4435  0128  3037               	movlw	55
  4436  0129  0656               	xorwf	set_event@key,w
  4437  012A  1D03               	btfss	3,2
  4438  012B  292D               	goto	u5881
  4439  012C  292E               	goto	u5880
  4440  012D                     u5881:
  4441  012D  2983               	goto	l5516
  4442  012E                     u5880:
  4443  012E                     l5480:
  4444                           
  4445                           ;digital_alarm_clock_def.c: 687:     {;digital_alarm_clock_def.c: 688:         if(minute
      +                          _flag)
  4446  012E  0829               	movf	set_event@minute_flag,w
  4447  012F  1903               	btfsc	3,2
  4448  0130  2932               	goto	u5891
  4449  0131  2933               	goto	u5890
  4450  0132                     u5891:
  4451  0132  2940               	goto	l5488
  4452  0133                     u5890:
  4453  0133                     l5482:
  4454                           
  4455                           ;digital_alarm_clock_def.c: 689:         {;digital_alarm_clock_def.c: 690:             +
      +                          +minute;
  4456  0133  3001               	movlw	1
  4457  0134  00D7               	movwf	??_set_event
  4458  0135  0857               	movf	??_set_event,w
  4459  0136  07BB               	addwf	_minute,f
  4460  0137                     l5484:
  4461                           
  4462                           ;digital_alarm_clock_def.c: 691:             if(minute > 60)
  4463  0137  303D               	movlw	61
  4464  0138  023B               	subwf	_minute,w
  4465  0139  1C03               	skipc
  4466  013A  293C               	goto	u5901
  4467  013B  293D               	goto	u5900
  4468  013C                     u5901:
  4469  013C  29C4               	goto	l5548
  4470  013D                     u5900:
  4471  013D                     l5486:
  4472                           
  4473                           ;digital_alarm_clock_def.c: 692:                 minute = 0;
  4474  013D  01BB               	clrf	_minute
  4475  013E  29C4               	goto	l5548
  4476  013F                     l559:
  4477                           
  4478                           ;digital_alarm_clock_def.c: 693:         }
  4479  013F  29C4               	goto	l5548
  4480  0140                     l5488:
  4481  0140  0828               	movf	set_event@hour_flag,w
  4482  0141  1903               	btfsc	3,2
  4483  0142  2944               	goto	u5911
  4484  0143  2945               	goto	u5910
  4485  0144                     u5911:
  4486  0144  2951               	goto	l5496
  4487  0145                     u5910:
  4488  0145                     l5490:
  4489                           
  4490                           ;digital_alarm_clock_def.c: 695:         {;digital_alarm_clock_def.c: 696:             +
      +                          +hour;
  4491  0145  3001               	movlw	1
  4492  0146  00D7               	movwf	??_set_event
  4493  0147  0857               	movf	??_set_event,w
  4494  0148  07BA               	addwf	_hour,f
  4495  0149                     l5492:
  4496                           
  4497                           ;digital_alarm_clock_def.c: 697:             if(hour > 12)
  4498  0149  300D               	movlw	13
  4499  014A  023A               	subwf	_hour,w
  4500  014B  1C03               	skipc
  4501  014C  294E               	goto	u5921
  4502  014D  294F               	goto	u5920
  4503  014E                     u5921:
  4504  014E  29C4               	goto	l5548
  4505  014F                     u5920:
  4506  014F                     l5494:
  4507                           
  4508                           ;digital_alarm_clock_def.c: 698:                 hour = 0;
  4509  014F  01BA               	clrf	_hour
  4510  0150  29C4               	goto	l5548
  4511  0151                     l5496:
  4512  0151  082A               	movf	set_event@am_pm_flag,w
  4513  0152  1903               	btfsc	3,2
  4514  0153  2955               	goto	u5931
  4515  0154  2956               	goto	u5930
  4516  0155                     u5931:
  4517  0155  2961               	goto	l5500
  4518  0156                     u5930:
  4519  0156                     l5498:
  4520                           
  4521                           ;digital_alarm_clock_def.c: 701:         {;digital_alarm_clock_def.c: 702:             P
      +                          M = !PM;
  4522  0156  0878               	movf	_PM,w
  4523  0157  1903               	btfsc	3,2
  4524  0158  295A               	goto	u5941
  4525  0159  295C               	goto	u5940
  4526  015A                     u5941:
  4527  015A  3001               	movlw	1
  4528  015B  295D               	goto	u5950
  4529  015C                     u5940:
  4530  015C  3000               	movlw	0
  4531  015D                     u5950:
  4532  015D  00D7               	movwf	??_set_event
  4533  015E  0857               	movf	??_set_event,w
  4534  015F  00F8               	movwf	_PM
  4535                           
  4536                           ;digital_alarm_clock_def.c: 703:         }
  4537  0160  29C4               	goto	l5548
  4538  0161                     l5500:
  4539  0161  0826               	movf	set_event@duration_flag,w
  4540  0162  1903               	btfsc	3,2
  4541  0163  2965               	goto	u5961
  4542  0164  2966               	goto	u5960
  4543  0165                     u5961:
  4544  0165  2972               	goto	l5508
  4545  0166                     u5960:
  4546  0166                     l5502:
  4547                           
  4548                           ;digital_alarm_clock_def.c: 705:         {;digital_alarm_clock_def.c: 706:             +
      +                          +duration;
  4549  0166  3001               	movlw	1
  4550  0167  00D7               	movwf	??_set_event
  4551  0168  0857               	movf	??_set_event,w
  4552  0169  07A3               	addwf	set_event@duration,f
  4553  016A                     l5504:
  4554                           
  4555                           ;digital_alarm_clock_def.c: 707:             if(duration > 60)
  4556  016A  303D               	movlw	61
  4557  016B  0223               	subwf	set_event@duration,w
  4558  016C  1C03               	skipc
  4559  016D  296F               	goto	u5971
  4560  016E  2970               	goto	u5970
  4561  016F                     u5971:
  4562  016F  29C4               	goto	l5548
  4563  0170                     u5970:
  4564  0170                     l5506:
  4565                           
  4566                           ;digital_alarm_clock_def.c: 708:                 duration = 0;
  4567  0170  01A3               	clrf	set_event@duration
  4568  0171  29C4               	goto	l5548
  4569  0172                     l5508:
  4570  0172  0825               	movf	set_event@times_flag,w
  4571  0173  1903               	btfsc	3,2
  4572  0174  2976               	goto	u5981
  4573  0175  2977               	goto	u5980
  4574  0176                     u5981:
  4575  0176  293F               	goto	l559
  4576  0177                     u5980:
  4577  0177                     l5510:
  4578                           
  4579                           ;digital_alarm_clock_def.c: 711:         {;digital_alarm_clock_def.c: 712:             +
      +                          +i;
  4580  0177  3001               	movlw	1
  4581  0178  00D7               	movwf	??_set_event
  4582  0179  0857               	movf	??_set_event,w
  4583  017A  07A4               	addwf	set_event@i,f
  4584  017B                     l5512:
  4585                           
  4586                           ;digital_alarm_clock_def.c: 713:             if(i > 2)
  4587  017B  3003               	movlw	3
  4588  017C  0224               	subwf	set_event@i,w
  4589  017D  1C03               	skipc
  4590  017E  2980               	goto	u5991
  4591  017F  2981               	goto	u5990
  4592  0180                     u5991:
  4593  0180  293F               	goto	l559
  4594  0181                     u5990:
  4595  0181                     l5514:
  4596                           
  4597                           ;digital_alarm_clock_def.c: 714:                 i = 0;
  4598  0181  01A4               	clrf	set_event@i
  4599  0182  29C4               	goto	l5548
  4600  0183                     l5516:
  4601  0183  302F               	movlw	47
  4602  0184  0656               	xorwf	set_event@key,w
  4603  0185  1D03               	btfss	3,2
  4604  0186  2988               	goto	u6001
  4605  0187  2989               	goto	u6000
  4606  0188                     u6001:
  4607  0188  29C4               	goto	l5548
  4608  0189                     u6000:
  4609  0189                     l5518:
  4610                           
  4611                           ;digital_alarm_clock_def.c: 719:     {;digital_alarm_clock_def.c: 720:         if(am_pm_
      +                          flag)
  4612  0189  082A               	movf	set_event@am_pm_flag,w
  4613  018A  1903               	btfsc	3,2
  4614  018B  298D               	goto	u6011
  4615  018C  298E               	goto	u6010
  4616  018D                     u6011:
  4617  018D  2995               	goto	l5524
  4618  018E                     u6010:
  4619  018E                     l5520:
  4620                           
  4621                           ;digital_alarm_clock_def.c: 721:         {;digital_alarm_clock_def.c: 722:             h
      +                          our_flag = 0;
  4622  018E  01A8               	clrf	set_event@hour_flag
  4623                           
  4624                           ;digital_alarm_clock_def.c: 723:             minute_flag = 0;
  4625  018F  01A9               	clrf	set_event@minute_flag
  4626                           
  4627                           ;digital_alarm_clock_def.c: 724:             am_pm_flag = 0;
  4628  0190  01AA               	clrf	set_event@am_pm_flag
  4629  0191                     l5522:
  4630                           
  4631                           ;digital_alarm_clock_def.c: 725:             duration_flag = 1;
  4632  0191  01A6               	clrf	set_event@duration_flag
  4633  0192  0AA6               	incf	set_event@duration_flag,f
  4634                           
  4635                           ;digital_alarm_clock_def.c: 726:             times_flag = 0;
  4636  0193  01A5               	clrf	set_event@times_flag
  4637                           
  4638                           ;digital_alarm_clock_def.c: 727:         }
  4639  0194  29C4               	goto	l5548
  4640  0195                     l5524:
  4641  0195  0829               	movf	set_event@minute_flag,w
  4642  0196  1903               	btfsc	3,2
  4643  0197  2999               	goto	u6021
  4644  0198  299A               	goto	u6020
  4645  0199                     u6021:
  4646  0199  29A1               	goto	l5530
  4647  019A                     u6020:
  4648  019A                     l5526:
  4649                           
  4650                           ;digital_alarm_clock_def.c: 729:         {;digital_alarm_clock_def.c: 730:             h
      +                          our_flag = 0;
  4651  019A  01A8               	clrf	set_event@hour_flag
  4652                           
  4653                           ;digital_alarm_clock_def.c: 731:             minute_flag = 0;
  4654  019B  01A9               	clrf	set_event@minute_flag
  4655  019C                     l5528:
  4656                           
  4657                           ;digital_alarm_clock_def.c: 732:             am_pm_flag = 1;
  4658  019C  01AA               	clrf	set_event@am_pm_flag
  4659  019D  0AAA               	incf	set_event@am_pm_flag,f
  4660                           
  4661                           ;digital_alarm_clock_def.c: 733:             duration_flag = 0;
  4662  019E  01A6               	clrf	set_event@duration_flag
  4663                           
  4664                           ;digital_alarm_clock_def.c: 734:             times_flag = 0;
  4665  019F  01A5               	clrf	set_event@times_flag
  4666                           
  4667                           ;digital_alarm_clock_def.c: 735:         }
  4668  01A0  29C4               	goto	l5548
  4669  01A1                     l5530:
  4670  01A1  0828               	movf	set_event@hour_flag,w
  4671  01A2  1903               	btfsc	3,2
  4672  01A3  29A5               	goto	u6031
  4673  01A4  29A6               	goto	u6030
  4674  01A5                     u6031:
  4675  01A5  29AD               	goto	l5536
  4676  01A6                     u6030:
  4677  01A6                     l5532:
  4678                           
  4679                           ;digital_alarm_clock_def.c: 737:         {;digital_alarm_clock_def.c: 738:             h
      +                          our_flag = 0;
  4680  01A6  01A8               	clrf	set_event@hour_flag
  4681  01A7                     l5534:
  4682                           
  4683                           ;digital_alarm_clock_def.c: 739:             minute_flag = 1;
  4684  01A7  01A9               	clrf	set_event@minute_flag
  4685  01A8  0AA9               	incf	set_event@minute_flag,f
  4686                           
  4687                           ;digital_alarm_clock_def.c: 740:             am_pm_flag = 0;
  4688  01A9  01AA               	clrf	set_event@am_pm_flag
  4689                           
  4690                           ;digital_alarm_clock_def.c: 741:             duration_flag = 0;
  4691  01AA  01A6               	clrf	set_event@duration_flag
  4692                           
  4693                           ;digital_alarm_clock_def.c: 742:             times_flag = 0;
  4694  01AB  01A5               	clrf	set_event@times_flag
  4695                           
  4696                           ;digital_alarm_clock_def.c: 743:         }
  4697  01AC  29C4               	goto	l5548
  4698  01AD                     l5536:
  4699  01AD  0826               	movf	set_event@duration_flag,w
  4700  01AE  1903               	btfsc	3,2
  4701  01AF  29B1               	goto	u6041
  4702  01B0  29B2               	goto	u6040
  4703  01B1                     u6041:
  4704  01B1  29B9               	goto	l5542
  4705  01B2                     u6040:
  4706  01B2                     l5538:
  4707                           
  4708                           ;digital_alarm_clock_def.c: 745:         {;digital_alarm_clock_def.c: 746:             h
      +                          our_flag = 0;
  4709  01B2  01A8               	clrf	set_event@hour_flag
  4710                           
  4711                           ;digital_alarm_clock_def.c: 747:             minute_flag = 0;
  4712  01B3  01A9               	clrf	set_event@minute_flag
  4713                           
  4714                           ;digital_alarm_clock_def.c: 748:             am_pm_flag = 0;
  4715  01B4  01AA               	clrf	set_event@am_pm_flag
  4716                           
  4717                           ;digital_alarm_clock_def.c: 749:             duration_flag = 0;
  4718  01B5  01A6               	clrf	set_event@duration_flag
  4719  01B6                     l5540:
  4720                           
  4721                           ;digital_alarm_clock_def.c: 750:             times_flag = 1;
  4722  01B6  01A5               	clrf	set_event@times_flag
  4723  01B7  0AA5               	incf	set_event@times_flag,f
  4724                           
  4725                           ;digital_alarm_clock_def.c: 751:         }
  4726  01B8  29C4               	goto	l5548
  4727  01B9                     l5542:
  4728  01B9  0825               	movf	set_event@times_flag,w
  4729  01BA  1903               	btfsc	3,2
  4730  01BB  29BD               	goto	u6051
  4731  01BC  29BE               	goto	u6050
  4732  01BD                     u6051:
  4733  01BD  293F               	goto	l559
  4734  01BE                     u6050:
  4735  01BE                     l5544:
  4736                           
  4737                           ;digital_alarm_clock_def.c: 753:         {;digital_alarm_clock_def.c: 754:             h
      +                          our_flag = 1;
  4738  01BE  01A8               	clrf	set_event@hour_flag
  4739  01BF  0AA8               	incf	set_event@hour_flag,f
  4740  01C0                     l5546:
  4741                           
  4742                           ;digital_alarm_clock_def.c: 755:             minute_flag = 0;
  4743  01C0  01A9               	clrf	set_event@minute_flag
  4744                           
  4745                           ;digital_alarm_clock_def.c: 756:             am_pm_flag = 0;
  4746  01C1  01AA               	clrf	set_event@am_pm_flag
  4747                           
  4748                           ;digital_alarm_clock_def.c: 757:             duration_flag = 0;
  4749  01C2  01A6               	clrf	set_event@duration_flag
  4750                           
  4751                           ;digital_alarm_clock_def.c: 758:             times_flag = 0;
  4752  01C3  01A5               	clrf	set_event@times_flag
  4753  01C4                     l5548:
  4754                           
  4755                           ;digital_alarm_clock_def.c: 763:     if(am_pm_flag)
  4756  01C4  082A               	movf	set_event@am_pm_flag,w
  4757  01C5  1903               	btfsc	3,2
  4758  01C6  29C8               	goto	u6061
  4759  01C7  29C9               	goto	u6060
  4760  01C8                     u6061:
  4761  01C8  2A24               	goto	l5564
  4762  01C9                     u6060:
  4763  01C9                     l5550:
  4764                           
  4765                           ;digital_alarm_clock_def.c: 764:     {;digital_alarm_clock_def.c: 765:         if(flag)
  4766  01C9  0827               	movf	set_event@flag,w
  4767  01CA  1903               	btfsc	3,2
  4768  01CB  29CD               	goto	u6071
  4769  01CC  29CE               	goto	u6070
  4770  01CD                     u6071:
  4771  01CD  2A0D               	goto	l5562
  4772  01CE                     u6070:
  4773  01CE                     l5552:
  4774                           
  4775                           ;digital_alarm_clock_def.c: 766:         {;digital_alarm_clock_def.c: 768:             i
      +                          f(PM)
  4776  01CE  0878               	movf	_PM,w
  4777  01CF  1903               	btfsc	3,2
  4778  01D0  29D2               	goto	u6081
  4779  01D1  29D3               	goto	u6080
  4780  01D2                     u6081:
  4781  01D2  29E2               	goto	l5556
  4782  01D3                     u6080:
  4783  01D3                     l5554:
  4784                           
  4785                           ;digital_alarm_clock_def.c: 769:             {;digital_alarm_clock_def.c: 770:          
      +                                 new_event[4] = 'P';
  4786  01D3  3050               	movlw	80
  4787  01D4  00D7               	movwf	??_set_event
  4788  01D5  0857               	movf	??_set_event,w
  4789  01D6  1683               	bsf	3,5	;RP0=1, select bank1
  4790  01D7  1303               	bcf	3,6	;RP1=0, select bank1
  4791  01D8  00D1               	movwf	(_new_event^(0+128)+4)
  4792                           
  4793                           ;digital_alarm_clock_def.c: 771:                 new_event[5] = 'M';
  4794  01D9  304D               	movlw	77
  4795  01DA  1283               	bcf	3,5	;RP0=0, select bank0
  4796  01DB  1303               	bcf	3,6	;RP1=0, select bank0
  4797  01DC  00D7               	movwf	??_set_event
  4798  01DD  0857               	movf	??_set_event,w
  4799  01DE  1683               	bsf	3,5	;RP0=1, select bank1
  4800  01DF  1303               	bcf	3,6	;RP1=0, select bank1
  4801  01E0  00D2               	movwf	(_new_event^(0+128)+5)
  4802                           
  4803                           ;digital_alarm_clock_def.c: 772:             }
  4804  01E1  29F0               	goto	l5558
  4805  01E2                     l5556:
  4806                           
  4807                           ;digital_alarm_clock_def.c: 774:             {;digital_alarm_clock_def.c: 775:          
      +                                 new_event[4] = 'A';
  4808  01E2  3041               	movlw	65
  4809  01E3  00D7               	movwf	??_set_event
  4810  01E4  0857               	movf	??_set_event,w
  4811  01E5  1683               	bsf	3,5	;RP0=1, select bank1
  4812  01E6  1303               	bcf	3,6	;RP1=0, select bank1
  4813  01E7  00D1               	movwf	(_new_event^(0+128)+4)
  4814                           
  4815                           ;digital_alarm_clock_def.c: 776:                 new_event[5] = 'M';
  4816  01E8  304D               	movlw	77
  4817  01E9  1283               	bcf	3,5	;RP0=0, select bank0
  4818  01EA  1303               	bcf	3,6	;RP1=0, select bank0
  4819  01EB  00D7               	movwf	??_set_event
  4820  01EC  0857               	movf	??_set_event,w
  4821  01ED  1683               	bsf	3,5	;RP0=1, select bank1
  4822  01EE  1303               	bcf	3,6	;RP1=0, select bank1
  4823  01EF  00D2               	movwf	(_new_event^(0+128)+5)
  4824  01F0                     l5558:
  4825                           
  4826                           ;digital_alarm_clock_def.c: 778:             clcd_putch(new_event[4], (0x80 + 12));
  4827  01F0  308C               	movlw	140
  4828  01F1  1283               	bcf	3,5	;RP0=0, select bank0
  4829  01F2  1303               	bcf	3,6	;RP1=0, select bank0
  4830  01F3  00D7               	movwf	??_set_event
  4831  01F4  0857               	movf	??_set_event,w
  4832  01F5  00CC               	movwf	clcd_putch@addr
  4833  01F6  1683               	bsf	3,5	;RP0=1, select bank1
  4834  01F7  1303               	bcf	3,6	;RP1=0, select bank1
  4835  01F8  0851               	movf	(_new_event^(0+128)+4),w
  4836  01F9  120A  118A  27EA  120A  118A  	fcall	_clcd_putch
  4837  01FE                     l5560:
  4838                           
  4839                           ;digital_alarm_clock_def.c: 779:             clcd_putch(new_event[5], (0x80 + 13));
  4840  01FE  308D               	movlw	141
  4841  01FF  1283               	bcf	3,5	;RP0=0, select bank0
  4842  0200  1303               	bcf	3,6	;RP1=0, select bank0
  4843  0201  00D7               	movwf	??_set_event
  4844  0202  0857               	movf	??_set_event,w
  4845  0203  00CC               	movwf	clcd_putch@addr
  4846  0204  1683               	bsf	3,5	;RP0=1, select bank1
  4847  0205  1303               	bcf	3,6	;RP1=0, select bank1
  4848  0206  0852               	movf	(_new_event^(0+128)+5),w
  4849  0207  120A  118A  27EA  120A  118A  	fcall	_clcd_putch
  4850                           
  4851                           ;digital_alarm_clock_def.c: 780:         }
  4852  020C  2A62               	goto	l5574
  4853  020D                     l5562:
  4854                           
  4855                           ;digital_alarm_clock_def.c: 782:         {;digital_alarm_clock_def.c: 783:             c
      +                          lcd_putch(' ', (0x80 + 12));
  4856  020D  308C               	movlw	140
  4857  020E  00D7               	movwf	??_set_event
  4858  020F  0857               	movf	??_set_event,w
  4859  0210  00CC               	movwf	clcd_putch@addr
  4860  0211  3020               	movlw	32
  4861  0212  120A  118A  27EA  120A  118A  	fcall	_clcd_putch
  4862                           
  4863                           ;digital_alarm_clock_def.c: 784:             clcd_putch(' ', (0x80 + 13));
  4864  0217  308D               	movlw	141
  4865  0218  1283               	bcf	3,5	;RP0=0, select bank0
  4866  0219  1303               	bcf	3,6	;RP1=0, select bank0
  4867  021A  00D7               	movwf	??_set_event
  4868  021B  0857               	movf	??_set_event,w
  4869  021C  00CC               	movwf	clcd_putch@addr
  4870  021D  3020               	movlw	32
  4871  021E  120A  118A  27EA  120A  118A  	fcall	_clcd_putch
  4872  0223  2A62               	goto	l5574
  4873  0224                     l5564:
  4874                           
  4875                           ;digital_alarm_clock_def.c: 788:     {;digital_alarm_clock_def.c: 790:         if(PM)
  4876  0224  0878               	movf	_PM,w
  4877  0225  1903               	btfsc	3,2
  4878  0226  2A28               	goto	u6091
  4879  0227  2A29               	goto	u6090
  4880  0228                     u6091:
  4881  0228  2A38               	goto	l5568
  4882  0229                     u6090:
  4883  0229                     l5566:
  4884                           
  4885                           ;digital_alarm_clock_def.c: 791:         {;digital_alarm_clock_def.c: 792:             n
      +                          ew_event[4] = 'P';
  4886  0229  3050               	movlw	80
  4887  022A  00D7               	movwf	??_set_event
  4888  022B  0857               	movf	??_set_event,w
  4889  022C  1683               	bsf	3,5	;RP0=1, select bank1
  4890  022D  1303               	bcf	3,6	;RP1=0, select bank1
  4891  022E  00D1               	movwf	(_new_event^(0+128)+4)
  4892                           
  4893                           ;digital_alarm_clock_def.c: 793:             new_event[5] = 'M';
  4894  022F  304D               	movlw	77
  4895  0230  1283               	bcf	3,5	;RP0=0, select bank0
  4896  0231  1303               	bcf	3,6	;RP1=0, select bank0
  4897  0232  00D7               	movwf	??_set_event
  4898  0233  0857               	movf	??_set_event,w
  4899  0234  1683               	bsf	3,5	;RP0=1, select bank1
  4900  0235  1303               	bcf	3,6	;RP1=0, select bank1
  4901  0236  00D2               	movwf	(_new_event^(0+128)+5)
  4902                           
  4903                           ;digital_alarm_clock_def.c: 794:         }
  4904  0237  2A46               	goto	l5570
  4905  0238                     l5568:
  4906                           
  4907                           ;digital_alarm_clock_def.c: 796:         {;digital_alarm_clock_def.c: 797:             n
      +                          ew_event[4] = 'A';
  4908  0238  3041               	movlw	65
  4909  0239  00D7               	movwf	??_set_event
  4910  023A  0857               	movf	??_set_event,w
  4911  023B  1683               	bsf	3,5	;RP0=1, select bank1
  4912  023C  1303               	bcf	3,6	;RP1=0, select bank1
  4913  023D  00D1               	movwf	(_new_event^(0+128)+4)
  4914                           
  4915                           ;digital_alarm_clock_def.c: 798:             new_event[5] = 'M';
  4916  023E  304D               	movlw	77
  4917  023F  1283               	bcf	3,5	;RP0=0, select bank0
  4918  0240  1303               	bcf	3,6	;RP1=0, select bank0
  4919  0241  00D7               	movwf	??_set_event
  4920  0242  0857               	movf	??_set_event,w
  4921  0243  1683               	bsf	3,5	;RP0=1, select bank1
  4922  0244  1303               	bcf	3,6	;RP1=0, select bank1
  4923  0245  00D2               	movwf	(_new_event^(0+128)+5)
  4924  0246                     l5570:
  4925                           
  4926                           ;digital_alarm_clock_def.c: 800:         clcd_putch(new_event[4], (0x80 + 12));
  4927  0246  308C               	movlw	140
  4928  0247  1283               	bcf	3,5	;RP0=0, select bank0
  4929  0248  1303               	bcf	3,6	;RP1=0, select bank0
  4930  0249  00D7               	movwf	??_set_event
  4931  024A  0857               	movf	??_set_event,w
  4932  024B  00CC               	movwf	clcd_putch@addr
  4933  024C  1683               	bsf	3,5	;RP0=1, select bank1
  4934  024D  1303               	bcf	3,6	;RP1=0, select bank1
  4935  024E  0851               	movf	(_new_event^(0+128)+4),w
  4936  024F  120A  118A  27EA  120A  118A  	fcall	_clcd_putch
  4937  0254                     l5572:
  4938                           
  4939                           ;digital_alarm_clock_def.c: 801:         clcd_putch(new_event[5], (0x80 + 13));
  4940  0254  308D               	movlw	141
  4941  0255  1283               	bcf	3,5	;RP0=0, select bank0
  4942  0256  1303               	bcf	3,6	;RP1=0, select bank0
  4943  0257  00D7               	movwf	??_set_event
  4944  0258  0857               	movf	??_set_event,w
  4945  0259  00CC               	movwf	clcd_putch@addr
  4946  025A  1683               	bsf	3,5	;RP0=1, select bank1
  4947  025B  1303               	bcf	3,6	;RP1=0, select bank1
  4948  025C  0852               	movf	(_new_event^(0+128)+5),w
  4949  025D  120A  118A  27EA  120A  118A  	fcall	_clcd_putch
  4950  0262                     l5574:
  4951                           
  4952                           ;digital_alarm_clock_def.c: 803:     if(minute_flag)
  4953  0262  1283               	bcf	3,5	;RP0=0, select bank0
  4954  0263  1303               	bcf	3,6	;RP1=0, select bank0
  4955  0264  0829               	movf	set_event@minute_flag,w
  4956  0265  1903               	btfsc	3,2
  4957  0266  2A68               	goto	u6101
  4958  0267  2A69               	goto	u6100
  4959  0268                     u6101:
  4960  0268  2AE5               	goto	l5582
  4961  0269                     u6100:
  4962  0269                     l5576:
  4963                           
  4964                           ;digital_alarm_clock_def.c: 804:     {;digital_alarm_clock_def.c: 805:         if(flag)
  4965  0269  0827               	movf	set_event@flag,w
  4966  026A  1903               	btfsc	3,2
  4967  026B  2A6D               	goto	u6111
  4968  026C  2A6E               	goto	u6110
  4969  026D                     u6111:
  4970  026D  2ACE               	goto	l5580
  4971  026E                     u6110:
  4972  026E                     l5578:
  4973                           
  4974                           ;digital_alarm_clock_def.c: 806:         {;digital_alarm_clock_def.c: 807:             n
      +                          ew_event[2] = (minute / 10) % 10 + '0';
  4975  026E  300A               	movlw	10
  4976  026F  00D0               	movwf	___awmod@divisor
  4977  0270  3000               	movlw	0
  4978  0271  00D1               	movwf	___awmod@divisor+1
  4979  0272  300A               	movlw	10
  4980  0273  00C8               	movwf	___awdiv@divisor
  4981  0274  3000               	movlw	0
  4982  0275  00C9               	movwf	___awdiv@divisor+1
  4983  0276  083B               	movf	_minute,w
  4984  0277  00D7               	movwf	??_set_event
  4985  0278  01D8               	clrf	??_set_event+1
  4986  0279  0857               	movf	??_set_event,w
  4987  027A  00CA               	movwf	___awdiv@dividend
  4988  027B  0858               	movf	??_set_event+1,w
  4989  027C  00CB               	movwf	___awdiv@dividend+1
  4990  027D  160A  158A  2797  120A  118A  	fcall	___awdiv
  4991  0282  1283               	bcf	3,5	;RP0=0, select bank0
  4992  0283  1303               	bcf	3,6	;RP1=0, select bank0
  4993  0284  0849               	movf	?___awdiv+1,w
  4994  0285  00D3               	movwf	___awmod@dividend+1
  4995  0286  0848               	movf	?___awdiv,w
  4996  0287  00D2               	movwf	___awmod@dividend
  4997  0288  160A  158A  2670  120A  118A  	fcall	___awmod
  4998  028D  1283               	bcf	3,5	;RP0=0, select bank0
  4999  028E  1303               	bcf	3,6	;RP1=0, select bank0
  5000  028F  0850               	movf	?___awmod,w
  5001  0290  3E30               	addlw	48
  5002  0291  00D9               	movwf	??_set_event+2
  5003  0292  0859               	movf	??_set_event+2,w
  5004  0293  1683               	bsf	3,5	;RP0=1, select bank1
  5005  0294  1303               	bcf	3,6	;RP1=0, select bank1
  5006  0295  00CF               	movwf	(_new_event^(0+128)+2)
  5007                           
  5008                           ;digital_alarm_clock_def.c: 808:             new_event[3] = (minute / 1) % 10 + '0';
  5009  0296  300A               	movlw	10
  5010  0297  1283               	bcf	3,5	;RP0=0, select bank0
  5011  0298  1303               	bcf	3,6	;RP1=0, select bank0
  5012  0299  00D0               	movwf	___awmod@divisor
  5013  029A  3000               	movlw	0
  5014  029B  00D1               	movwf	___awmod@divisor+1
  5015  029C  083B               	movf	_minute,w
  5016  029D  00D7               	movwf	??_set_event
  5017  029E  01D8               	clrf	??_set_event+1
  5018  029F  0857               	movf	??_set_event,w
  5019  02A0  00D2               	movwf	___awmod@dividend
  5020  02A1  0858               	movf	??_set_event+1,w
  5021  02A2  00D3               	movwf	___awmod@dividend+1
  5022  02A3  160A  158A  2670  120A  118A  	fcall	___awmod
  5023  02A8  1283               	bcf	3,5	;RP0=0, select bank0
  5024  02A9  1303               	bcf	3,6	;RP1=0, select bank0
  5025  02AA  0850               	movf	?___awmod,w
  5026  02AB  3E30               	addlw	48
  5027  02AC  00D9               	movwf	??_set_event+2
  5028  02AD  0859               	movf	??_set_event+2,w
  5029  02AE  1683               	bsf	3,5	;RP0=1, select bank1
  5030  02AF  1303               	bcf	3,6	;RP1=0, select bank1
  5031  02B0  00D0               	movwf	(_new_event^(0+128)+3)
  5032                           
  5033                           ;digital_alarm_clock_def.c: 809:             clcd_putch(new_event[2], (0x80 + 9));
  5034  02B1  3089               	movlw	137
  5035  02B2  1283               	bcf	3,5	;RP0=0, select bank0
  5036  02B3  1303               	bcf	3,6	;RP1=0, select bank0
  5037  02B4  00D7               	movwf	??_set_event
  5038  02B5  0857               	movf	??_set_event,w
  5039  02B6  00CC               	movwf	clcd_putch@addr
  5040  02B7  1683               	bsf	3,5	;RP0=1, select bank1
  5041  02B8  1303               	bcf	3,6	;RP1=0, select bank1
  5042  02B9  084F               	movf	(_new_event^(0+128)+2),w
  5043  02BA  120A  118A  27EA  120A  118A  	fcall	_clcd_putch
  5044                           
  5045                           ;digital_alarm_clock_def.c: 810:             clcd_putch(new_event[3], (0x80 + 10));
  5046  02BF  308A               	movlw	138
  5047  02C0  1283               	bcf	3,5	;RP0=0, select bank0
  5048  02C1  1303               	bcf	3,6	;RP1=0, select bank0
  5049  02C2  00D7               	movwf	??_set_event
  5050  02C3  0857               	movf	??_set_event,w
  5051  02C4  00CC               	movwf	clcd_putch@addr
  5052  02C5  1683               	bsf	3,5	;RP0=1, select bank1
  5053  02C6  1303               	bcf	3,6	;RP1=0, select bank1
  5054  02C7  0850               	movf	(_new_event^(0+128)+3),w
  5055  02C8  120A  118A  27EA  120A  118A  	fcall	_clcd_putch
  5056                           
  5057                           ;digital_alarm_clock_def.c: 811:         }
  5058  02CD  2B44               	goto	l5584
  5059  02CE                     l5580:
  5060                           
  5061                           ;digital_alarm_clock_def.c: 813:         {;digital_alarm_clock_def.c: 814:             c
      +                          lcd_putch(' ', (0x80 + 9));
  5062  02CE  3089               	movlw	137
  5063  02CF  00D7               	movwf	??_set_event
  5064  02D0  0857               	movf	??_set_event,w
  5065  02D1  00CC               	movwf	clcd_putch@addr
  5066  02D2  3020               	movlw	32
  5067  02D3  120A  118A  27EA  120A  118A  	fcall	_clcd_putch
  5068                           
  5069                           ;digital_alarm_clock_def.c: 815:             clcd_putch(' ', (0x80 + 10));
  5070  02D8  308A               	movlw	138
  5071  02D9  1283               	bcf	3,5	;RP0=0, select bank0
  5072  02DA  1303               	bcf	3,6	;RP1=0, select bank0
  5073  02DB  00D7               	movwf	??_set_event
  5074  02DC  0857               	movf	??_set_event,w
  5075  02DD  00CC               	movwf	clcd_putch@addr
  5076  02DE  3020               	movlw	32
  5077  02DF  120A  118A  27EA  120A  118A  	fcall	_clcd_putch
  5078  02E4  2B44               	goto	l5584
  5079  02E5                     l5582:
  5080                           
  5081                           ;digital_alarm_clock_def.c: 819:     {;digital_alarm_clock_def.c: 820:         new_event
      +                          [2] = (minute / 10) % 10 + '0';
  5082  02E5  300A               	movlw	10
  5083  02E6  00D0               	movwf	___awmod@divisor
  5084  02E7  3000               	movlw	0
  5085  02E8  00D1               	movwf	___awmod@divisor+1
  5086  02E9  300A               	movlw	10
  5087  02EA  00C8               	movwf	___awdiv@divisor
  5088  02EB  3000               	movlw	0
  5089  02EC  00C9               	movwf	___awdiv@divisor+1
  5090  02ED  083B               	movf	_minute,w
  5091  02EE  00D7               	movwf	??_set_event
  5092  02EF  01D8               	clrf	??_set_event+1
  5093  02F0  0857               	movf	??_set_event,w
  5094  02F1  00CA               	movwf	___awdiv@dividend
  5095  02F2  0858               	movf	??_set_event+1,w
  5096  02F3  00CB               	movwf	___awdiv@dividend+1
  5097  02F4  160A  158A  2797  120A  118A  	fcall	___awdiv
  5098  02F9  1283               	bcf	3,5	;RP0=0, select bank0
  5099  02FA  1303               	bcf	3,6	;RP1=0, select bank0
  5100  02FB  0849               	movf	?___awdiv+1,w
  5101  02FC  00D3               	movwf	___awmod@dividend+1
  5102  02FD  0848               	movf	?___awdiv,w
  5103  02FE  00D2               	movwf	___awmod@dividend
  5104  02FF  160A  158A  2670  120A  118A  	fcall	___awmod
  5105  0304  1283               	bcf	3,5	;RP0=0, select bank0
  5106  0305  1303               	bcf	3,6	;RP1=0, select bank0
  5107  0306  0850               	movf	?___awmod,w
  5108  0307  3E30               	addlw	48
  5109  0308  00D9               	movwf	??_set_event+2
  5110  0309  0859               	movf	??_set_event+2,w
  5111  030A  1683               	bsf	3,5	;RP0=1, select bank1
  5112  030B  1303               	bcf	3,6	;RP1=0, select bank1
  5113  030C  00CF               	movwf	(_new_event^(0+128)+2)
  5114                           
  5115                           ;digital_alarm_clock_def.c: 821:         new_event[3] = (minute / 1) % 10 + '0';
  5116  030D  300A               	movlw	10
  5117  030E  1283               	bcf	3,5	;RP0=0, select bank0
  5118  030F  1303               	bcf	3,6	;RP1=0, select bank0
  5119  0310  00D0               	movwf	___awmod@divisor
  5120  0311  3000               	movlw	0
  5121  0312  00D1               	movwf	___awmod@divisor+1
  5122  0313  083B               	movf	_minute,w
  5123  0314  00D7               	movwf	??_set_event
  5124  0315  01D8               	clrf	??_set_event+1
  5125  0316  0857               	movf	??_set_event,w
  5126  0317  00D2               	movwf	___awmod@dividend
  5127  0318  0858               	movf	??_set_event+1,w
  5128  0319  00D3               	movwf	___awmod@dividend+1
  5129  031A  160A  158A  2670  120A  118A  	fcall	___awmod
  5130  031F  1283               	bcf	3,5	;RP0=0, select bank0
  5131  0320  1303               	bcf	3,6	;RP1=0, select bank0
  5132  0321  0850               	movf	?___awmod,w
  5133  0322  3E30               	addlw	48
  5134  0323  00D9               	movwf	??_set_event+2
  5135  0324  0859               	movf	??_set_event+2,w
  5136  0325  1683               	bsf	3,5	;RP0=1, select bank1
  5137  0326  1303               	bcf	3,6	;RP1=0, select bank1
  5138  0327  00D0               	movwf	(_new_event^(0+128)+3)
  5139                           
  5140                           ;digital_alarm_clock_def.c: 822:         clcd_putch(new_event[2], (0x80 + 9));
  5141  0328  3089               	movlw	137
  5142  0329  1283               	bcf	3,5	;RP0=0, select bank0
  5143  032A  1303               	bcf	3,6	;RP1=0, select bank0
  5144  032B  00D7               	movwf	??_set_event
  5145  032C  0857               	movf	??_set_event,w
  5146  032D  00CC               	movwf	clcd_putch@addr
  5147  032E  1683               	bsf	3,5	;RP0=1, select bank1
  5148  032F  1303               	bcf	3,6	;RP1=0, select bank1
  5149  0330  084F               	movf	(_new_event^(0+128)+2),w
  5150  0331  120A  118A  27EA  120A  118A  	fcall	_clcd_putch
  5151                           
  5152                           ;digital_alarm_clock_def.c: 823:         clcd_putch(new_event[3], (0x80 + 10));
  5153  0336  308A               	movlw	138
  5154  0337  1283               	bcf	3,5	;RP0=0, select bank0
  5155  0338  1303               	bcf	3,6	;RP1=0, select bank0
  5156  0339  00D7               	movwf	??_set_event
  5157  033A  0857               	movf	??_set_event,w
  5158  033B  00CC               	movwf	clcd_putch@addr
  5159  033C  1683               	bsf	3,5	;RP0=1, select bank1
  5160  033D  1303               	bcf	3,6	;RP1=0, select bank1
  5161  033E  0850               	movf	(_new_event^(0+128)+3),w
  5162  033F  120A  118A  27EA  120A  118A  	fcall	_clcd_putch
  5163  0344                     l5584:
  5164                           
  5165                           ;digital_alarm_clock_def.c: 826:     if(hour_flag)
  5166  0344  1283               	bcf	3,5	;RP0=0, select bank0
  5167  0345  1303               	bcf	3,6	;RP1=0, select bank0
  5168  0346  0828               	movf	set_event@hour_flag,w
  5169  0347  1903               	btfsc	3,2
  5170  0348  2B4A               	goto	u6121
  5171  0349  2B4B               	goto	u6120
  5172  034A                     u6121:
  5173  034A  2BC7               	goto	l5592
  5174  034B                     u6120:
  5175  034B                     l5586:
  5176                           
  5177                           ;digital_alarm_clock_def.c: 827:     {;digital_alarm_clock_def.c: 828:         if(flag)
  5178  034B  0827               	movf	set_event@flag,w
  5179  034C  1903               	btfsc	3,2
  5180  034D  2B4F               	goto	u6131
  5181  034E  2B50               	goto	u6130
  5182  034F                     u6131:
  5183  034F  2BB0               	goto	l5590
  5184  0350                     u6130:
  5185  0350                     l5588:
  5186                           
  5187                           ;digital_alarm_clock_def.c: 829:         {;digital_alarm_clock_def.c: 830:             n
      +                          ew_event[0] = (hour / 10) % 10 + '0';
  5188  0350  300A               	movlw	10
  5189  0351  00D0               	movwf	___awmod@divisor
  5190  0352  3000               	movlw	0
  5191  0353  00D1               	movwf	___awmod@divisor+1
  5192  0354  300A               	movlw	10
  5193  0355  00C8               	movwf	___awdiv@divisor
  5194  0356  3000               	movlw	0
  5195  0357  00C9               	movwf	___awdiv@divisor+1
  5196  0358  083A               	movf	_hour,w
  5197  0359  00D7               	movwf	??_set_event
  5198  035A  01D8               	clrf	??_set_event+1
  5199  035B  0857               	movf	??_set_event,w
  5200  035C  00CA               	movwf	___awdiv@dividend
  5201  035D  0858               	movf	??_set_event+1,w
  5202  035E  00CB               	movwf	___awdiv@dividend+1
  5203  035F  160A  158A  2797  120A  118A  	fcall	___awdiv
  5204  0364  1283               	bcf	3,5	;RP0=0, select bank0
  5205  0365  1303               	bcf	3,6	;RP1=0, select bank0
  5206  0366  0849               	movf	?___awdiv+1,w
  5207  0367  00D3               	movwf	___awmod@dividend+1
  5208  0368  0848               	movf	?___awdiv,w
  5209  0369  00D2               	movwf	___awmod@dividend
  5210  036A  160A  158A  2670  120A  118A  	fcall	___awmod
  5211  036F  1283               	bcf	3,5	;RP0=0, select bank0
  5212  0370  1303               	bcf	3,6	;RP1=0, select bank0
  5213  0371  0850               	movf	?___awmod,w
  5214  0372  3E30               	addlw	48
  5215  0373  00D9               	movwf	??_set_event+2
  5216  0374  0859               	movf	??_set_event+2,w
  5217  0375  1683               	bsf	3,5	;RP0=1, select bank1
  5218  0376  1303               	bcf	3,6	;RP1=0, select bank1
  5219  0377  00CD               	movwf	_new_event^(0+128)
  5220                           
  5221                           ;digital_alarm_clock_def.c: 831:             new_event[1] = (hour / 1) % 10 + '0';
  5222  0378  300A               	movlw	10
  5223  0379  1283               	bcf	3,5	;RP0=0, select bank0
  5224  037A  1303               	bcf	3,6	;RP1=0, select bank0
  5225  037B  00D0               	movwf	___awmod@divisor
  5226  037C  3000               	movlw	0
  5227  037D  00D1               	movwf	___awmod@divisor+1
  5228  037E  083A               	movf	_hour,w
  5229  037F  00D7               	movwf	??_set_event
  5230  0380  01D8               	clrf	??_set_event+1
  5231  0381  0857               	movf	??_set_event,w
  5232  0382  00D2               	movwf	___awmod@dividend
  5233  0383  0858               	movf	??_set_event+1,w
  5234  0384  00D3               	movwf	___awmod@dividend+1
  5235  0385  160A  158A  2670  120A  118A  	fcall	___awmod
  5236  038A  1283               	bcf	3,5	;RP0=0, select bank0
  5237  038B  1303               	bcf	3,6	;RP1=0, select bank0
  5238  038C  0850               	movf	?___awmod,w
  5239  038D  3E30               	addlw	48
  5240  038E  00D9               	movwf	??_set_event+2
  5241  038F  0859               	movf	??_set_event+2,w
  5242  0390  1683               	bsf	3,5	;RP0=1, select bank1
  5243  0391  1303               	bcf	3,6	;RP1=0, select bank1
  5244  0392  00CE               	movwf	(_new_event^(0+128)+1)
  5245                           
  5246                           ;digital_alarm_clock_def.c: 832:             clcd_putch(new_event[0], (0x80 + 6));
  5247  0393  3086               	movlw	134
  5248  0394  1283               	bcf	3,5	;RP0=0, select bank0
  5249  0395  1303               	bcf	3,6	;RP1=0, select bank0
  5250  0396  00D7               	movwf	??_set_event
  5251  0397  0857               	movf	??_set_event,w
  5252  0398  00CC               	movwf	clcd_putch@addr
  5253  0399  1683               	bsf	3,5	;RP0=1, select bank1
  5254  039A  1303               	bcf	3,6	;RP1=0, select bank1
  5255  039B  084D               	movf	_new_event^(0+128),w
  5256  039C  120A  118A  27EA  120A  118A  	fcall	_clcd_putch
  5257                           
  5258                           ;digital_alarm_clock_def.c: 833:             clcd_putch(new_event[1], (0x80 + 7));
  5259  03A1  3087               	movlw	135
  5260  03A2  1283               	bcf	3,5	;RP0=0, select bank0
  5261  03A3  1303               	bcf	3,6	;RP1=0, select bank0
  5262  03A4  00D7               	movwf	??_set_event
  5263  03A5  0857               	movf	??_set_event,w
  5264  03A6  00CC               	movwf	clcd_putch@addr
  5265  03A7  1683               	bsf	3,5	;RP0=1, select bank1
  5266  03A8  1303               	bcf	3,6	;RP1=0, select bank1
  5267  03A9  084E               	movf	(_new_event^(0+128)+1),w
  5268  03AA  120A  118A  27EA  120A  118A  	fcall	_clcd_putch
  5269                           
  5270                           ;digital_alarm_clock_def.c: 834:         }
  5271  03AF  2C26               	goto	l5594
  5272  03B0                     l5590:
  5273                           
  5274                           ;digital_alarm_clock_def.c: 836:         {;digital_alarm_clock_def.c: 837:             c
      +                          lcd_putch(' ', (0x80 + 6));
  5275  03B0  3086               	movlw	134
  5276  03B1  00D7               	movwf	??_set_event
  5277  03B2  0857               	movf	??_set_event,w
  5278  03B3  00CC               	movwf	clcd_putch@addr
  5279  03B4  3020               	movlw	32
  5280  03B5  120A  118A  27EA  120A  118A  	fcall	_clcd_putch
  5281                           
  5282                           ;digital_alarm_clock_def.c: 838:             clcd_putch(' ', (0x80 + 7));
  5283  03BA  3087               	movlw	135
  5284  03BB  1283               	bcf	3,5	;RP0=0, select bank0
  5285  03BC  1303               	bcf	3,6	;RP1=0, select bank0
  5286  03BD  00D7               	movwf	??_set_event
  5287  03BE  0857               	movf	??_set_event,w
  5288  03BF  00CC               	movwf	clcd_putch@addr
  5289  03C0  3020               	movlw	32
  5290  03C1  120A  118A  27EA  120A  118A  	fcall	_clcd_putch
  5291  03C6  2C26               	goto	l5594
  5292  03C7                     l5592:
  5293                           
  5294                           ;digital_alarm_clock_def.c: 842:     {;digital_alarm_clock_def.c: 843:         new_event
      +                          [0] = (hour / 10) % 10 + '0';
  5295  03C7  300A               	movlw	10
  5296  03C8  00D0               	movwf	___awmod@divisor
  5297  03C9  3000               	movlw	0
  5298  03CA  00D1               	movwf	___awmod@divisor+1
  5299  03CB  300A               	movlw	10
  5300  03CC  00C8               	movwf	___awdiv@divisor
  5301  03CD  3000               	movlw	0
  5302  03CE  00C9               	movwf	___awdiv@divisor+1
  5303  03CF  083A               	movf	_hour,w
  5304  03D0  00D7               	movwf	??_set_event
  5305  03D1  01D8               	clrf	??_set_event+1
  5306  03D2  0857               	movf	??_set_event,w
  5307  03D3  00CA               	movwf	___awdiv@dividend
  5308  03D4  0858               	movf	??_set_event+1,w
  5309  03D5  00CB               	movwf	___awdiv@dividend+1
  5310  03D6  160A  158A  2797  120A  118A  	fcall	___awdiv
  5311  03DB  1283               	bcf	3,5	;RP0=0, select bank0
  5312  03DC  1303               	bcf	3,6	;RP1=0, select bank0
  5313  03DD  0849               	movf	?___awdiv+1,w
  5314  03DE  00D3               	movwf	___awmod@dividend+1
  5315  03DF  0848               	movf	?___awdiv,w
  5316  03E0  00D2               	movwf	___awmod@dividend
  5317  03E1  160A  158A  2670  120A  118A  	fcall	___awmod
  5318  03E6  1283               	bcf	3,5	;RP0=0, select bank0
  5319  03E7  1303               	bcf	3,6	;RP1=0, select bank0
  5320  03E8  0850               	movf	?___awmod,w
  5321  03E9  3E30               	addlw	48
  5322  03EA  00D9               	movwf	??_set_event+2
  5323  03EB  0859               	movf	??_set_event+2,w
  5324  03EC  1683               	bsf	3,5	;RP0=1, select bank1
  5325  03ED  1303               	bcf	3,6	;RP1=0, select bank1
  5326  03EE  00CD               	movwf	_new_event^(0+128)
  5327                           
  5328                           ;digital_alarm_clock_def.c: 844:         new_event[1] = (hour / 1) % 10 + '0';
  5329  03EF  300A               	movlw	10
  5330  03F0  1283               	bcf	3,5	;RP0=0, select bank0
  5331  03F1  1303               	bcf	3,6	;RP1=0, select bank0
  5332  03F2  00D0               	movwf	___awmod@divisor
  5333  03F3  3000               	movlw	0
  5334  03F4  00D1               	movwf	___awmod@divisor+1
  5335  03F5  083A               	movf	_hour,w
  5336  03F6  00D7               	movwf	??_set_event
  5337  03F7  01D8               	clrf	??_set_event+1
  5338  03F8  0857               	movf	??_set_event,w
  5339  03F9  00D2               	movwf	___awmod@dividend
  5340  03FA  0858               	movf	??_set_event+1,w
  5341  03FB  00D3               	movwf	___awmod@dividend+1
  5342  03FC  160A  158A  2670  120A  118A  	fcall	___awmod
  5343  0401  1283               	bcf	3,5	;RP0=0, select bank0
  5344  0402  1303               	bcf	3,6	;RP1=0, select bank0
  5345  0403  0850               	movf	?___awmod,w
  5346  0404  3E30               	addlw	48
  5347  0405  00D9               	movwf	??_set_event+2
  5348  0406  0859               	movf	??_set_event+2,w
  5349  0407  1683               	bsf	3,5	;RP0=1, select bank1
  5350  0408  1303               	bcf	3,6	;RP1=0, select bank1
  5351  0409  00CE               	movwf	(_new_event^(0+128)+1)
  5352                           
  5353                           ;digital_alarm_clock_def.c: 845:         clcd_putch(new_event[0], (0x80 + 6));
  5354  040A  3086               	movlw	134
  5355  040B  1283               	bcf	3,5	;RP0=0, select bank0
  5356  040C  1303               	bcf	3,6	;RP1=0, select bank0
  5357  040D  00D7               	movwf	??_set_event
  5358  040E  0857               	movf	??_set_event,w
  5359  040F  00CC               	movwf	clcd_putch@addr
  5360  0410  1683               	bsf	3,5	;RP0=1, select bank1
  5361  0411  1303               	bcf	3,6	;RP1=0, select bank1
  5362  0412  084D               	movf	_new_event^(0+128),w
  5363  0413  120A  118A  27EA  120A  118A  	fcall	_clcd_putch
  5364                           
  5365                           ;digital_alarm_clock_def.c: 846:         clcd_putch(new_event[1], (0x80 + 7));
  5366  0418  3087               	movlw	135
  5367  0419  1283               	bcf	3,5	;RP0=0, select bank0
  5368  041A  1303               	bcf	3,6	;RP1=0, select bank0
  5369  041B  00D7               	movwf	??_set_event
  5370  041C  0857               	movf	??_set_event,w
  5371  041D  00CC               	movwf	clcd_putch@addr
  5372  041E  1683               	bsf	3,5	;RP0=1, select bank1
  5373  041F  1303               	bcf	3,6	;RP1=0, select bank1
  5374  0420  084E               	movf	(_new_event^(0+128)+1),w
  5375  0421  120A  118A  27EA  120A  118A  	fcall	_clcd_putch
  5376  0426                     l5594:
  5377                           
  5378                           ;digital_alarm_clock_def.c: 849:     if(duration_flag)
  5379  0426  1283               	bcf	3,5	;RP0=0, select bank0
  5380  0427  1303               	bcf	3,6	;RP1=0, select bank0
  5381  0428  0826               	movf	set_event@duration_flag,w
  5382  0429  1903               	btfsc	3,2
  5383  042A  2C2C               	goto	u6141
  5384  042B  2C2D               	goto	u6140
  5385  042C                     u6141:
  5386  042C  2CA9               	goto	l5602
  5387  042D                     u6140:
  5388  042D                     l5596:
  5389                           
  5390                           ;digital_alarm_clock_def.c: 850:     {;digital_alarm_clock_def.c: 851:         if(flag)
  5391  042D  0827               	movf	set_event@flag,w
  5392  042E  1903               	btfsc	3,2
  5393  042F  2C31               	goto	u6151
  5394  0430  2C32               	goto	u6150
  5395  0431                     u6151:
  5396  0431  2C92               	goto	l5600
  5397  0432                     u6150:
  5398  0432                     l5598:
  5399                           
  5400                           ;digital_alarm_clock_def.c: 852:         {;digital_alarm_clock_def.c: 853:             n
      +                          ew_event[6] = (duration / 10) % 10 + '0';
  5401  0432  300A               	movlw	10
  5402  0433  00D0               	movwf	___awmod@divisor
  5403  0434  3000               	movlw	0
  5404  0435  00D1               	movwf	___awmod@divisor+1
  5405  0436  300A               	movlw	10
  5406  0437  00C8               	movwf	___awdiv@divisor
  5407  0438  3000               	movlw	0
  5408  0439  00C9               	movwf	___awdiv@divisor+1
  5409  043A  0823               	movf	set_event@duration,w
  5410  043B  00D7               	movwf	??_set_event
  5411  043C  01D8               	clrf	??_set_event+1
  5412  043D  0857               	movf	??_set_event,w
  5413  043E  00CA               	movwf	___awdiv@dividend
  5414  043F  0858               	movf	??_set_event+1,w
  5415  0440  00CB               	movwf	___awdiv@dividend+1
  5416  0441  160A  158A  2797  120A  118A  	fcall	___awdiv
  5417  0446  1283               	bcf	3,5	;RP0=0, select bank0
  5418  0447  1303               	bcf	3,6	;RP1=0, select bank0
  5419  0448  0849               	movf	?___awdiv+1,w
  5420  0449  00D3               	movwf	___awmod@dividend+1
  5421  044A  0848               	movf	?___awdiv,w
  5422  044B  00D2               	movwf	___awmod@dividend
  5423  044C  160A  158A  2670  120A  118A  	fcall	___awmod
  5424  0451  1283               	bcf	3,5	;RP0=0, select bank0
  5425  0452  1303               	bcf	3,6	;RP1=0, select bank0
  5426  0453  0850               	movf	?___awmod,w
  5427  0454  3E30               	addlw	48
  5428  0455  00D9               	movwf	??_set_event+2
  5429  0456  0859               	movf	??_set_event+2,w
  5430  0457  1683               	bsf	3,5	;RP0=1, select bank1
  5431  0458  1303               	bcf	3,6	;RP1=0, select bank1
  5432  0459  00D3               	movwf	(_new_event^(0+128)+6)
  5433                           
  5434                           ;digital_alarm_clock_def.c: 854:             new_event[7] = (duration / 1) % 10 + '0';
  5435  045A  300A               	movlw	10
  5436  045B  1283               	bcf	3,5	;RP0=0, select bank0
  5437  045C  1303               	bcf	3,6	;RP1=0, select bank0
  5438  045D  00D0               	movwf	___awmod@divisor
  5439  045E  3000               	movlw	0
  5440  045F  00D1               	movwf	___awmod@divisor+1
  5441  0460  0823               	movf	set_event@duration,w
  5442  0461  00D7               	movwf	??_set_event
  5443  0462  01D8               	clrf	??_set_event+1
  5444  0463  0857               	movf	??_set_event,w
  5445  0464  00D2               	movwf	___awmod@dividend
  5446  0465  0858               	movf	??_set_event+1,w
  5447  0466  00D3               	movwf	___awmod@dividend+1
  5448  0467  160A  158A  2670  120A  118A  	fcall	___awmod
  5449  046C  1283               	bcf	3,5	;RP0=0, select bank0
  5450  046D  1303               	bcf	3,6	;RP1=0, select bank0
  5451  046E  0850               	movf	?___awmod,w
  5452  046F  3E30               	addlw	48
  5453  0470  00D9               	movwf	??_set_event+2
  5454  0471  0859               	movf	??_set_event+2,w
  5455  0472  1683               	bsf	3,5	;RP0=1, select bank1
  5456  0473  1303               	bcf	3,6	;RP1=0, select bank1
  5457  0474  00D4               	movwf	(_new_event^(0+128)+7)
  5458                           
  5459                           ;digital_alarm_clock_def.c: 855:             clcd_putch(new_event[6], (0xC0 + 9));
  5460  0475  30C9               	movlw	201
  5461  0476  1283               	bcf	3,5	;RP0=0, select bank0
  5462  0477  1303               	bcf	3,6	;RP1=0, select bank0
  5463  0478  00D7               	movwf	??_set_event
  5464  0479  0857               	movf	??_set_event,w
  5465  047A  00CC               	movwf	clcd_putch@addr
  5466  047B  1683               	bsf	3,5	;RP0=1, select bank1
  5467  047C  1303               	bcf	3,6	;RP1=0, select bank1
  5468  047D  0853               	movf	(_new_event^(0+128)+6),w
  5469  047E  120A  118A  27EA  120A  118A  	fcall	_clcd_putch
  5470                           
  5471                           ;digital_alarm_clock_def.c: 856:             clcd_putch(new_event[7], (0xC0 + 10));
  5472  0483  30CA               	movlw	202
  5473  0484  1283               	bcf	3,5	;RP0=0, select bank0
  5474  0485  1303               	bcf	3,6	;RP1=0, select bank0
  5475  0486  00D7               	movwf	??_set_event
  5476  0487  0857               	movf	??_set_event,w
  5477  0488  00CC               	movwf	clcd_putch@addr
  5478  0489  1683               	bsf	3,5	;RP0=1, select bank1
  5479  048A  1303               	bcf	3,6	;RP1=0, select bank1
  5480  048B  0854               	movf	(_new_event^(0+128)+7),w
  5481  048C  120A  118A  27EA  120A  118A  	fcall	_clcd_putch
  5482                           
  5483                           ;digital_alarm_clock_def.c: 857:         }
  5484  0491  2D08               	goto	l5604
  5485  0492                     l5600:
  5486                           
  5487                           ;digital_alarm_clock_def.c: 859:         {;digital_alarm_clock_def.c: 860:             c
      +                          lcd_putch(' ', (0xC0 + 9));
  5488  0492  30C9               	movlw	201
  5489  0493  00D7               	movwf	??_set_event
  5490  0494  0857               	movf	??_set_event,w
  5491  0495  00CC               	movwf	clcd_putch@addr
  5492  0496  3020               	movlw	32
  5493  0497  120A  118A  27EA  120A  118A  	fcall	_clcd_putch
  5494                           
  5495                           ;digital_alarm_clock_def.c: 861:             clcd_putch(' ', (0xC0 + 10));
  5496  049C  30CA               	movlw	202
  5497  049D  1283               	bcf	3,5	;RP0=0, select bank0
  5498  049E  1303               	bcf	3,6	;RP1=0, select bank0
  5499  049F  00D7               	movwf	??_set_event
  5500  04A0  0857               	movf	??_set_event,w
  5501  04A1  00CC               	movwf	clcd_putch@addr
  5502  04A2  3020               	movlw	32
  5503  04A3  120A  118A  27EA  120A  118A  	fcall	_clcd_putch
  5504  04A8  2D08               	goto	l5604
  5505  04A9                     l5602:
  5506                           
  5507                           ;digital_alarm_clock_def.c: 865:     {;digital_alarm_clock_def.c: 866:         new_event
      +                          [6] = (duration / 10) % 10 + '0';
  5508  04A9  300A               	movlw	10
  5509  04AA  00D0               	movwf	___awmod@divisor
  5510  04AB  3000               	movlw	0
  5511  04AC  00D1               	movwf	___awmod@divisor+1
  5512  04AD  300A               	movlw	10
  5513  04AE  00C8               	movwf	___awdiv@divisor
  5514  04AF  3000               	movlw	0
  5515  04B0  00C9               	movwf	___awdiv@divisor+1
  5516  04B1  0823               	movf	set_event@duration,w
  5517  04B2  00D7               	movwf	??_set_event
  5518  04B3  01D8               	clrf	??_set_event+1
  5519  04B4  0857               	movf	??_set_event,w
  5520  04B5  00CA               	movwf	___awdiv@dividend
  5521  04B6  0858               	movf	??_set_event+1,w
  5522  04B7  00CB               	movwf	___awdiv@dividend+1
  5523  04B8  160A  158A  2797  120A  118A  	fcall	___awdiv
  5524  04BD  1283               	bcf	3,5	;RP0=0, select bank0
  5525  04BE  1303               	bcf	3,6	;RP1=0, select bank0
  5526  04BF  0849               	movf	?___awdiv+1,w
  5527  04C0  00D3               	movwf	___awmod@dividend+1
  5528  04C1  0848               	movf	?___awdiv,w
  5529  04C2  00D2               	movwf	___awmod@dividend
  5530  04C3  160A  158A  2670  120A  118A  	fcall	___awmod
  5531  04C8  1283               	bcf	3,5	;RP0=0, select bank0
  5532  04C9  1303               	bcf	3,6	;RP1=0, select bank0
  5533  04CA  0850               	movf	?___awmod,w
  5534  04CB  3E30               	addlw	48
  5535  04CC  00D9               	movwf	??_set_event+2
  5536  04CD  0859               	movf	??_set_event+2,w
  5537  04CE  1683               	bsf	3,5	;RP0=1, select bank1
  5538  04CF  1303               	bcf	3,6	;RP1=0, select bank1
  5539  04D0  00D3               	movwf	(_new_event^(0+128)+6)
  5540                           
  5541                           ;digital_alarm_clock_def.c: 867:         new_event[7] = (duration / 1) % 10 + '0';
  5542  04D1  300A               	movlw	10
  5543  04D2  1283               	bcf	3,5	;RP0=0, select bank0
  5544  04D3  1303               	bcf	3,6	;RP1=0, select bank0
  5545  04D4  00D0               	movwf	___awmod@divisor
  5546  04D5  3000               	movlw	0
  5547  04D6  00D1               	movwf	___awmod@divisor+1
  5548  04D7  0823               	movf	set_event@duration,w
  5549  04D8  00D7               	movwf	??_set_event
  5550  04D9  01D8               	clrf	??_set_event+1
  5551  04DA  0857               	movf	??_set_event,w
  5552  04DB  00D2               	movwf	___awmod@dividend
  5553  04DC  0858               	movf	??_set_event+1,w
  5554  04DD  00D3               	movwf	___awmod@dividend+1
  5555  04DE  160A  158A  2670  120A  118A  	fcall	___awmod
  5556  04E3  1283               	bcf	3,5	;RP0=0, select bank0
  5557  04E4  1303               	bcf	3,6	;RP1=0, select bank0
  5558  04E5  0850               	movf	?___awmod,w
  5559  04E6  3E30               	addlw	48
  5560  04E7  00D9               	movwf	??_set_event+2
  5561  04E8  0859               	movf	??_set_event+2,w
  5562  04E9  1683               	bsf	3,5	;RP0=1, select bank1
  5563  04EA  1303               	bcf	3,6	;RP1=0, select bank1
  5564  04EB  00D4               	movwf	(_new_event^(0+128)+7)
  5565                           
  5566                           ;digital_alarm_clock_def.c: 868:         clcd_putch(new_event[6], (0xC0 + 9));
  5567  04EC  30C9               	movlw	201
  5568  04ED  1283               	bcf	3,5	;RP0=0, select bank0
  5569  04EE  1303               	bcf	3,6	;RP1=0, select bank0
  5570  04EF  00D7               	movwf	??_set_event
  5571  04F0  0857               	movf	??_set_event,w
  5572  04F1  00CC               	movwf	clcd_putch@addr
  5573  04F2  1683               	bsf	3,5	;RP0=1, select bank1
  5574  04F3  1303               	bcf	3,6	;RP1=0, select bank1
  5575  04F4  0853               	movf	(_new_event^(0+128)+6),w
  5576  04F5  120A  118A  27EA  120A  118A  	fcall	_clcd_putch
  5577                           
  5578                           ;digital_alarm_clock_def.c: 869:         clcd_putch(new_event[7], (0xC0 + 10));
  5579  04FA  30CA               	movlw	202
  5580  04FB  1283               	bcf	3,5	;RP0=0, select bank0
  5581  04FC  1303               	bcf	3,6	;RP1=0, select bank0
  5582  04FD  00D7               	movwf	??_set_event
  5583  04FE  0857               	movf	??_set_event,w
  5584  04FF  00CC               	movwf	clcd_putch@addr
  5585  0500  1683               	bsf	3,5	;RP0=1, select bank1
  5586  0501  1303               	bcf	3,6	;RP1=0, select bank1
  5587  0502  0854               	movf	(_new_event^(0+128)+7),w
  5588  0503  120A  118A  27EA  120A  118A  	fcall	_clcd_putch
  5589  0508                     l5604:
  5590                           
  5591                           ;digital_alarm_clock_def.c: 872:     if(times_flag)
  5592  0508  1283               	bcf	3,5	;RP0=0, select bank0
  5593  0509  1303               	bcf	3,6	;RP1=0, select bank0
  5594  050A  0825               	movf	set_event@times_flag,w
  5595  050B  1903               	btfsc	3,2
  5596  050C  2D0E               	goto	u6161
  5597  050D  2D0F               	goto	u6160
  5598  050E                     u6161:
  5599  050E  2D3B               	goto	l5614
  5600  050F                     u6160:
  5601  050F                     l5606:
  5602                           
  5603                           ;digital_alarm_clock_def.c: 873:     {;digital_alarm_clock_def.c: 874:         if(flag)
  5604  050F  0827               	movf	set_event@flag,w
  5605  0510  1903               	btfsc	3,2
  5606  0511  2D13               	goto	u6171
  5607  0512  2D14               	goto	u6170
  5608  0513                     u6171:
  5609  0513  2D30               	goto	l5612
  5610  0514                     u6170:
  5611  0514                     l5608:
  5612                           
  5613                           ;digital_alarm_clock_def.c: 875:         {;digital_alarm_clock_def.c: 876:             n
      +                          ew_event[8] = times[i];
  5614  0514  0824               	movf	set_event@i,w
  5615  0515  3E01               	addlw	low ((_times-__stringbase)| (0+32768))
  5616  0516  0084               	movwf	4
  5617  0517  160A  118A  200A  120A  118A  	fcall	stringdir
  5618  051C  00D7               	movwf	??_set_event
  5619  051D  0857               	movf	??_set_event,w
  5620  051E  1683               	bsf	3,5	;RP0=1, select bank1
  5621  051F  1303               	bcf	3,6	;RP1=0, select bank1
  5622  0520  00D5               	movwf	(_new_event^(0+128)+8)
  5623  0521                     l5610:
  5624                           
  5625                           ;digital_alarm_clock_def.c: 877:             clcd_putch(new_event[8], (0xC0 + 15));
  5626  0521  30CF               	movlw	207
  5627  0522  1283               	bcf	3,5	;RP0=0, select bank0
  5628  0523  1303               	bcf	3,6	;RP1=0, select bank0
  5629  0524  00D7               	movwf	??_set_event
  5630  0525  0857               	movf	??_set_event,w
  5631  0526  00CC               	movwf	clcd_putch@addr
  5632  0527  1683               	bsf	3,5	;RP0=1, select bank1
  5633  0528  1303               	bcf	3,6	;RP1=0, select bank1
  5634  0529  0855               	movf	(_new_event^(0+128)+8),w
  5635  052A  120A  118A  27EA  120A  118A  	fcall	_clcd_putch
  5636                           
  5637                           ;digital_alarm_clock_def.c: 878:         }
  5638  052F  2D56               	goto	l5618
  5639  0530                     l5612:
  5640                           
  5641                           ;digital_alarm_clock_def.c: 880:         {;digital_alarm_clock_def.c: 881:             c
      +                          lcd_putch(' ', (0xC0 + 15));
  5642  0530  30CF               	movlw	207
  5643  0531  00D7               	movwf	??_set_event
  5644  0532  0857               	movf	??_set_event,w
  5645  0533  00CC               	movwf	clcd_putch@addr
  5646  0534  3020               	movlw	32
  5647  0535  120A  118A  27EA  120A  118A  	fcall	_clcd_putch
  5648  053A  2D56               	goto	l5618
  5649  053B                     l5614:
  5650                           
  5651                           ;digital_alarm_clock_def.c: 885:     {;digital_alarm_clock_def.c: 886:         new_event
      +                          [8] = times[i];
  5652  053B  0824               	movf	set_event@i,w
  5653  053C  3E01               	addlw	low ((_times-__stringbase)| (0+32768))
  5654  053D  0084               	movwf	4
  5655  053E  160A  118A  200A  120A  118A  	fcall	stringdir
  5656  0543  00D7               	movwf	??_set_event
  5657  0544  0857               	movf	??_set_event,w
  5658  0545  1683               	bsf	3,5	;RP0=1, select bank1
  5659  0546  1303               	bcf	3,6	;RP1=0, select bank1
  5660  0547  00D5               	movwf	(_new_event^(0+128)+8)
  5661  0548                     l5616:
  5662                           
  5663                           ;digital_alarm_clock_def.c: 887:         clcd_putch(new_event[8], (0xC0 + 15));
  5664  0548  30CF               	movlw	207
  5665  0549  1283               	bcf	3,5	;RP0=0, select bank0
  5666  054A  1303               	bcf	3,6	;RP1=0, select bank0
  5667  054B  00D7               	movwf	??_set_event
  5668  054C  0857               	movf	??_set_event,w
  5669  054D  00CC               	movwf	clcd_putch@addr
  5670  054E  1683               	bsf	3,5	;RP0=1, select bank1
  5671  054F  1303               	bcf	3,6	;RP1=0, select bank1
  5672  0550  0855               	movf	(_new_event^(0+128)+8),w
  5673  0551  120A  118A  27EA  120A  118A  	fcall	_clcd_putch
  5674  0556                     l5618:
  5675                           
  5676                           ;digital_alarm_clock_def.c: 889:     new_event[9] = date[9];
  5677  0556  1683               	bsf	3,5	;RP0=1, select bank1
  5678  0557  1303               	bcf	3,6	;RP1=0, select bank1
  5679  0558  084C               	movf	(_date^(0+128)+9),w
  5680  0559  1283               	bcf	3,5	;RP0=0, select bank0
  5681  055A  1303               	bcf	3,6	;RP1=0, select bank0
  5682  055B  00D7               	movwf	??_set_event
  5683  055C  0857               	movf	??_set_event,w
  5684  055D  1683               	bsf	3,5	;RP0=1, select bank1
  5685  055E  1303               	bcf	3,6	;RP1=0, select bank1
  5686  055F  00D6               	movwf	(_new_event^(0+128)+9)
  5687  0560                     l5620:
  5688                           
  5689                           ;digital_alarm_clock_def.c: 890:     new_event[10] = '\0';
  5690  0560  01D7               	clrf	(_new_event^(0+128)+10)
  5691  0561                     l5622:
  5692                           
  5693                           ;digital_alarm_clock_def.c: 894:     clcd_putch(':', (0x80 + 8));
  5694  0561  3088               	movlw	136
  5695  0562  1283               	bcf	3,5	;RP0=0, select bank0
  5696  0563  1303               	bcf	3,6	;RP1=0, select bank0
  5697  0564  00D7               	movwf	??_set_event
  5698  0565  0857               	movf	??_set_event,w
  5699  0566  00CC               	movwf	clcd_putch@addr
  5700  0567  303A               	movlw	58
  5701  0568  120A  118A  27EA  120A  118A  	fcall	_clcd_putch
  5702  056D                     l5624:
  5703                           
  5704                           ;digital_alarm_clock_def.c: 895:     clcd_putch(' ', (0x80 + 11));
  5705  056D  308B               	movlw	139
  5706  056E  1283               	bcf	3,5	;RP0=0, select bank0
  5707  056F  1303               	bcf	3,6	;RP1=0, select bank0
  5708  0570  00D7               	movwf	??_set_event
  5709  0571  0857               	movf	??_set_event,w
  5710  0572  00CC               	movwf	clcd_putch@addr
  5711  0573  3020               	movlw	32
  5712  0574  120A  118A  27EA  120A  118A  	fcall	_clcd_putch
  5713  0579                     l5626:
  5714                           
  5715                           ;digital_alarm_clock_def.c: 896:     clcd_putch(0x2F, (0x80 + 15));
  5716  0579  308F               	movlw	143
  5717  057A  1283               	bcf	3,5	;RP0=0, select bank0
  5718  057B  1303               	bcf	3,6	;RP1=0, select bank0
  5719  057C  00D7               	movwf	??_set_event
  5720  057D  0857               	movf	??_set_event,w
  5721  057E  00CC               	movwf	clcd_putch@addr
  5722  057F  302F               	movlw	47
  5723  0580  120A  118A  27EA  120A  118A  	fcall	_clcd_putch
  5724  0585                     l5628:
  5725                           
  5726                           ;digital_alarm_clock_def.c: 897:     clcd_putch('0', (0xC0 + 6));
  5727  0585  30C6               	movlw	198
  5728  0586  1283               	bcf	3,5	;RP0=0, select bank0
  5729  0587  1303               	bcf	3,6	;RP1=0, select bank0
  5730  0588  00D7               	movwf	??_set_event
  5731  0589  0857               	movf	??_set_event,w
  5732  058A  00CC               	movwf	clcd_putch@addr
  5733  058B  3030               	movlw	48
  5734  058C  120A  118A  27EA  120A  118A  	fcall	_clcd_putch
  5735  0591                     l5630:
  5736                           
  5737                           ;digital_alarm_clock_def.c: 898:     clcd_putch('0', (0xC0 + 7));
  5738  0591  30C7               	movlw	199
  5739  0592  1283               	bcf	3,5	;RP0=0, select bank0
  5740  0593  1303               	bcf	3,6	;RP1=0, select bank0
  5741  0594  00D7               	movwf	??_set_event
  5742  0595  0857               	movf	??_set_event,w
  5743  0596  00CC               	movwf	clcd_putch@addr
  5744  0597  3030               	movlw	48
  5745  0598  120A  118A  27EA  120A  118A  	fcall	_clcd_putch
  5746  059D                     l5632:
  5747                           
  5748                           ;digital_alarm_clock_def.c: 899:     clcd_putch(':', (0xC0 + 8));
  5749  059D  30C8               	movlw	200
  5750  059E  1283               	bcf	3,5	;RP0=0, select bank0
  5751  059F  1303               	bcf	3,6	;RP1=0, select bank0
  5752  05A0  00D7               	movwf	??_set_event
  5753  05A1  0857               	movf	??_set_event,w
  5754  05A2  00CC               	movwf	clcd_putch@addr
  5755  05A3  303A               	movlw	58
  5756  05A4  120A  118A  27EA  120A  118A  	fcall	_clcd_putch
  5757  05A9                     l5634:
  5758                           
  5759                           ;digital_alarm_clock_def.c: 900:     clcd_putch(':', (0xC0 + 11));
  5760  05A9  30CB               	movlw	203
  5761  05AA  1283               	bcf	3,5	;RP0=0, select bank0
  5762  05AB  1303               	bcf	3,6	;RP1=0, select bank0
  5763  05AC  00D7               	movwf	??_set_event
  5764  05AD  0857               	movf	??_set_event,w
  5765  05AE  00CC               	movwf	clcd_putch@addr
  5766  05AF  303A               	movlw	58
  5767  05B0  120A  118A  27EA  120A  118A  	fcall	_clcd_putch
  5768  05B5                     l5636:
  5769                           
  5770                           ;digital_alarm_clock_def.c: 901:     clcd_putch('0', (0xC0 + 12));
  5771  05B5  30CC               	movlw	204
  5772  05B6  1283               	bcf	3,5	;RP0=0, select bank0
  5773  05B7  1303               	bcf	3,6	;RP1=0, select bank0
  5774  05B8  00D7               	movwf	??_set_event
  5775  05B9  0857               	movf	??_set_event,w
  5776  05BA  00CC               	movwf	clcd_putch@addr
  5777  05BB  3030               	movlw	48
  5778  05BC  120A  118A  27EA  120A  118A  	fcall	_clcd_putch
  5779  05C1                     l5638:
  5780                           
  5781                           ;digital_alarm_clock_def.c: 902:     clcd_putch('0', (0xC0 + 13));
  5782  05C1  30CD               	movlw	205
  5783  05C2  1283               	bcf	3,5	;RP0=0, select bank0
  5784  05C3  1303               	bcf	3,6	;RP1=0, select bank0
  5785  05C4  00D7               	movwf	??_set_event
  5786  05C5  0857               	movf	??_set_event,w
  5787  05C6  00CC               	movwf	clcd_putch@addr
  5788  05C7  3030               	movlw	48
  5789  05C8  120A  118A  27EA  120A  118A  	fcall	_clcd_putch
  5790  05CD                     l5640:
  5791                           
  5792                           ;digital_alarm_clock_def.c: 906:     if(delay++ == 8)
  5793  05CD  3001               	movlw	1
  5794  05CE  1283               	bcf	3,5	;RP0=0, select bank0
  5795  05CF  1303               	bcf	3,6	;RP1=0, select bank0
  5796  05D0  00D7               	movwf	??_set_event
  5797  05D1  0857               	movf	??_set_event,w
  5798  05D2  1683               	bsf	3,5	;RP0=1, select bank1
  5799  05D3  1303               	bcf	3,6	;RP1=0, select bank1
  5800  05D4  07C0               	addwf	set_event@delay^(0+128),f
  5801  05D5  3009               	movlw	9
  5802  05D6  0640               	xorwf	set_event@delay^(0+128),w
  5803  05D7  1D03               	btfss	3,2
  5804  05D8  2DDA               	goto	u6181
  5805  05D9  2DDB               	goto	u6180
  5806  05DA                     u6181:
  5807  05DA  2DE8               	goto	l607
  5808  05DB                     u6180:
  5809  05DB                     l5642:
  5810                           
  5811                           ;digital_alarm_clock_def.c: 907:     {;digital_alarm_clock_def.c: 908:         delay = 0
      +                          ;
  5812  05DB  01C0               	clrf	set_event@delay^(0+128)
  5813  05DC                     l5644:
  5814                           
  5815                           ;digital_alarm_clock_def.c: 909:         flag = !flag;
  5816  05DC  1283               	bcf	3,5	;RP0=0, select bank0
  5817  05DD  1303               	bcf	3,6	;RP1=0, select bank0
  5818  05DE  0827               	movf	set_event@flag,w
  5819  05DF  1903               	btfsc	3,2
  5820  05E0  2DE2               	goto	u6191
  5821  05E1  2DE4               	goto	u6190
  5822  05E2                     u6191:
  5823  05E2  3001               	movlw	1
  5824  05E3  2DE5               	goto	u6200
  5825  05E4                     u6190:
  5826  05E4  3000               	movlw	0
  5827  05E5                     u6200:
  5828  05E5  00D7               	movwf	??_set_event
  5829  05E6  0857               	movf	??_set_event,w
  5830  05E7  00A7               	movwf	set_event@flag
  5831  05E8                     l607:
  5832  05E8  0008               	return
  5833  05E9                     __end_of_set_event:
  5834                           
  5835                           	psect	text3
  5836  0905                     __ptext3:	
  5837 ;; *************** function _set_date *****************
  5838 ;; Defined at:
  5839 ;;		line 461 in file "digital_alarm_clock_def.c"
  5840 ;; Parameters:    Size  Location     Type
  5841 ;;  reset_flag      1    wreg     unsigned char 
  5842 ;;  key             1   14[BANK0 ] unsigned char 
  5843 ;; Auto vars:     Size  Location     Type
  5844 ;;  reset_flag      1   18[BANK0 ] unsigned char 
  5845 ;; Return value:  Size  Location     Type
  5846 ;;                  1    wreg      void 
  5847 ;; Registers used:
  5848 ;;		wreg, fsr0l, fsr0h, status,2, status,0, btemp+1, pclath, cstack
  5849 ;; Tracked objects:
  5850 ;;		On entry : 0/0
  5851 ;;		On exit  : 0/0
  5852 ;;		Unchanged: 0/0
  5853 ;; Data sizes:     COMMON   BANK0   BANK1   BANK3   BANK2
  5854 ;;      Params:         0       1       0       0       0
  5855 ;;      Locals:         0       1       0       0       0
  5856 ;;      Temps:          0       3       0       0       0
  5857 ;;      Totals:         0       5       0       0       0
  5858 ;;Total ram usage:        5 bytes
  5859 ;; Hardware stack levels used: 1
  5860 ;; Hardware stack levels required when called: 6
  5861 ;; This function calls:
  5862 ;;		___awdiv
  5863 ;;		___awmod
  5864 ;;		___bmul
  5865 ;;		_clcd_print
  5866 ;;		_clcd_putch
  5867 ;;		_clear_screen
  5868 ;;		_get_date
  5869 ;; This function is called by:
  5870 ;;		_main
  5871 ;; This function uses a non-reentrant model
  5872 ;;
  5873                           
  5874                           
  5875                           ;psect for function _set_date
  5876  0905                     _set_date:
  5877                           
  5878                           ;incstack = 0
  5879                           ; Regs used in _set_date: [wreg-fsr0h+status,2+status,0+btemp+1+pclath+cstack]
  5880                           ;set_date@reset_flag stored from wreg
  5881  0905  1283               	bcf	3,5	;RP0=0, select bank0
  5882  0906  1303               	bcf	3,6	;RP1=0, select bank0
  5883  0907  00DA               	movwf	set_date@reset_flag
  5884  0908                     l5284:
  5885                           
  5886                           ;digital_alarm_clock_def.c: 461: void set_date(unsigned char reset_flag, unsigned char k
      +                          ey);digital_alarm_clock_def.c: 462: {;digital_alarm_clock_def.c: 463:     static unsigne
      +                          d char day_flag, month_flag, year_flag, delay, flag;;digital_alarm_clock_def.c: 465:    
      +                           static char new_date[7];;digital_alarm_clock_def.c: 466:     if(reset_flag == 0x16)
  5887  0908  3016               	movlw	22
  5888  0909  065A               	xorwf	set_date@reset_flag,w
  5889  090A  1D03               	btfss	3,2
  5890  090B  290D               	goto	u5591
  5891  090C  290E               	goto	u5590
  5892  090D                     u5591:
  5893  090D  2A36               	goto	l5338
  5894  090E                     u5590:
  5895  090E                     l5286:
  5896                           
  5897                           ;digital_alarm_clock_def.c: 467:     {;digital_alarm_clock_def.c: 468:         key = 0x3
      +                          F;
  5898  090E  303F               	movlw	63
  5899  090F  00D7               	movwf	??_set_date
  5900  0910  0857               	movf	??_set_date,w
  5901  0911  00D6               	movwf	set_date@key
  5902  0912                     l5288:
  5903                           
  5904                           ;digital_alarm_clock_def.c: 469:         day_flag = 1;
  5905  0912  01AE               	clrf	set_date@day_flag
  5906  0913  0AAE               	incf	set_date@day_flag,f
  5907  0914                     l5290:
  5908                           
  5909                           ;digital_alarm_clock_def.c: 470:         month_flag = 0;
  5910  0914  01AD               	clrf	set_date@month_flag
  5911  0915                     l5292:
  5912                           
  5913                           ;digital_alarm_clock_def.c: 471:         year_flag = 0;
  5914  0915  01AC               	clrf	set_date@year_flag
  5915  0916                     l5294:
  5916                           
  5917                           ;digital_alarm_clock_def.c: 472:         delay = 0;
  5918  0916  1683               	bsf	3,5	;RP0=1, select bank1
  5919  0917  1303               	bcf	3,6	;RP1=0, select bank1
  5920  0918  01C1               	clrf	set_date@delay^(0+128)
  5921  0919                     l5296:
  5922                           
  5923                           ;digital_alarm_clock_def.c: 473:         clear_screen();
  5924  0919  160A  158A  2379  120A  158A  	fcall	_clear_screen
  5925  091E                     l5298:
  5926                           
  5927                           ;digital_alarm_clock_def.c: 474:         clcd_print("    DD-MM-YY    ", (0x80 + 0));
  5928  091E  3016               	movlw	(low ((STR_14-__stringbase)| (0+32768)))& (0+255)
  5929  091F  1283               	bcf	3,5	;RP0=0, select bank0
  5930  0920  1303               	bcf	3,6	;RP1=0, select bank0
  5931  0921  00CA               	movwf	clcd_print@str
  5932  0922  3080               	movlw	128
  5933  0923  00CB               	movwf	clcd_print@str+1
  5934  0924  3080               	movlw	128
  5935  0925  00D7               	movwf	??_set_date
  5936  0926  0857               	movf	??_set_date,w
  5937  0927  00CC               	movwf	clcd_print@addr
  5938  0928  160A  158A  24DE  120A  158A  	fcall	_clcd_print
  5939  092D                     l5300:
  5940                           
  5941                           ;digital_alarm_clock_def.c: 475:         get_date();
  5942  092D  160A  158A  257A  120A  158A  	fcall	_get_date
  5943  0932                     l5302:
  5944                           
  5945                           ;digital_alarm_clock_def.c: 479:         date[0] = ((date_reg[0] >> 4) & 0x03) + '0';
  5946  0932  1683               	bsf	3,5	;RP0=1, select bank1
  5947  0933  1303               	bcf	3,6	;RP1=0, select bank1
  5948  0934  0839               	movf	_date_reg^(0+128),w
  5949  0935  1283               	bcf	3,5	;RP0=0, select bank0
  5950  0936  1303               	bcf	3,6	;RP1=0, select bank0
  5951  0937  00D7               	movwf	??_set_date
  5952  0938  3004               	movlw	4
  5953  0939                     u5605:
  5954  0939  1003               	clrc
  5955  093A  0CD7               	rrf	??_set_date,f
  5956  093B  3EFF               	addlw	-1
  5957  093C  1D03               	skipz
  5958  093D  2939               	goto	u5605
  5959  093E  0857               	movf	??_set_date,w
  5960  093F  3903               	andlw	3
  5961  0940  3E30               	addlw	48
  5962  0941  00D8               	movwf	??_set_date+1
  5963  0942  0858               	movf	??_set_date+1,w
  5964  0943  1683               	bsf	3,5	;RP0=1, select bank1
  5965  0944  1303               	bcf	3,6	;RP1=0, select bank1
  5966  0945  00C3               	movwf	_date^(0+128)
  5967  0946                     l5304:
  5968                           
  5969                           ;digital_alarm_clock_def.c: 480:         date[1] = (date_reg[0] & 0x0F) + '0';
  5970  0946  0839               	movf	_date_reg^(0+128),w
  5971  0947  390F               	andlw	15
  5972  0948  3E30               	addlw	48
  5973  0949  1283               	bcf	3,5	;RP0=0, select bank0
  5974  094A  1303               	bcf	3,6	;RP1=0, select bank0
  5975  094B  00D7               	movwf	??_set_date
  5976  094C  0857               	movf	??_set_date,w
  5977  094D  1683               	bsf	3,5	;RP0=1, select bank1
  5978  094E  1303               	bcf	3,6	;RP1=0, select bank1
  5979  094F  00C4               	movwf	(_date^(0+128)+1)
  5980  0950                     l5306:
  5981                           
  5982                           ;digital_alarm_clock_def.c: 483:         date[2] = ((date_reg[1] >> 4) & 0x07) + '0';
  5983  0950  083A               	movf	(_date_reg^(0+128)+1),w
  5984  0951  1283               	bcf	3,5	;RP0=0, select bank0
  5985  0952  1303               	bcf	3,6	;RP1=0, select bank0
  5986  0953  00D7               	movwf	??_set_date
  5987  0954  3004               	movlw	4
  5988  0955                     u5615:
  5989  0955  1003               	clrc
  5990  0956  0CD7               	rrf	??_set_date,f
  5991  0957  3EFF               	addlw	-1
  5992  0958  1D03               	skipz
  5993  0959  2955               	goto	u5615
  5994  095A  0857               	movf	??_set_date,w
  5995  095B  3907               	andlw	7
  5996  095C  3E30               	addlw	48
  5997  095D  00D8               	movwf	??_set_date+1
  5998  095E  0858               	movf	??_set_date+1,w
  5999  095F  1683               	bsf	3,5	;RP0=1, select bank1
  6000  0960  1303               	bcf	3,6	;RP1=0, select bank1
  6001  0961  00C5               	movwf	(_date^(0+128)+2)
  6002  0962                     l5308:
  6003                           
  6004                           ;digital_alarm_clock_def.c: 484:         date[3] = (date_reg[1] & 0x0F) + '0';
  6005  0962  083A               	movf	(_date_reg^(0+128)+1),w
  6006  0963  390F               	andlw	15
  6007  0964  3E30               	addlw	48
  6008  0965  1283               	bcf	3,5	;RP0=0, select bank0
  6009  0966  1303               	bcf	3,6	;RP1=0, select bank0
  6010  0967  00D7               	movwf	??_set_date
  6011  0968  0857               	movf	??_set_date,w
  6012  0969  1683               	bsf	3,5	;RP0=1, select bank1
  6013  096A  1303               	bcf	3,6	;RP1=0, select bank1
  6014  096B  00C6               	movwf	(_date^(0+128)+3)
  6015  096C                     l5310:
  6016                           
  6017                           ;digital_alarm_clock_def.c: 487:         date[4] = ((date_reg[2] >> 4) & 0x07) + '0';
  6018  096C  083B               	movf	(_date_reg^(0+128)+2),w
  6019  096D  1283               	bcf	3,5	;RP0=0, select bank0
  6020  096E  1303               	bcf	3,6	;RP1=0, select bank0
  6021  096F  00D7               	movwf	??_set_date
  6022  0970  3004               	movlw	4
  6023  0971                     u5625:
  6024  0971  1003               	clrc
  6025  0972  0CD7               	rrf	??_set_date,f
  6026  0973  3EFF               	addlw	-1
  6027  0974  1D03               	skipz
  6028  0975  2971               	goto	u5625
  6029  0976  0857               	movf	??_set_date,w
  6030  0977  3907               	andlw	7
  6031  0978  3E30               	addlw	48
  6032  0979  00D8               	movwf	??_set_date+1
  6033  097A  0858               	movf	??_set_date+1,w
  6034  097B  1683               	bsf	3,5	;RP0=1, select bank1
  6035  097C  1303               	bcf	3,6	;RP1=0, select bank1
  6036  097D  00C7               	movwf	(_date^(0+128)+4)
  6037  097E                     l5312:
  6038                           
  6039                           ;digital_alarm_clock_def.c: 488:         date[5] = (date_reg[2] & 0x0F) + '0';
  6040  097E  083B               	movf	(_date_reg^(0+128)+2),w
  6041  097F  390F               	andlw	15
  6042  0980  3E30               	addlw	48
  6043  0981  1283               	bcf	3,5	;RP0=0, select bank0
  6044  0982  1303               	bcf	3,6	;RP1=0, select bank0
  6045  0983  00D7               	movwf	??_set_date
  6046  0984  0857               	movf	??_set_date,w
  6047  0985  1683               	bsf	3,5	;RP0=1, select bank1
  6048  0986  1303               	bcf	3,6	;RP1=0, select bank1
  6049  0987  00C8               	movwf	(_date^(0+128)+5)
  6050  0988                     l5314:
  6051                           
  6052                           ;digital_alarm_clock_def.c: 489:         date[6] = '\0';
  6053  0988  01C9               	clrf	(_date^(0+128)+6)
  6054  0989                     l5316:
  6055                           
  6056                           ;digital_alarm_clock_def.c: 491:         clcd_putch(date[0], (0xC0 + 4));
  6057  0989  30C4               	movlw	196
  6058  098A  1283               	bcf	3,5	;RP0=0, select bank0
  6059  098B  1303               	bcf	3,6	;RP1=0, select bank0
  6060  098C  00D7               	movwf	??_set_date
  6061  098D  0857               	movf	??_set_date,w
  6062  098E  00CC               	movwf	clcd_putch@addr
  6063  098F  1683               	bsf	3,5	;RP0=1, select bank1
  6064  0990  1303               	bcf	3,6	;RP1=0, select bank1
  6065  0991  0843               	movf	_date^(0+128),w
  6066  0992  120A  118A  27EA  120A  158A  	fcall	_clcd_putch
  6067  0997                     l5318:
  6068                           
  6069                           ;digital_alarm_clock_def.c: 492:         clcd_putch(date[1], (0xC0 + 5));
  6070  0997  30C5               	movlw	197
  6071  0998  1283               	bcf	3,5	;RP0=0, select bank0
  6072  0999  1303               	bcf	3,6	;RP1=0, select bank0
  6073  099A  00D7               	movwf	??_set_date
  6074  099B  0857               	movf	??_set_date,w
  6075  099C  00CC               	movwf	clcd_putch@addr
  6076  099D  1683               	bsf	3,5	;RP0=1, select bank1
  6077  099E  1303               	bcf	3,6	;RP1=0, select bank1
  6078  099F  0844               	movf	(_date^(0+128)+1),w
  6079  09A0  120A  118A  27EA  120A  158A  	fcall	_clcd_putch
  6080  09A5                     l5320:
  6081                           
  6082                           ;digital_alarm_clock_def.c: 493:         clcd_putch('-', (0xC0 + 6));
  6083  09A5  30C6               	movlw	198
  6084  09A6  1283               	bcf	3,5	;RP0=0, select bank0
  6085  09A7  1303               	bcf	3,6	;RP1=0, select bank0
  6086  09A8  00D7               	movwf	??_set_date
  6087  09A9  0857               	movf	??_set_date,w
  6088  09AA  00CC               	movwf	clcd_putch@addr
  6089  09AB  302D               	movlw	45
  6090  09AC  120A  118A  27EA  120A  158A  	fcall	_clcd_putch
  6091  09B1                     l5322:
  6092                           
  6093                           ;digital_alarm_clock_def.c: 494:         clcd_putch(date[2], (0xC0 + 7));
  6094  09B1  30C7               	movlw	199
  6095  09B2  1283               	bcf	3,5	;RP0=0, select bank0
  6096  09B3  1303               	bcf	3,6	;RP1=0, select bank0
  6097  09B4  00D7               	movwf	??_set_date
  6098  09B5  0857               	movf	??_set_date,w
  6099  09B6  00CC               	movwf	clcd_putch@addr
  6100  09B7  1683               	bsf	3,5	;RP0=1, select bank1
  6101  09B8  1303               	bcf	3,6	;RP1=0, select bank1
  6102  09B9  0845               	movf	(_date^(0+128)+2),w
  6103  09BA  120A  118A  27EA  120A  158A  	fcall	_clcd_putch
  6104  09BF                     l5324:
  6105                           
  6106                           ;digital_alarm_clock_def.c: 495:         clcd_putch(date[3], (0xC0 + 8));
  6107  09BF  30C8               	movlw	200
  6108  09C0  1283               	bcf	3,5	;RP0=0, select bank0
  6109  09C1  1303               	bcf	3,6	;RP1=0, select bank0
  6110  09C2  00D7               	movwf	??_set_date
  6111  09C3  0857               	movf	??_set_date,w
  6112  09C4  00CC               	movwf	clcd_putch@addr
  6113  09C5  1683               	bsf	3,5	;RP0=1, select bank1
  6114  09C6  1303               	bcf	3,6	;RP1=0, select bank1
  6115  09C7  0846               	movf	(_date^(0+128)+3),w
  6116  09C8  120A  118A  27EA  120A  158A  	fcall	_clcd_putch
  6117  09CD                     l5326:
  6118                           
  6119                           ;digital_alarm_clock_def.c: 496:         clcd_putch('-', (0xC0 + 9));
  6120  09CD  30C9               	movlw	201
  6121  09CE  1283               	bcf	3,5	;RP0=0, select bank0
  6122  09CF  1303               	bcf	3,6	;RP1=0, select bank0
  6123  09D0  00D7               	movwf	??_set_date
  6124  09D1  0857               	movf	??_set_date,w
  6125  09D2  00CC               	movwf	clcd_putch@addr
  6126  09D3  302D               	movlw	45
  6127  09D4  120A  118A  27EA  120A  158A  	fcall	_clcd_putch
  6128  09D9                     l5328:
  6129                           
  6130                           ;digital_alarm_clock_def.c: 497:         clcd_putch(date[4], (0xC0 + 10));
  6131  09D9  30CA               	movlw	202
  6132  09DA  1283               	bcf	3,5	;RP0=0, select bank0
  6133  09DB  1303               	bcf	3,6	;RP1=0, select bank0
  6134  09DC  00D7               	movwf	??_set_date
  6135  09DD  0857               	movf	??_set_date,w
  6136  09DE  00CC               	movwf	clcd_putch@addr
  6137  09DF  1683               	bsf	3,5	;RP0=1, select bank1
  6138  09E0  1303               	bcf	3,6	;RP1=0, select bank1
  6139  09E1  0847               	movf	(_date^(0+128)+4),w
  6140  09E2  120A  118A  27EA  120A  158A  	fcall	_clcd_putch
  6141  09E7                     l5330:
  6142                           
  6143                           ;digital_alarm_clock_def.c: 498:         clcd_putch(date[5], (0xC0 + 11));
  6144  09E7  30CB               	movlw	203
  6145  09E8  1283               	bcf	3,5	;RP0=0, select bank0
  6146  09E9  1303               	bcf	3,6	;RP1=0, select bank0
  6147  09EA  00D7               	movwf	??_set_date
  6148  09EB  0857               	movf	??_set_date,w
  6149  09EC  00CC               	movwf	clcd_putch@addr
  6150  09ED  1683               	bsf	3,5	;RP0=1, select bank1
  6151  09EE  1303               	bcf	3,6	;RP1=0, select bank1
  6152  09EF  0848               	movf	(_date^(0+128)+5),w
  6153  09F0  120A  118A  27EA  120A  158A  	fcall	_clcd_putch
  6154  09F5                     l5332:
  6155                           
  6156                           ;digital_alarm_clock_def.c: 499:         day = (date[0]-'0')*10+(date[1]-'0');
  6157  09F5  300A               	movlw	10
  6158  09F6  1283               	bcf	3,5	;RP0=0, select bank0
  6159  09F7  1303               	bcf	3,6	;RP1=0, select bank0
  6160  09F8  00D7               	movwf	??_set_date
  6161  09F9  0857               	movf	??_set_date,w
  6162  09FA  00CC               	movwf	___bmul@multiplicand
  6163  09FB  1683               	bsf	3,5	;RP0=1, select bank1
  6164  09FC  1303               	bcf	3,6	;RP1=0, select bank1
  6165  09FD  0843               	movf	_date^(0+128),w
  6166  09FE  160A  118A  20A3  120A  158A  	fcall	___bmul
  6167  0A03  1683               	bsf	3,5	;RP0=1, select bank1
  6168  0A04  1303               	bcf	3,6	;RP1=0, select bank1
  6169  0A05  0744               	addwf	(_date^(0+128)+1),w
  6170  0A06  3EF0               	addlw	240
  6171  0A07  1283               	bcf	3,5	;RP0=0, select bank0
  6172  0A08  1303               	bcf	3,6	;RP1=0, select bank0
  6173  0A09  00D8               	movwf	??_set_date+1
  6174  0A0A  0858               	movf	??_set_date+1,w
  6175  0A0B  00B9               	movwf	_day
  6176  0A0C                     l5334:
  6177                           
  6178                           ;digital_alarm_clock_def.c: 500:         month = (date[2]-'0')*10+(date[3]-'0');
  6179  0A0C  300A               	movlw	10
  6180  0A0D  00D7               	movwf	??_set_date
  6181  0A0E  0857               	movf	??_set_date,w
  6182  0A0F  00CC               	movwf	___bmul@multiplicand
  6183  0A10  1683               	bsf	3,5	;RP0=1, select bank1
  6184  0A11  1303               	bcf	3,6	;RP1=0, select bank1
  6185  0A12  0845               	movf	(_date^(0+128)+2),w
  6186  0A13  160A  118A  20A3  120A  158A  	fcall	___bmul
  6187  0A18  1683               	bsf	3,5	;RP0=1, select bank1
  6188  0A19  1303               	bcf	3,6	;RP1=0, select bank1
  6189  0A1A  0746               	addwf	(_date^(0+128)+3),w
  6190  0A1B  3EF0               	addlw	240
  6191  0A1C  1283               	bcf	3,5	;RP0=0, select bank0
  6192  0A1D  1303               	bcf	3,6	;RP1=0, select bank0
  6193  0A1E  00D8               	movwf	??_set_date+1
  6194  0A1F  0858               	movf	??_set_date+1,w
  6195  0A20  00B8               	movwf	_month
  6196  0A21                     l5336:
  6197                           
  6198                           ;digital_alarm_clock_def.c: 501:         year = (date[4]-'0')*10+(date[5]-'0');
  6199  0A21  300A               	movlw	10
  6200  0A22  00D7               	movwf	??_set_date
  6201  0A23  0857               	movf	??_set_date,w
  6202  0A24  00CC               	movwf	___bmul@multiplicand
  6203  0A25  1683               	bsf	3,5	;RP0=1, select bank1
  6204  0A26  1303               	bcf	3,6	;RP1=0, select bank1
  6205  0A27  0847               	movf	(_date^(0+128)+4),w
  6206  0A28  160A  118A  20A3  120A  158A  	fcall	___bmul
  6207  0A2D  1683               	bsf	3,5	;RP0=1, select bank1
  6208  0A2E  1303               	bcf	3,6	;RP1=0, select bank1
  6209  0A2F  0748               	addwf	(_date^(0+128)+5),w
  6210  0A30  3EF0               	addlw	240
  6211  0A31  1283               	bcf	3,5	;RP0=0, select bank0
  6212  0A32  1303               	bcf	3,6	;RP1=0, select bank0
  6213  0A33  00D8               	movwf	??_set_date+1
  6214  0A34  0858               	movf	??_set_date+1,w
  6215  0A35  00B7               	movwf	_year
  6216  0A36                     l5338:
  6217                           
  6218                           ;digital_alarm_clock_def.c: 506:     if(key == 0x37)
  6219  0A36  3037               	movlw	55
  6220  0A37  0656               	xorwf	set_date@key,w
  6221  0A38  1D03               	btfss	3,2
  6222  0A39  2A3B               	goto	u5631
  6223  0A3A  2A3C               	goto	u5630
  6224  0A3B                     u5631:
  6225  0A3B  2A70               	goto	l5364
  6226  0A3C                     u5630:
  6227  0A3C                     l5340:
  6228                           
  6229                           ;digital_alarm_clock_def.c: 507:     {;digital_alarm_clock_def.c: 508:         if(month_
      +                          flag)
  6230  0A3C  082D               	movf	set_date@month_flag,w
  6231  0A3D  1903               	btfsc	3,2
  6232  0A3E  2A40               	goto	u5641
  6233  0A3F  2A41               	goto	u5640
  6234  0A40                     u5641:
  6235  0A40  2A4D               	goto	l5348
  6236  0A41                     u5640:
  6237  0A41                     l5342:
  6238                           
  6239                           ;digital_alarm_clock_def.c: 509:         {;digital_alarm_clock_def.c: 510:             +
      +                          +month;
  6240  0A41  3001               	movlw	1
  6241  0A42  00D7               	movwf	??_set_date
  6242  0A43  0857               	movf	??_set_date,w
  6243  0A44  07B8               	addwf	_month,f
  6244  0A45                     l5344:
  6245                           
  6246                           ;digital_alarm_clock_def.c: 511:             if(month > 12)
  6247  0A45  300D               	movlw	13
  6248  0A46  0238               	subwf	_month,w
  6249  0A47  1C03               	skipc
  6250  0A48  2A4A               	goto	u5651
  6251  0A49  2A4B               	goto	u5650
  6252  0A4A                     u5651:
  6253  0A4A  2A93               	goto	l5384
  6254  0A4B                     u5650:
  6255  0A4B                     l5346:
  6256                           
  6257                           ;digital_alarm_clock_def.c: 512:                 month = 0;
  6258  0A4B  01B8               	clrf	_month
  6259  0A4C  2A93               	goto	l5384
  6260  0A4D                     l5348:
  6261  0A4D  082E               	movf	set_date@day_flag,w
  6262  0A4E  1903               	btfsc	3,2
  6263  0A4F  2A51               	goto	u5661
  6264  0A50  2A52               	goto	u5660
  6265  0A51                     u5661:
  6266  0A51  2A5E               	goto	l5356
  6267  0A52                     u5660:
  6268  0A52                     l5350:
  6269                           
  6270                           ;digital_alarm_clock_def.c: 515:         {;digital_alarm_clock_def.c: 516:             +
      +                          +day;
  6271  0A52  3001               	movlw	1
  6272  0A53  00D7               	movwf	??_set_date
  6273  0A54  0857               	movf	??_set_date,w
  6274  0A55  07B9               	addwf	_day,f
  6275  0A56                     l5352:
  6276                           
  6277                           ;digital_alarm_clock_def.c: 517:             if(day > 31)
  6278  0A56  3020               	movlw	32
  6279  0A57  0239               	subwf	_day,w
  6280  0A58  1C03               	skipc
  6281  0A59  2A5B               	goto	u5671
  6282  0A5A  2A5C               	goto	u5670
  6283  0A5B                     u5671:
  6284  0A5B  2A93               	goto	l5384
  6285  0A5C                     u5670:
  6286  0A5C                     l5354:
  6287                           
  6288                           ;digital_alarm_clock_def.c: 518:                 day = 0;
  6289  0A5C  01B9               	clrf	_day
  6290  0A5D  2A93               	goto	l5384
  6291  0A5E                     l5356:
  6292  0A5E  082C               	movf	set_date@year_flag,w
  6293  0A5F  1903               	btfsc	3,2
  6294  0A60  2A62               	goto	u5681
  6295  0A61  2A63               	goto	u5680
  6296  0A62                     u5681:
  6297  0A62  2A6F               	goto	l505
  6298  0A63                     u5680:
  6299  0A63                     l5358:
  6300                           
  6301                           ;digital_alarm_clock_def.c: 521:         {;digital_alarm_clock_def.c: 522:             +
      +                          +year;
  6302  0A63  3001               	movlw	1
  6303  0A64  00D7               	movwf	??_set_date
  6304  0A65  0857               	movf	??_set_date,w
  6305  0A66  07B7               	addwf	_year,f
  6306  0A67                     l5360:
  6307                           
  6308                           ;digital_alarm_clock_def.c: 523:             if(year > 99)
  6309  0A67  3064               	movlw	100
  6310  0A68  0237               	subwf	_year,w
  6311  0A69  1C03               	skipc
  6312  0A6A  2A6C               	goto	u5691
  6313  0A6B  2A6D               	goto	u5690
  6314  0A6C                     u5691:
  6315  0A6C  2A93               	goto	l5384
  6316  0A6D                     u5690:
  6317  0A6D                     l5362:
  6318                           
  6319                           ;digital_alarm_clock_def.c: 524:                 year = 0;
  6320  0A6D  01B7               	clrf	_year
  6321  0A6E  2A93               	goto	l5384
  6322  0A6F                     l505:
  6323                           
  6324                           ;digital_alarm_clock_def.c: 526:     }
  6325  0A6F  2A93               	goto	l5384
  6326  0A70                     l5364:
  6327  0A70  302F               	movlw	47
  6328  0A71  0656               	xorwf	set_date@key,w
  6329  0A72  1D03               	btfss	3,2
  6330  0A73  2A75               	goto	u5701
  6331  0A74  2A76               	goto	u5700
  6332  0A75                     u5701:
  6333  0A75  2A93               	goto	l5384
  6334  0A76                     u5700:
  6335  0A76                     l5366:
  6336                           
  6337                           ;digital_alarm_clock_def.c: 529:     {;digital_alarm_clock_def.c: 530:         if(year_f
      +                          lag)
  6338  0A76  082C               	movf	set_date@year_flag,w
  6339  0A77  1903               	btfsc	3,2
  6340  0A78  2A7A               	goto	u5711
  6341  0A79  2A7B               	goto	u5710
  6342  0A7A                     u5711:
  6343  0A7A  2A80               	goto	l5372
  6344  0A7B                     u5710:
  6345  0A7B                     l5368:
  6346                           
  6347                           ;digital_alarm_clock_def.c: 531:         {;digital_alarm_clock_def.c: 532:             d
      +                          ay_flag = 1;
  6348  0A7B  01AE               	clrf	set_date@day_flag
  6349  0A7C  0AAE               	incf	set_date@day_flag,f
  6350  0A7D                     l5370:
  6351                           
  6352                           ;digital_alarm_clock_def.c: 533:             month_flag = 0;
  6353  0A7D  01AD               	clrf	set_date@month_flag
  6354                           
  6355                           ;digital_alarm_clock_def.c: 534:             year_flag = 0;
  6356  0A7E  01AC               	clrf	set_date@year_flag
  6357                           
  6358                           ;digital_alarm_clock_def.c: 535:         }
  6359  0A7F  2A93               	goto	l5384
  6360  0A80                     l5372:
  6361  0A80  082D               	movf	set_date@month_flag,w
  6362  0A81  1903               	btfsc	3,2
  6363  0A82  2A84               	goto	u5721
  6364  0A83  2A85               	goto	u5720
  6365  0A84                     u5721:
  6366  0A84  2A8A               	goto	l5378
  6367  0A85                     u5720:
  6368  0A85                     l5374:
  6369                           
  6370                           ;digital_alarm_clock_def.c: 537:         {;digital_alarm_clock_def.c: 538:             d
      +                          ay_flag = 0;
  6371  0A85  01AE               	clrf	set_date@day_flag
  6372                           
  6373                           ;digital_alarm_clock_def.c: 539:             month_flag = 0;
  6374  0A86  01AD               	clrf	set_date@month_flag
  6375  0A87                     l5376:
  6376                           
  6377                           ;digital_alarm_clock_def.c: 540:             year_flag = 1;
  6378  0A87  01AC               	clrf	set_date@year_flag
  6379  0A88  0AAC               	incf	set_date@year_flag,f
  6380                           
  6381                           ;digital_alarm_clock_def.c: 541:         }
  6382  0A89  2A93               	goto	l5384
  6383  0A8A                     l5378:
  6384  0A8A  082E               	movf	set_date@day_flag,w
  6385  0A8B  1903               	btfsc	3,2
  6386  0A8C  2A8E               	goto	u5731
  6387  0A8D  2A8F               	goto	u5730
  6388  0A8E                     u5731:
  6389  0A8E  2A6F               	goto	l505
  6390  0A8F                     u5730:
  6391  0A8F                     l5380:
  6392                           
  6393                           ;digital_alarm_clock_def.c: 543:         {;digital_alarm_clock_def.c: 544:             d
      +                          ay_flag = 0;
  6394  0A8F  01AE               	clrf	set_date@day_flag
  6395  0A90                     l5382:
  6396                           
  6397                           ;digital_alarm_clock_def.c: 545:             month_flag = 1;
  6398  0A90  01AD               	clrf	set_date@month_flag
  6399  0A91  0AAD               	incf	set_date@month_flag,f
  6400                           
  6401                           ;digital_alarm_clock_def.c: 546:             year_flag = 0;
  6402  0A92  01AC               	clrf	set_date@year_flag
  6403  0A93                     l5384:
  6404                           
  6405                           ;digital_alarm_clock_def.c: 551:     if(year_flag)
  6406  0A93  082C               	movf	set_date@year_flag,w
  6407  0A94  1903               	btfsc	3,2
  6408  0A95  2A97               	goto	u5741
  6409  0A96  2A98               	goto	u5740
  6410  0A97                     u5741:
  6411  0A97  2A9D               	goto	l5388
  6412  0A98                     u5740:
  6413  0A98                     l5386:
  6414                           
  6415                           ;digital_alarm_clock_def.c: 552:     {;digital_alarm_clock_def.c: 553:         if(flag)
  6416  0A98  082B               	movf	set_date@flag,w
  6417  0A99  1903               	btfsc	3,2
  6418  0A9A  2A9C               	goto	u5751
  6419  0A9B  2A9D               	goto	u5750
  6420  0A9C                     u5751:
  6421  0A9C  2AE1               	goto	l5390
  6422  0A9D                     u5750:
  6423  0A9D                     l5388:
  6424                           
  6425                           ;digital_alarm_clock_def.c: 554:         {;digital_alarm_clock_def.c: 555:             n
      +                          ew_date[4] = (year / 10) % 10 + '0';
  6426  0A9D  300A               	movlw	10
  6427  0A9E  00D0               	movwf	___awmod@divisor
  6428  0A9F  3000               	movlw	0
  6429  0AA0  00D1               	movwf	___awmod@divisor+1
  6430  0AA1  300A               	movlw	10
  6431  0AA2  00C8               	movwf	___awdiv@divisor
  6432  0AA3  3000               	movlw	0
  6433  0AA4  00C9               	movwf	___awdiv@divisor+1
  6434  0AA5  0837               	movf	_year,w
  6435  0AA6  00D7               	movwf	??_set_date
  6436  0AA7  01D8               	clrf	??_set_date+1
  6437  0AA8  0857               	movf	??_set_date,w
  6438  0AA9  00CA               	movwf	___awdiv@dividend
  6439  0AAA  0858               	movf	??_set_date+1,w
  6440  0AAB  00CB               	movwf	___awdiv@dividend+1
  6441  0AAC  160A  158A  2797  120A  158A  	fcall	___awdiv
  6442  0AB1  1283               	bcf	3,5	;RP0=0, select bank0
  6443  0AB2  1303               	bcf	3,6	;RP1=0, select bank0
  6444  0AB3  0849               	movf	?___awdiv+1,w
  6445  0AB4  00D3               	movwf	___awmod@dividend+1
  6446  0AB5  0848               	movf	?___awdiv,w
  6447  0AB6  00D2               	movwf	___awmod@dividend
  6448  0AB7  160A  158A  2670  120A  158A  	fcall	___awmod
  6449  0ABC  1283               	bcf	3,5	;RP0=0, select bank0
  6450  0ABD  1303               	bcf	3,6	;RP1=0, select bank0
  6451  0ABE  0850               	movf	?___awmod,w
  6452  0ABF  3E30               	addlw	48
  6453  0AC0  00D9               	movwf	??_set_date+2
  6454  0AC1  0859               	movf	??_set_date+2,w
  6455  0AC2  1683               	bsf	3,5	;RP0=1, select bank1
  6456  0AC3  1303               	bcf	3,6	;RP1=0, select bank1
  6457  0AC4  00AF               	movwf	(set_date@new_date^(0+128)+4)
  6458                           
  6459                           ;digital_alarm_clock_def.c: 556:             new_date[5] = (year / 1) % 10 + '0';
  6460  0AC5  300A               	movlw	10
  6461  0AC6  1283               	bcf	3,5	;RP0=0, select bank0
  6462  0AC7  1303               	bcf	3,6	;RP1=0, select bank0
  6463  0AC8  00D0               	movwf	___awmod@divisor
  6464  0AC9  3000               	movlw	0
  6465  0ACA  00D1               	movwf	___awmod@divisor+1
  6466  0ACB  0837               	movf	_year,w
  6467  0ACC  00D7               	movwf	??_set_date
  6468  0ACD  01D8               	clrf	??_set_date+1
  6469  0ACE  0857               	movf	??_set_date,w
  6470  0ACF  00D2               	movwf	___awmod@dividend
  6471  0AD0  0858               	movf	??_set_date+1,w
  6472  0AD1  00D3               	movwf	___awmod@dividend+1
  6473  0AD2  160A  158A  2670  120A  158A  	fcall	___awmod
  6474  0AD7  1283               	bcf	3,5	;RP0=0, select bank0
  6475  0AD8  1303               	bcf	3,6	;RP1=0, select bank0
  6476  0AD9  0850               	movf	?___awmod,w
  6477  0ADA  3E30               	addlw	48
  6478  0ADB  00D9               	movwf	??_set_date+2
  6479  0ADC  0859               	movf	??_set_date+2,w
  6480  0ADD  1683               	bsf	3,5	;RP0=1, select bank1
  6481  0ADE  1303               	bcf	3,6	;RP1=0, select bank1
  6482  0ADF  00B0               	movwf	(set_date@new_date^(0+128)+5)
  6483                           
  6484                           ;digital_alarm_clock_def.c: 557:         }
  6485  0AE0  2AEF               	goto	l5394
  6486  0AE1                     l5390:
  6487                           
  6488                           ;digital_alarm_clock_def.c: 559:         {;digital_alarm_clock_def.c: 560:             n
      +                          ew_date[4] = ' ';
  6489  0AE1  3020               	movlw	32
  6490  0AE2  00D7               	movwf	??_set_date
  6491  0AE3  0857               	movf	??_set_date,w
  6492  0AE4  1683               	bsf	3,5	;RP0=1, select bank1
  6493  0AE5  1303               	bcf	3,6	;RP1=0, select bank1
  6494  0AE6  00AF               	movwf	(set_date@new_date^(0+128)+4)
  6495                           
  6496                           ;digital_alarm_clock_def.c: 561:             new_date[5] = ' ';
  6497  0AE7  3020               	movlw	32
  6498  0AE8  1283               	bcf	3,5	;RP0=0, select bank0
  6499  0AE9  1303               	bcf	3,6	;RP1=0, select bank0
  6500  0AEA  00D7               	movwf	??_set_date
  6501  0AEB  0857               	movf	??_set_date,w
  6502  0AEC  1683               	bsf	3,5	;RP0=1, select bank1
  6503  0AED  1303               	bcf	3,6	;RP1=0, select bank1
  6504  0AEE  00B0               	movwf	(set_date@new_date^(0+128)+5)
  6505  0AEF                     l5394:
  6506                           
  6507                           ;digital_alarm_clock_def.c: 569:     if(month_flag)
  6508  0AEF  1283               	bcf	3,5	;RP0=0, select bank0
  6509  0AF0  1303               	bcf	3,6	;RP1=0, select bank0
  6510  0AF1  082D               	movf	set_date@month_flag,w
  6511  0AF2  1903               	btfsc	3,2
  6512  0AF3  2AF5               	goto	u5761
  6513  0AF4  2AF6               	goto	u5760
  6514  0AF5                     u5761:
  6515  0AF5  2AFB               	goto	l5398
  6516  0AF6                     u5760:
  6517  0AF6                     l5396:
  6518                           
  6519                           ;digital_alarm_clock_def.c: 570:     {;digital_alarm_clock_def.c: 571:         if(flag)
  6520  0AF6  082B               	movf	set_date@flag,w
  6521  0AF7  1903               	btfsc	3,2
  6522  0AF8  2AFA               	goto	u5771
  6523  0AF9  2AFB               	goto	u5770
  6524  0AFA                     u5771:
  6525  0AFA  2B3F               	goto	l5400
  6526  0AFB                     u5770:
  6527  0AFB                     l5398:
  6528                           
  6529                           ;digital_alarm_clock_def.c: 572:         {;digital_alarm_clock_def.c: 573:             n
      +                          ew_date[2] = (month / 10) % 10 + '0';
  6530  0AFB  300A               	movlw	10
  6531  0AFC  00D0               	movwf	___awmod@divisor
  6532  0AFD  3000               	movlw	0
  6533  0AFE  00D1               	movwf	___awmod@divisor+1
  6534  0AFF  300A               	movlw	10
  6535  0B00  00C8               	movwf	___awdiv@divisor
  6536  0B01  3000               	movlw	0
  6537  0B02  00C9               	movwf	___awdiv@divisor+1
  6538  0B03  0838               	movf	_month,w
  6539  0B04  00D7               	movwf	??_set_date
  6540  0B05  01D8               	clrf	??_set_date+1
  6541  0B06  0857               	movf	??_set_date,w
  6542  0B07  00CA               	movwf	___awdiv@dividend
  6543  0B08  0858               	movf	??_set_date+1,w
  6544  0B09  00CB               	movwf	___awdiv@dividend+1
  6545  0B0A  160A  158A  2797  120A  158A  	fcall	___awdiv
  6546  0B0F  1283               	bcf	3,5	;RP0=0, select bank0
  6547  0B10  1303               	bcf	3,6	;RP1=0, select bank0
  6548  0B11  0849               	movf	?___awdiv+1,w
  6549  0B12  00D3               	movwf	___awmod@dividend+1
  6550  0B13  0848               	movf	?___awdiv,w
  6551  0B14  00D2               	movwf	___awmod@dividend
  6552  0B15  160A  158A  2670  120A  158A  	fcall	___awmod
  6553  0B1A  1283               	bcf	3,5	;RP0=0, select bank0
  6554  0B1B  1303               	bcf	3,6	;RP1=0, select bank0
  6555  0B1C  0850               	movf	?___awmod,w
  6556  0B1D  3E30               	addlw	48
  6557  0B1E  00D9               	movwf	??_set_date+2
  6558  0B1F  0859               	movf	??_set_date+2,w
  6559  0B20  1683               	bsf	3,5	;RP0=1, select bank1
  6560  0B21  1303               	bcf	3,6	;RP1=0, select bank1
  6561  0B22  00AD               	movwf	(set_date@new_date^(0+128)+2)
  6562                           
  6563                           ;digital_alarm_clock_def.c: 574:             new_date[3] = (month / 1) % 10 + '0';
  6564  0B23  300A               	movlw	10
  6565  0B24  1283               	bcf	3,5	;RP0=0, select bank0
  6566  0B25  1303               	bcf	3,6	;RP1=0, select bank0
  6567  0B26  00D0               	movwf	___awmod@divisor
  6568  0B27  3000               	movlw	0
  6569  0B28  00D1               	movwf	___awmod@divisor+1
  6570  0B29  0838               	movf	_month,w
  6571  0B2A  00D7               	movwf	??_set_date
  6572  0B2B  01D8               	clrf	??_set_date+1
  6573  0B2C  0857               	movf	??_set_date,w
  6574  0B2D  00D2               	movwf	___awmod@dividend
  6575  0B2E  0858               	movf	??_set_date+1,w
  6576  0B2F  00D3               	movwf	___awmod@dividend+1
  6577  0B30  160A  158A  2670  120A  158A  	fcall	___awmod
  6578  0B35  1283               	bcf	3,5	;RP0=0, select bank0
  6579  0B36  1303               	bcf	3,6	;RP1=0, select bank0
  6580  0B37  0850               	movf	?___awmod,w
  6581  0B38  3E30               	addlw	48
  6582  0B39  00D9               	movwf	??_set_date+2
  6583  0B3A  0859               	movf	??_set_date+2,w
  6584  0B3B  1683               	bsf	3,5	;RP0=1, select bank1
  6585  0B3C  1303               	bcf	3,6	;RP1=0, select bank1
  6586  0B3D  00AE               	movwf	(set_date@new_date^(0+128)+3)
  6587                           
  6588                           ;digital_alarm_clock_def.c: 575:         }
  6589  0B3E  2B4D               	goto	l5404
  6590  0B3F                     l5400:
  6591                           
  6592                           ;digital_alarm_clock_def.c: 577:         {;digital_alarm_clock_def.c: 578:             n
      +                          ew_date[2] = ' ';
  6593  0B3F  3020               	movlw	32
  6594  0B40  00D7               	movwf	??_set_date
  6595  0B41  0857               	movf	??_set_date,w
  6596  0B42  1683               	bsf	3,5	;RP0=1, select bank1
  6597  0B43  1303               	bcf	3,6	;RP1=0, select bank1
  6598  0B44  00AD               	movwf	(set_date@new_date^(0+128)+2)
  6599                           
  6600                           ;digital_alarm_clock_def.c: 579:             new_date[3] = ' ';
  6601  0B45  3020               	movlw	32
  6602  0B46  1283               	bcf	3,5	;RP0=0, select bank0
  6603  0B47  1303               	bcf	3,6	;RP1=0, select bank0
  6604  0B48  00D7               	movwf	??_set_date
  6605  0B49  0857               	movf	??_set_date,w
  6606  0B4A  1683               	bsf	3,5	;RP0=1, select bank1
  6607  0B4B  1303               	bcf	3,6	;RP1=0, select bank1
  6608  0B4C  00AE               	movwf	(set_date@new_date^(0+128)+3)
  6609  0B4D                     l5404:
  6610                           
  6611                           ;digital_alarm_clock_def.c: 588:     if(day_flag)
  6612  0B4D  1283               	bcf	3,5	;RP0=0, select bank0
  6613  0B4E  1303               	bcf	3,6	;RP1=0, select bank0
  6614  0B4F  082E               	movf	set_date@day_flag,w
  6615  0B50  1903               	btfsc	3,2
  6616  0B51  2B53               	goto	u5781
  6617  0B52  2B54               	goto	u5780
  6618  0B53                     u5781:
  6619  0B53  2B59               	goto	l5408
  6620  0B54                     u5780:
  6621  0B54                     l5406:
  6622                           
  6623                           ;digital_alarm_clock_def.c: 589:     {;digital_alarm_clock_def.c: 590:         if(flag)
  6624  0B54  082B               	movf	set_date@flag,w
  6625  0B55  1903               	btfsc	3,2
  6626  0B56  2B58               	goto	u5791
  6627  0B57  2B59               	goto	u5790
  6628  0B58                     u5791:
  6629  0B58  2B9D               	goto	l5410
  6630  0B59                     u5790:
  6631  0B59                     l5408:
  6632                           
  6633                           ;digital_alarm_clock_def.c: 591:         {;digital_alarm_clock_def.c: 592:             n
      +                          ew_date[0] = (day / 10) % 10 + '0';
  6634  0B59  300A               	movlw	10
  6635  0B5A  00D0               	movwf	___awmod@divisor
  6636  0B5B  3000               	movlw	0
  6637  0B5C  00D1               	movwf	___awmod@divisor+1
  6638  0B5D  300A               	movlw	10
  6639  0B5E  00C8               	movwf	___awdiv@divisor
  6640  0B5F  3000               	movlw	0
  6641  0B60  00C9               	movwf	___awdiv@divisor+1
  6642  0B61  0839               	movf	_day,w
  6643  0B62  00D7               	movwf	??_set_date
  6644  0B63  01D8               	clrf	??_set_date+1
  6645  0B64  0857               	movf	??_set_date,w
  6646  0B65  00CA               	movwf	___awdiv@dividend
  6647  0B66  0858               	movf	??_set_date+1,w
  6648  0B67  00CB               	movwf	___awdiv@dividend+1
  6649  0B68  160A  158A  2797  120A  158A  	fcall	___awdiv
  6650  0B6D  1283               	bcf	3,5	;RP0=0, select bank0
  6651  0B6E  1303               	bcf	3,6	;RP1=0, select bank0
  6652  0B6F  0849               	movf	?___awdiv+1,w
  6653  0B70  00D3               	movwf	___awmod@dividend+1
  6654  0B71  0848               	movf	?___awdiv,w
  6655  0B72  00D2               	movwf	___awmod@dividend
  6656  0B73  160A  158A  2670  120A  158A  	fcall	___awmod
  6657  0B78  1283               	bcf	3,5	;RP0=0, select bank0
  6658  0B79  1303               	bcf	3,6	;RP1=0, select bank0
  6659  0B7A  0850               	movf	?___awmod,w
  6660  0B7B  3E30               	addlw	48
  6661  0B7C  00D9               	movwf	??_set_date+2
  6662  0B7D  0859               	movf	??_set_date+2,w
  6663  0B7E  1683               	bsf	3,5	;RP0=1, select bank1
  6664  0B7F  1303               	bcf	3,6	;RP1=0, select bank1
  6665  0B80  00AB               	movwf	set_date@new_date^(0+128)
  6666                           
  6667                           ;digital_alarm_clock_def.c: 593:             new_date[1] = (day / 1) % 10 + '0';
  6668  0B81  300A               	movlw	10
  6669  0B82  1283               	bcf	3,5	;RP0=0, select bank0
  6670  0B83  1303               	bcf	3,6	;RP1=0, select bank0
  6671  0B84  00D0               	movwf	___awmod@divisor
  6672  0B85  3000               	movlw	0
  6673  0B86  00D1               	movwf	___awmod@divisor+1
  6674  0B87  0839               	movf	_day,w
  6675  0B88  00D7               	movwf	??_set_date
  6676  0B89  01D8               	clrf	??_set_date+1
  6677  0B8A  0857               	movf	??_set_date,w
  6678  0B8B  00D2               	movwf	___awmod@dividend
  6679  0B8C  0858               	movf	??_set_date+1,w
  6680  0B8D  00D3               	movwf	___awmod@dividend+1
  6681  0B8E  160A  158A  2670  120A  158A  	fcall	___awmod
  6682  0B93  1283               	bcf	3,5	;RP0=0, select bank0
  6683  0B94  1303               	bcf	3,6	;RP1=0, select bank0
  6684  0B95  0850               	movf	?___awmod,w
  6685  0B96  3E30               	addlw	48
  6686  0B97  00D9               	movwf	??_set_date+2
  6687  0B98  0859               	movf	??_set_date+2,w
  6688  0B99  1683               	bsf	3,5	;RP0=1, select bank1
  6689  0B9A  1303               	bcf	3,6	;RP1=0, select bank1
  6690  0B9B  00AC               	movwf	(set_date@new_date^(0+128)+1)
  6691                           
  6692                           ;digital_alarm_clock_def.c: 594:         }
  6693  0B9C  2BAB               	goto	l529
  6694  0B9D                     l5410:
  6695                           
  6696                           ;digital_alarm_clock_def.c: 596:         {;digital_alarm_clock_def.c: 597:             n
      +                          ew_date[0] = ' ';
  6697  0B9D  3020               	movlw	32
  6698  0B9E  00D7               	movwf	??_set_date
  6699  0B9F  0857               	movf	??_set_date,w
  6700  0BA0  1683               	bsf	3,5	;RP0=1, select bank1
  6701  0BA1  1303               	bcf	3,6	;RP1=0, select bank1
  6702  0BA2  00AB               	movwf	set_date@new_date^(0+128)
  6703                           
  6704                           ;digital_alarm_clock_def.c: 598:             new_date[1] = ' ';
  6705  0BA3  3020               	movlw	32
  6706  0BA4  1283               	bcf	3,5	;RP0=0, select bank0
  6707  0BA5  1303               	bcf	3,6	;RP1=0, select bank0
  6708  0BA6  00D7               	movwf	??_set_date
  6709  0BA7  0857               	movf	??_set_date,w
  6710  0BA8  1683               	bsf	3,5	;RP0=1, select bank1
  6711  0BA9  1303               	bcf	3,6	;RP1=0, select bank1
  6712  0BAA  00AC               	movwf	(set_date@new_date^(0+128)+1)
  6713  0BAB                     l529:	
  6714                           ;digital_alarm_clock_def.c: 605:     }
  6715                           
  6716                           
  6717                           ;digital_alarm_clock_def.c: 608:     clcd_putch(new_date[0], (0xC0 + 4));
  6718  0BAB  30C4               	movlw	196
  6719  0BAC  1283               	bcf	3,5	;RP0=0, select bank0
  6720  0BAD  1303               	bcf	3,6	;RP1=0, select bank0
  6721  0BAE  00D7               	movwf	??_set_date
  6722  0BAF  0857               	movf	??_set_date,w
  6723  0BB0  00CC               	movwf	clcd_putch@addr
  6724  0BB1  1683               	bsf	3,5	;RP0=1, select bank1
  6725  0BB2  1303               	bcf	3,6	;RP1=0, select bank1
  6726  0BB3  082B               	movf	set_date@new_date^(0+128),w
  6727  0BB4  120A  118A  27EA  120A  158A  	fcall	_clcd_putch
  6728                           
  6729                           ;digital_alarm_clock_def.c: 609:     clcd_putch(new_date[1], (0xC0 + 5));
  6730  0BB9  30C5               	movlw	197
  6731  0BBA  1283               	bcf	3,5	;RP0=0, select bank0
  6732  0BBB  1303               	bcf	3,6	;RP1=0, select bank0
  6733  0BBC  00D7               	movwf	??_set_date
  6734  0BBD  0857               	movf	??_set_date,w
  6735  0BBE  00CC               	movwf	clcd_putch@addr
  6736  0BBF  1683               	bsf	3,5	;RP0=1, select bank1
  6737  0BC0  1303               	bcf	3,6	;RP1=0, select bank1
  6738  0BC1  082C               	movf	(set_date@new_date^(0+128)+1),w
  6739  0BC2  120A  118A  27EA  120A  158A  	fcall	_clcd_putch
  6740                           
  6741                           ;digital_alarm_clock_def.c: 610:     clcd_putch('-', (0xC0 + 6));
  6742  0BC7  30C6               	movlw	198
  6743  0BC8  1283               	bcf	3,5	;RP0=0, select bank0
  6744  0BC9  1303               	bcf	3,6	;RP1=0, select bank0
  6745  0BCA  00D7               	movwf	??_set_date
  6746  0BCB  0857               	movf	??_set_date,w
  6747  0BCC  00CC               	movwf	clcd_putch@addr
  6748  0BCD  302D               	movlw	45
  6749  0BCE  120A  118A  27EA  120A  158A  	fcall	_clcd_putch
  6750                           
  6751                           ;digital_alarm_clock_def.c: 611:     clcd_putch(new_date[2], (0xC0 + 7));
  6752  0BD3  30C7               	movlw	199
  6753  0BD4  1283               	bcf	3,5	;RP0=0, select bank0
  6754  0BD5  1303               	bcf	3,6	;RP1=0, select bank0
  6755  0BD6  00D7               	movwf	??_set_date
  6756  0BD7  0857               	movf	??_set_date,w
  6757  0BD8  00CC               	movwf	clcd_putch@addr
  6758  0BD9  1683               	bsf	3,5	;RP0=1, select bank1
  6759  0BDA  1303               	bcf	3,6	;RP1=0, select bank1
  6760  0BDB  082D               	movf	(set_date@new_date^(0+128)+2),w
  6761  0BDC  120A  118A  27EA  120A  158A  	fcall	_clcd_putch
  6762                           
  6763                           ;digital_alarm_clock_def.c: 612:     clcd_putch(new_date[3], (0xC0 + 8));
  6764  0BE1  30C8               	movlw	200
  6765  0BE2  1283               	bcf	3,5	;RP0=0, select bank0
  6766  0BE3  1303               	bcf	3,6	;RP1=0, select bank0
  6767  0BE4  00D7               	movwf	??_set_date
  6768  0BE5  0857               	movf	??_set_date,w
  6769  0BE6  00CC               	movwf	clcd_putch@addr
  6770  0BE7  1683               	bsf	3,5	;RP0=1, select bank1
  6771  0BE8  1303               	bcf	3,6	;RP1=0, select bank1
  6772  0BE9  082E               	movf	(set_date@new_date^(0+128)+3),w
  6773  0BEA  120A  118A  27EA  120A  158A  	fcall	_clcd_putch
  6774                           
  6775                           ;digital_alarm_clock_def.c: 613:     clcd_putch('-', (0xC0 + 9));
  6776  0BEF  30C9               	movlw	201
  6777  0BF0  1283               	bcf	3,5	;RP0=0, select bank0
  6778  0BF1  1303               	bcf	3,6	;RP1=0, select bank0
  6779  0BF2  00D7               	movwf	??_set_date
  6780  0BF3  0857               	movf	??_set_date,w
  6781  0BF4  00CC               	movwf	clcd_putch@addr
  6782  0BF5  302D               	movlw	45
  6783  0BF6  120A  118A  27EA  120A  158A  	fcall	_clcd_putch
  6784                           
  6785                           ;digital_alarm_clock_def.c: 614:     clcd_putch(new_date[4], (0xC0 + 10));
  6786  0BFB  30CA               	movlw	202
  6787  0BFC  1283               	bcf	3,5	;RP0=0, select bank0
  6788  0BFD  1303               	bcf	3,6	;RP1=0, select bank0
  6789  0BFE  00D7               	movwf	??_set_date
  6790  0BFF  0857               	movf	??_set_date,w
  6791  0C00  00CC               	movwf	clcd_putch@addr
  6792  0C01  1683               	bsf	3,5	;RP0=1, select bank1
  6793  0C02  1303               	bcf	3,6	;RP1=0, select bank1
  6794  0C03  082F               	movf	(set_date@new_date^(0+128)+4),w
  6795  0C04  120A  118A  27EA  120A  158A  	fcall	_clcd_putch
  6796                           
  6797                           ;digital_alarm_clock_def.c: 615:     clcd_putch(new_date[5], (0xC0 + 11));
  6798  0C09  30CB               	movlw	203
  6799  0C0A  1283               	bcf	3,5	;RP0=0, select bank0
  6800  0C0B  1303               	bcf	3,6	;RP1=0, select bank0
  6801  0C0C  00D7               	movwf	??_set_date
  6802  0C0D  0857               	movf	??_set_date,w
  6803  0C0E  00CC               	movwf	clcd_putch@addr
  6804  0C0F  1683               	bsf	3,5	;RP0=1, select bank1
  6805  0C10  1303               	bcf	3,6	;RP1=0, select bank1
  6806  0C11  0830               	movf	(set_date@new_date^(0+128)+5),w
  6807  0C12  120A  118A  27EA  120A  158A  	fcall	_clcd_putch
  6808  0C17                     l5414:
  6809                           
  6810                           ;digital_alarm_clock_def.c: 618:     if(delay++ == 8)
  6811  0C17  3001               	movlw	1
  6812  0C18  1283               	bcf	3,5	;RP0=0, select bank0
  6813  0C19  1303               	bcf	3,6	;RP1=0, select bank0
  6814  0C1A  00D7               	movwf	??_set_date
  6815  0C1B  0857               	movf	??_set_date,w
  6816  0C1C  1683               	bsf	3,5	;RP0=1, select bank1
  6817  0C1D  1303               	bcf	3,6	;RP1=0, select bank1
  6818  0C1E  07C1               	addwf	set_date@delay^(0+128),f
  6819  0C1F  3009               	movlw	9
  6820  0C20  0641               	xorwf	set_date@delay^(0+128),w
  6821  0C21  1D03               	btfss	3,2
  6822  0C22  2C24               	goto	u5801
  6823  0C23  2C25               	goto	u5800
  6824  0C24                     u5801:
  6825  0C24  2C32               	goto	l531
  6826  0C25                     u5800:
  6827  0C25                     l5416:
  6828                           
  6829                           ;digital_alarm_clock_def.c: 619:     {;digital_alarm_clock_def.c: 620:         delay = 0
      +                          ;
  6830  0C25  01C1               	clrf	set_date@delay^(0+128)
  6831  0C26                     l5418:
  6832                           
  6833                           ;digital_alarm_clock_def.c: 621:         flag = !flag;
  6834  0C26  1283               	bcf	3,5	;RP0=0, select bank0
  6835  0C27  1303               	bcf	3,6	;RP1=0, select bank0
  6836  0C28  082B               	movf	set_date@flag,w
  6837  0C29  1903               	btfsc	3,2
  6838  0C2A  2C2C               	goto	u5811
  6839  0C2B  2C2E               	goto	u5810
  6840  0C2C                     u5811:
  6841  0C2C  3001               	movlw	1
  6842  0C2D  2C2F               	goto	u5820
  6843  0C2E                     u5810:
  6844  0C2E  3000               	movlw	0
  6845  0C2F                     u5820:
  6846  0C2F  00D7               	movwf	??_set_date
  6847  0C30  0857               	movf	??_set_date,w
  6848  0C31  00AB               	movwf	set_date@flag
  6849  0C32                     l531:
  6850  0C32  0008               	return
  6851  0C33                     __end_of_set_date:
  6852                           
  6853                           	psect	text4
  6854  1CAF                     __ptext4:	
  6855 ;; *************** function _read_digital_keypad *****************
  6856 ;; Defined at:
  6857 ;;		line 10 in file "digital_keypad.c"
  6858 ;; Parameters:    Size  Location     Type
  6859 ;;  mode            1    wreg     unsigned char 
  6860 ;; Auto vars:     Size  Location     Type
  6861 ;;  mode            1    5[COMMON] unsigned char 
  6862 ;; Return value:  Size  Location     Type
  6863 ;;                  1    wreg      unsigned char 
  6864 ;; Registers used:
  6865 ;;		wreg, status,2, status,0
  6866 ;; Tracked objects:
  6867 ;;		On entry : 0/0
  6868 ;;		On exit  : 0/0
  6869 ;;		Unchanged: 0/0
  6870 ;; Data sizes:     COMMON   BANK0   BANK1   BANK3   BANK2
  6871 ;;      Params:         0       0       0       0       0
  6872 ;;      Locals:         1       0       0       0       0
  6873 ;;      Temps:          1       0       0       0       0
  6874 ;;      Totals:         2       0       0       0       0
  6875 ;;Total ram usage:        2 bytes
  6876 ;; Hardware stack levels used: 1
  6877 ;; Hardware stack levels required when called: 1
  6878 ;; This function calls:
  6879 ;;		Nothing
  6880 ;; This function is called by:
  6881 ;;		_main
  6882 ;; This function uses a non-reentrant model
  6883 ;;
  6884                           
  6885                           
  6886                           ;psect for function _read_digital_keypad
  6887  1CAF                     _read_digital_keypad:
  6888                           
  6889                           ;incstack = 0
  6890                           ; Regs used in _read_digital_keypad: [wreg+status,2+status,0]
  6891                           ;read_digital_keypad@mode stored from wreg
  6892  1CAF  00F5               	movwf	read_digital_keypad@mode
  6893  1CB0                     l4896:
  6894                           
  6895                           ;digital_keypad.c: 10: unsigned char read_digital_keypad(unsigned char mode);digital_key
      +                          pad.c: 11: {;digital_keypad.c: 12:     static unsigned char once = 1;;digital_keypad.c: 
      +                          14:     if (mode == 0)
  6896  1CB0  0875               	movf	read_digital_keypad@mode,w
  6897  1CB1  1D03               	btfss	3,2
  6898  1CB2  2CB4               	goto	u5011
  6899  1CB3  2CB5               	goto	u5010
  6900  1CB4                     u5011:
  6901  1CB4  2CBA               	goto	l4904
  6902  1CB5                     u5010:
  6903  1CB5                     l4898:
  6904                           
  6905                           ;digital_keypad.c: 15:     {;digital_keypad.c: 16:         return PORTB & 0x3F;
  6906  1CB5  1283               	bcf	3,5	;RP0=0, select bank0
  6907  1CB6  1303               	bcf	3,6	;RP1=0, select bank0
  6908  1CB7  0806               	movf	6,w	;volatile
  6909  1CB8  393F               	andlw	63
  6910  1CB9  2CDD               	goto	l45
  6911  1CBA                     l4904:
  6912                           
  6913                           ;digital_keypad.c: 19:     {;digital_keypad.c: 20:         if (((PORTB & 0x3F) != 0x3F) 
      +                          && once)
  6914  1CBA  303F               	movlw	63
  6915  1CBB  1283               	bcf	3,5	;RP0=0, select bank0
  6916  1CBC  1303               	bcf	3,6	;RP1=0, select bank0
  6917  1CBD  0506               	andwf	6,w	;volatile
  6918  1CBE  00F4               	movwf	??_read_digital_keypad
  6919  1CBF  303F               	movlw	63
  6920  1CC0  0674               	xorwf	??_read_digital_keypad,w
  6921  1CC1  1903               	btfsc	3,2
  6922  1CC2  2CC4               	goto	u5021
  6923  1CC3  2CC5               	goto	u5020
  6924  1CC4                     u5021:
  6925  1CC4  2CCE               	goto	l4916
  6926  1CC5                     u5020:
  6927  1CC5                     l4906:
  6928  1CC5  1683               	bsf	3,5	;RP0=1, select bank1
  6929  1CC6  1303               	bcf	3,6	;RP1=0, select bank1
  6930  1CC7  0860               	movf	read_digital_keypad@once^(0+128),w
  6931  1CC8  1903               	btfsc	3,2
  6932  1CC9  2CCB               	goto	u5031
  6933  1CCA  2CCC               	goto	u5030
  6934  1CCB                     u5031:
  6935  1CCB  2CCE               	goto	l4916
  6936  1CCC                     u5030:
  6937  1CCC                     l4908:
  6938                           
  6939                           ;digital_keypad.c: 21:         {;digital_keypad.c: 22:             once = 0;
  6940  1CCC  01E0               	clrf	read_digital_keypad@once^(0+128)
  6941  1CCD  2CB5               	goto	l4898
  6942  1CCE                     l4916:
  6943  1CCE  303F               	movlw	63
  6944  1CCF  1283               	bcf	3,5	;RP0=0, select bank0
  6945  1CD0  0506               	andwf	6,w	;volatile
  6946  1CD1  00F4               	movwf	??_read_digital_keypad
  6947  1CD2  303F               	movlw	63
  6948  1CD3  0674               	xorwf	??_read_digital_keypad,w
  6949  1CD4  1D03               	btfss	3,2
  6950  1CD5  2CD7               	goto	u5041
  6951  1CD6  2CD8               	goto	u5040
  6952  1CD7                     u5041:
  6953  1CD7  2CDC               	goto	l4920
  6954  1CD8                     u5040:
  6955  1CD8                     l4918:
  6956                           
  6957                           ;digital_keypad.c: 27:         {;digital_keypad.c: 28:             once = 1;
  6958  1CD8  1683               	bsf	3,5	;RP0=1, select bank1
  6959  1CD9  1303               	bcf	3,6	;RP1=0, select bank1
  6960  1CDA  01E0               	clrf	read_digital_keypad@once^(0+128)
  6961  1CDB  0AE0               	incf	read_digital_keypad@once^(0+128),f
  6962  1CDC                     l4920:
  6963                           
  6964                           ;digital_keypad.c: 32:     return 0x3F;
  6965  1CDC  303F               	movlw	63
  6966  1CDD                     l45:
  6967  1CDD  0008               	return
  6968  1CDE                     __end_of_read_digital_keypad:
  6969                           
  6970                           	psect	text5
  6971  1273                     __ptext5:	
  6972 ;; *************** function _menu3 *****************
  6973 ;; Defined at:
  6974 ;;		line 256 in file "digital_alarm_clock_def.c"
  6975 ;; Parameters:    Size  Location     Type
  6976 ;;  reset_flag      1    wreg     unsigned char 
  6977 ;;  key             1    6[BANK0 ] unsigned char 
  6978 ;; Auto vars:     Size  Location     Type
  6979 ;;  reset_flag      1    8[BANK0 ] unsigned char 
  6980 ;; Return value:  Size  Location     Type
  6981 ;;                  1    wreg      unsigned char 
  6982 ;; Registers used:
  6983 ;;		wreg, fsr0l, fsr0h, status,2, status,0, btemp+1, pclath, cstack
  6984 ;; Tracked objects:
  6985 ;;		On entry : 0/0
  6986 ;;		On exit  : 0/0
  6987 ;;		Unchanged: 0/0
  6988 ;; Data sizes:     COMMON   BANK0   BANK1   BANK3   BANK2
  6989 ;;      Params:         0       1       0       0       0
  6990 ;;      Locals:         0       1       0       0       0
  6991 ;;      Temps:          0       1       0       0       0
  6992 ;;      Totals:         0       3       0       0       0
  6993 ;;Total ram usage:        3 bytes
  6994 ;; Hardware stack levels used: 1
  6995 ;; Hardware stack levels required when called: 3
  6996 ;; This function calls:
  6997 ;;		_clcd_print
  6998 ;;		_clcd_putch
  6999 ;;		_clear_screen
  7000 ;; This function is called by:
  7001 ;;		_main
  7002 ;; This function uses a non-reentrant model
  7003 ;;
  7004                           
  7005                           
  7006                           ;psect for function _menu3
  7007  1273                     _menu3:
  7008                           
  7009                           ;incstack = 0
  7010                           ; Regs used in _menu3: [wreg-fsr0h+status,2+status,0+btemp+1+pclath+cstack]
  7011                           ;menu3@reset_flag stored from wreg
  7012  1273  1283               	bcf	3,5	;RP0=0, select bank0
  7013  1274  1303               	bcf	3,6	;RP1=0, select bank0
  7014  1275  00D0               	movwf	menu3@reset_flag
  7015  1276                     l5100:
  7016                           
  7017                           ;digital_alarm_clock_def.c: 256: unsigned char menu3(unsigned char reset_flag, unsigned 
      +                          char key);digital_alarm_clock_def.c: 257: {;digital_alarm_clock_def.c: 258:     static c
      +                          har menu_pos;;digital_alarm_clock_def.c: 259:     if(reset_flag == 0x12)
  7018  1276  3012               	movlw	18
  7019  1277  0650               	xorwf	menu3@reset_flag,w
  7020  1278  1D03               	btfss	3,2
  7021  1279  2A7B               	goto	u5271
  7022  127A  2A7C               	goto	u5270
  7023  127B                     u5271:
  7024  127B  2A8C               	goto	l5110
  7025  127C                     u5270:
  7026  127C                     l5102:
  7027                           
  7028                           ;digital_alarm_clock_def.c: 260:     {;digital_alarm_clock_def.c: 261:         menu_pos 
      +                          = 0;
  7029  127C  01B3               	clrf	menu3@menu_pos
  7030  127D                     l5104:
  7031                           
  7032                           ;digital_alarm_clock_def.c: 262:         clear_screen();
  7033  127D  160A  158A  2379  160A  118A  	fcall	_clear_screen
  7034  1282                     l5106:
  7035                           
  7036                           ;digital_alarm_clock_def.c: 263:         return_time = 5;
  7037  1282  3005               	movlw	5
  7038  1283  00F6               	movwf	_return_time
  7039  1284  3000               	movlw	0
  7040  1285  00F7               	movwf	_return_time+1
  7041  1286                     l5108:
  7042                           
  7043                           ;digital_alarm_clock_def.c: 264:         key = 0x3F;
  7044  1286  303F               	movlw	63
  7045  1287  1283               	bcf	3,5	;RP0=0, select bank0
  7046  1288  1303               	bcf	3,6	;RP1=0, select bank0
  7047  1289  00CF               	movwf	??_menu3
  7048  128A  084F               	movf	??_menu3,w
  7049  128B  00CE               	movwf	menu3@key
  7050  128C                     l5110:
  7051                           
  7052                           ;digital_alarm_clock_def.c: 267:     if(return_time == 0)
  7053  128C  0876               	movf	_return_time,w
  7054  128D  0477               	iorwf	_return_time+1,w
  7055  128E  1D03               	btfss	3,2
  7056  128F  2A91               	goto	u5281
  7057  1290  2A92               	goto	u5280
  7058  1291                     u5281:
  7059  1291  2A94               	goto	l5116
  7060  1292                     u5280:
  7061  1292                     l5112:
  7062                           
  7063                           ;digital_alarm_clock_def.c: 268:         return 0x22;
  7064  1292  3022               	movlw	34
  7065  1293  2B16               	goto	l435
  7066  1294                     l5116:
  7067                           
  7068                           ;digital_alarm_clock_def.c: 270:     if(key == 0x2F && menu_pos < 1)
  7069  1294  302F               	movlw	47
  7070  1295  064E               	xorwf	menu3@key,w
  7071  1296  1D03               	btfss	3,2
  7072  1297  2A99               	goto	u5291
  7073  1298  2A9A               	goto	u5290
  7074  1299                     u5291:
  7075  1299  2AA8               	goto	l5124
  7076  129A                     u5290:
  7077  129A                     l5118:
  7078  129A  0833               	movf	menu3@menu_pos,w
  7079  129B  1D03               	btfss	3,2
  7080  129C  2A9E               	goto	u5301
  7081  129D  2A9F               	goto	u5300
  7082  129E                     u5301:
  7083  129E  2AA8               	goto	l5124
  7084  129F                     u5300:
  7085  129F                     l5120:
  7086                           
  7087                           ;digital_alarm_clock_def.c: 271:     {;digital_alarm_clock_def.c: 272:         menu_pos+
      +                          +;
  7088  129F  3001               	movlw	1
  7089  12A0  00CF               	movwf	??_menu3
  7090  12A1  084F               	movf	??_menu3,w
  7091  12A2  07B3               	addwf	menu3@menu_pos,f
  7092  12A3                     l5122:
  7093                           
  7094                           ;digital_alarm_clock_def.c: 273:         return_time = 5;
  7095  12A3  3005               	movlw	5
  7096  12A4  00F6               	movwf	_return_time
  7097  12A5  3000               	movlw	0
  7098  12A6  00F7               	movwf	_return_time+1
  7099                           
  7100                           ;digital_alarm_clock_def.c: 274:     }
  7101  12A7  2AB6               	goto	l5132
  7102  12A8                     l5124:
  7103  12A8  3037               	movlw	55
  7104  12A9  064E               	xorwf	menu3@key,w
  7105  12AA  1D03               	btfss	3,2
  7106  12AB  2AAD               	goto	u5311
  7107  12AC  2AAE               	goto	u5310
  7108  12AD                     u5311:
  7109  12AD  2AB6               	goto	l5132
  7110  12AE                     u5310:
  7111  12AE                     l5126:
  7112  12AE  0833               	movf	menu3@menu_pos,w
  7113  12AF  1903               	btfsc	3,2
  7114  12B0  2AB2               	goto	u5321
  7115  12B1  2AB3               	goto	u5320
  7116  12B2                     u5321:
  7117  12B2  2AB6               	goto	l5132
  7118  12B3                     u5320:
  7119  12B3                     l5128:
  7120                           
  7121                           ;digital_alarm_clock_def.c: 276:     {;digital_alarm_clock_def.c: 277:         menu_pos-
      +                          -;
  7122  12B3  3001               	movlw	1
  7123  12B4  02B3               	subwf	menu3@menu_pos,f
  7124  12B5  2AA3               	goto	l5122
  7125  12B6                     l5132:
  7126                           
  7127                           ;digital_alarm_clock_def.c: 280:     if(menu_pos == 0)
  7128  12B6  0833               	movf	menu3@menu_pos,w
  7129  12B7  1D03               	btfss	3,2
  7130  12B8  2ABA               	goto	u5331
  7131  12B9  2ABB               	goto	u5330
  7132  12BA                     u5331:
  7133  12BA  2AD2               	goto	l5136
  7134  12BB                     u5330:
  7135  12BB                     l5134:
  7136                           
  7137                           ;digital_alarm_clock_def.c: 281:     {;digital_alarm_clock_def.c: 282:         clcd_putc
      +                          h(0x3E, (0x80 + 0));
  7138  12BB  3080               	movlw	128
  7139  12BC  00CF               	movwf	??_menu3
  7140  12BD  084F               	movf	??_menu3,w
  7141  12BE  00CC               	movwf	clcd_putch@addr
  7142  12BF  303E               	movlw	62
  7143  12C0  120A  118A  27EA  160A  118A  	fcall	_clcd_putch
  7144                           
  7145                           ;digital_alarm_clock_def.c: 283:         clcd_putch(' ', (0xC0 + 0));
  7146  12C5  30C0               	movlw	192
  7147  12C6  1283               	bcf	3,5	;RP0=0, select bank0
  7148  12C7  1303               	bcf	3,6	;RP1=0, select bank0
  7149  12C8  00CF               	movwf	??_menu3
  7150  12C9  084F               	movf	??_menu3,w
  7151  12CA  00CC               	movwf	clcd_putch@addr
  7152  12CB  3020               	movlw	32
  7153  12CC  120A  118A  27EA  160A  118A  	fcall	_clcd_putch
  7154                           
  7155                           ;digital_alarm_clock_def.c: 284:     }
  7156  12D1  2AED               	goto	l5140
  7157  12D2                     l5136:
  7158  12D2  0333               	decf	menu3@menu_pos,w
  7159  12D3  1D03               	btfss	3,2
  7160  12D4  2AD6               	goto	u5341
  7161  12D5  2AD7               	goto	u5340
  7162  12D6                     u5341:
  7163  12D6  2AED               	goto	l5140
  7164  12D7                     u5340:
  7165  12D7                     l5138:
  7166                           
  7167                           ;digital_alarm_clock_def.c: 286:     {;digital_alarm_clock_def.c: 287:         clcd_putc
      +                          h(' ', (0x80 + 0));
  7168  12D7  3080               	movlw	128
  7169  12D8  00CF               	movwf	??_menu3
  7170  12D9  084F               	movf	??_menu3,w
  7171  12DA  00CC               	movwf	clcd_putch@addr
  7172  12DB  3020               	movlw	32
  7173  12DC  120A  118A  27EA  160A  118A  	fcall	_clcd_putch
  7174                           
  7175                           ;digital_alarm_clock_def.c: 288:         clcd_putch(0x3E, (0xC0 + 0));
  7176  12E1  30C0               	movlw	192
  7177  12E2  1283               	bcf	3,5	;RP0=0, select bank0
  7178  12E3  1303               	bcf	3,6	;RP1=0, select bank0
  7179  12E4  00CF               	movwf	??_menu3
  7180  12E5  084F               	movf	??_menu3,w
  7181  12E6  00CC               	movwf	clcd_putch@addr
  7182  12E7  303E               	movlw	62
  7183  12E8  120A  118A  27EA  160A  118A  	fcall	_clcd_putch
  7184  12ED                     l5140:
  7185                           
  7186                           ;digital_alarm_clock_def.c: 290:     clcd_print(menu_3[0], (0x80 + 2));
  7187  12ED  1683               	bsf	3,5	;RP0=1, select bank1
  7188  12EE  1303               	bcf	3,6	;RP1=0, select bank1
  7189  12EF  085A               	movf	_menu_3^(0+128),w
  7190  12F0  1283               	bcf	3,5	;RP0=0, select bank0
  7191  12F1  1303               	bcf	3,6	;RP1=0, select bank0
  7192  12F2  00CA               	movwf	clcd_print@str
  7193  12F3  3000               	movlw	0
  7194  12F4  1D03               	btfss	3,2
  7195  12F5  3080               	movlw	128
  7196  12F6  00CB               	movwf	clcd_print@str+1
  7197  12F7  3082               	movlw	130
  7198  12F8  00CF               	movwf	??_menu3
  7199  12F9  084F               	movf	??_menu3,w
  7200  12FA  00CC               	movwf	clcd_print@addr
  7201  12FB  160A  158A  24DE  160A  118A  	fcall	_clcd_print
  7202  1300                     l5142:
  7203                           
  7204                           ;digital_alarm_clock_def.c: 291:     clcd_print(menu_3[1], (0xC0 + 2));
  7205  1300  1683               	bsf	3,5	;RP0=1, select bank1
  7206  1301  1303               	bcf	3,6	;RP1=0, select bank1
  7207  1302  085B               	movf	(low ((_menu_3| 0+1)))^(0+128),w
  7208  1303  1283               	bcf	3,5	;RP0=0, select bank0
  7209  1304  1303               	bcf	3,6	;RP1=0, select bank0
  7210  1305  00CA               	movwf	clcd_print@str
  7211  1306  3000               	movlw	0
  7212  1307  1D03               	btfss	3,2
  7213  1308  3080               	movlw	128
  7214  1309  00CB               	movwf	clcd_print@str+1
  7215  130A  30C2               	movlw	194
  7216  130B  00CF               	movwf	??_menu3
  7217  130C  084F               	movf	??_menu3,w
  7218  130D  00CC               	movwf	clcd_print@addr
  7219  130E  160A  158A  24DE  160A  118A  	fcall	_clcd_print
  7220  1313                     l5144:
  7221                           
  7222                           ;digital_alarm_clock_def.c: 292:     return menu_pos;
  7223  1313  1283               	bcf	3,5	;RP0=0, select bank0
  7224  1314  1303               	bcf	3,6	;RP1=0, select bank0
  7225  1315  0833               	movf	menu3@menu_pos,w
  7226  1316                     l435:
  7227  1316  0008               	return
  7228  1317                     __end_of_menu3:
  7229                           
  7230                           	psect	text6
  7231  11CF                     __ptext6:	
  7232 ;; *************** function _menu2 *****************
  7233 ;; Defined at:
  7234 ;;		line 216 in file "digital_alarm_clock_def.c"
  7235 ;; Parameters:    Size  Location     Type
  7236 ;;  reset_flag      1    wreg     unsigned char 
  7237 ;;  key             1    6[BANK0 ] unsigned char 
  7238 ;; Auto vars:     Size  Location     Type
  7239 ;;  reset_flag      1    8[BANK0 ] unsigned char 
  7240 ;; Return value:  Size  Location     Type
  7241 ;;                  1    wreg      unsigned char 
  7242 ;; Registers used:
  7243 ;;		wreg, fsr0l, fsr0h, status,2, status,0, btemp+1, pclath, cstack
  7244 ;; Tracked objects:
  7245 ;;		On entry : 0/0
  7246 ;;		On exit  : 0/0
  7247 ;;		Unchanged: 0/0
  7248 ;; Data sizes:     COMMON   BANK0   BANK1   BANK3   BANK2
  7249 ;;      Params:         0       1       0       0       0
  7250 ;;      Locals:         0       1       0       0       0
  7251 ;;      Temps:          0       1       0       0       0
  7252 ;;      Totals:         0       3       0       0       0
  7253 ;;Total ram usage:        3 bytes
  7254 ;; Hardware stack levels used: 1
  7255 ;; Hardware stack levels required when called: 3
  7256 ;; This function calls:
  7257 ;;		_clcd_print
  7258 ;;		_clcd_putch
  7259 ;;		_clear_screen
  7260 ;; This function is called by:
  7261 ;;		_main
  7262 ;; This function uses a non-reentrant model
  7263 ;;
  7264                           
  7265                           
  7266                           ;psect for function _menu2
  7267  11CF                     _menu2:
  7268                           
  7269                           ;incstack = 0
  7270                           ; Regs used in _menu2: [wreg-fsr0h+status,2+status,0+btemp+1+pclath+cstack]
  7271                           ;menu2@reset_flag stored from wreg
  7272  11CF  1283               	bcf	3,5	;RP0=0, select bank0
  7273  11D0  1303               	bcf	3,6	;RP1=0, select bank0
  7274  11D1  00D0               	movwf	menu2@reset_flag
  7275  11D2                     l5052:
  7276                           
  7277                           ;digital_alarm_clock_def.c: 216: unsigned char menu2(unsigned char reset_flag, unsigned 
      +                          char key);digital_alarm_clock_def.c: 217: {;digital_alarm_clock_def.c: 218:     static c
      +                          har menu_pos;;digital_alarm_clock_def.c: 219:     if(reset_flag == 0x11)
  7278  11D2  3011               	movlw	17
  7279  11D3  0650               	xorwf	menu2@reset_flag,w
  7280  11D4  1D03               	btfss	3,2
  7281  11D5  29D7               	goto	u5191
  7282  11D6  29D8               	goto	u5190
  7283  11D7                     u5191:
  7284  11D7  29E8               	goto	l5062
  7285  11D8                     u5190:
  7286  11D8                     l5054:
  7287                           
  7288                           ;digital_alarm_clock_def.c: 220:     {;digital_alarm_clock_def.c: 221:         menu_pos 
      +                          = 0;
  7289  11D8  01B4               	clrf	menu2@menu_pos
  7290  11D9                     l5056:
  7291                           
  7292                           ;digital_alarm_clock_def.c: 222:         clear_screen();
  7293  11D9  160A  158A  2379  160A  118A  	fcall	_clear_screen
  7294  11DE                     l5058:
  7295                           
  7296                           ;digital_alarm_clock_def.c: 223:         return_time = 5;
  7297  11DE  3005               	movlw	5
  7298  11DF  00F6               	movwf	_return_time
  7299  11E0  3000               	movlw	0
  7300  11E1  00F7               	movwf	_return_time+1
  7301  11E2                     l5060:
  7302                           
  7303                           ;digital_alarm_clock_def.c: 224:         key = 0x3F;
  7304  11E2  303F               	movlw	63
  7305  11E3  1283               	bcf	3,5	;RP0=0, select bank0
  7306  11E4  1303               	bcf	3,6	;RP1=0, select bank0
  7307  11E5  00CF               	movwf	??_menu2
  7308  11E6  084F               	movf	??_menu2,w
  7309  11E7  00CE               	movwf	menu2@key
  7310  11E8                     l5062:
  7311                           
  7312                           ;digital_alarm_clock_def.c: 227:     if(return_time == 0)
  7313  11E8  0876               	movf	_return_time,w
  7314  11E9  0477               	iorwf	_return_time+1,w
  7315  11EA  1D03               	btfss	3,2
  7316  11EB  29ED               	goto	u5201
  7317  11EC  29EE               	goto	u5200
  7318  11ED                     u5201:
  7319  11ED  29F0               	goto	l5068
  7320  11EE                     u5200:
  7321  11EE                     l5064:
  7322                           
  7323                           ;digital_alarm_clock_def.c: 228:         return 0x22;
  7324  11EE  3022               	movlw	34
  7325  11EF  2A72               	goto	l422
  7326  11F0                     l5068:
  7327                           
  7328                           ;digital_alarm_clock_def.c: 230:     if(key == 0x2F && menu_pos < 1)
  7329  11F0  302F               	movlw	47
  7330  11F1  064E               	xorwf	menu2@key,w
  7331  11F2  1D03               	btfss	3,2
  7332  11F3  29F5               	goto	u5211
  7333  11F4  29F6               	goto	u5210
  7334  11F5                     u5211:
  7335  11F5  2A04               	goto	l5076
  7336  11F6                     u5210:
  7337  11F6                     l5070:
  7338  11F6  0834               	movf	menu2@menu_pos,w
  7339  11F7  1D03               	btfss	3,2
  7340  11F8  29FA               	goto	u5221
  7341  11F9  29FB               	goto	u5220
  7342  11FA                     u5221:
  7343  11FA  2A04               	goto	l5076
  7344  11FB                     u5220:
  7345  11FB                     l5072:
  7346                           
  7347                           ;digital_alarm_clock_def.c: 231:     {;digital_alarm_clock_def.c: 232:         menu_pos+
      +                          +;
  7348  11FB  3001               	movlw	1
  7349  11FC  00CF               	movwf	??_menu2
  7350  11FD  084F               	movf	??_menu2,w
  7351  11FE  07B4               	addwf	menu2@menu_pos,f
  7352  11FF                     l5074:
  7353                           
  7354                           ;digital_alarm_clock_def.c: 233:         return_time = 5;
  7355  11FF  3005               	movlw	5
  7356  1200  00F6               	movwf	_return_time
  7357  1201  3000               	movlw	0
  7358  1202  00F7               	movwf	_return_time+1
  7359                           
  7360                           ;digital_alarm_clock_def.c: 234:     }
  7361  1203  2A12               	goto	l5084
  7362  1204                     l5076:
  7363  1204  3037               	movlw	55
  7364  1205  064E               	xorwf	menu2@key,w
  7365  1206  1D03               	btfss	3,2
  7366  1207  2A09               	goto	u5231
  7367  1208  2A0A               	goto	u5230
  7368  1209                     u5231:
  7369  1209  2A12               	goto	l5084
  7370  120A                     u5230:
  7371  120A                     l5078:
  7372  120A  0834               	movf	menu2@menu_pos,w
  7373  120B  1903               	btfsc	3,2
  7374  120C  2A0E               	goto	u5241
  7375  120D  2A0F               	goto	u5240
  7376  120E                     u5241:
  7377  120E  2A12               	goto	l5084
  7378  120F                     u5240:
  7379  120F                     l5080:
  7380                           
  7381                           ;digital_alarm_clock_def.c: 236:     {;digital_alarm_clock_def.c: 237:         menu_pos-
      +                          -;
  7382  120F  3001               	movlw	1
  7383  1210  02B4               	subwf	menu2@menu_pos,f
  7384  1211  29FF               	goto	l5074
  7385  1212                     l5084:
  7386                           
  7387                           ;digital_alarm_clock_def.c: 240:     if(menu_pos == 0)
  7388  1212  0834               	movf	menu2@menu_pos,w
  7389  1213  1D03               	btfss	3,2
  7390  1214  2A16               	goto	u5251
  7391  1215  2A17               	goto	u5250
  7392  1216                     u5251:
  7393  1216  2A2E               	goto	l5088
  7394  1217                     u5250:
  7395  1217                     l5086:
  7396                           
  7397                           ;digital_alarm_clock_def.c: 241:     {;digital_alarm_clock_def.c: 242:         clcd_putc
      +                          h(0x3E, (0x80 + 0));
  7398  1217  3080               	movlw	128
  7399  1218  00CF               	movwf	??_menu2
  7400  1219  084F               	movf	??_menu2,w
  7401  121A  00CC               	movwf	clcd_putch@addr
  7402  121B  303E               	movlw	62
  7403  121C  120A  118A  27EA  160A  118A  	fcall	_clcd_putch
  7404                           
  7405                           ;digital_alarm_clock_def.c: 243:         clcd_putch(' ', (0xC0 + 0));
  7406  1221  30C0               	movlw	192
  7407  1222  1283               	bcf	3,5	;RP0=0, select bank0
  7408  1223  1303               	bcf	3,6	;RP1=0, select bank0
  7409  1224  00CF               	movwf	??_menu2
  7410  1225  084F               	movf	??_menu2,w
  7411  1226  00CC               	movwf	clcd_putch@addr
  7412  1227  3020               	movlw	32
  7413  1228  120A  118A  27EA  160A  118A  	fcall	_clcd_putch
  7414                           
  7415                           ;digital_alarm_clock_def.c: 244:     }
  7416  122D  2A49               	goto	l5092
  7417  122E                     l5088:
  7418  122E  0334               	decf	menu2@menu_pos,w
  7419  122F  1D03               	btfss	3,2
  7420  1230  2A32               	goto	u5261
  7421  1231  2A33               	goto	u5260
  7422  1232                     u5261:
  7423  1232  2A49               	goto	l5092
  7424  1233                     u5260:
  7425  1233                     l5090:
  7426                           
  7427                           ;digital_alarm_clock_def.c: 246:     {;digital_alarm_clock_def.c: 247:         clcd_putc
      +                          h(' ', (0x80 + 0));
  7428  1233  3080               	movlw	128
  7429  1234  00CF               	movwf	??_menu2
  7430  1235  084F               	movf	??_menu2,w
  7431  1236  00CC               	movwf	clcd_putch@addr
  7432  1237  3020               	movlw	32
  7433  1238  120A  118A  27EA  160A  118A  	fcall	_clcd_putch
  7434                           
  7435                           ;digital_alarm_clock_def.c: 248:         clcd_putch(0x3E, (0xC0 + 0));
  7436  123D  30C0               	movlw	192
  7437  123E  1283               	bcf	3,5	;RP0=0, select bank0
  7438  123F  1303               	bcf	3,6	;RP1=0, select bank0
  7439  1240  00CF               	movwf	??_menu2
  7440  1241  084F               	movf	??_menu2,w
  7441  1242  00CC               	movwf	clcd_putch@addr
  7442  1243  303E               	movlw	62
  7443  1244  120A  118A  27EA  160A  118A  	fcall	_clcd_putch
  7444  1249                     l5092:
  7445                           
  7446                           ;digital_alarm_clock_def.c: 250:     clcd_print(menu_2[0], (0x80 + 2));
  7447  1249  1683               	bsf	3,5	;RP0=1, select bank1
  7448  124A  1303               	bcf	3,6	;RP1=0, select bank1
  7449  124B  085C               	movf	_menu_2^(0+128),w
  7450  124C  1283               	bcf	3,5	;RP0=0, select bank0
  7451  124D  1303               	bcf	3,6	;RP1=0, select bank0
  7452  124E  00CA               	movwf	clcd_print@str
  7453  124F  3000               	movlw	0
  7454  1250  1D03               	btfss	3,2
  7455  1251  3080               	movlw	128
  7456  1252  00CB               	movwf	clcd_print@str+1
  7457  1253  3082               	movlw	130
  7458  1254  00CF               	movwf	??_menu2
  7459  1255  084F               	movf	??_menu2,w
  7460  1256  00CC               	movwf	clcd_print@addr
  7461  1257  160A  158A  24DE  160A  118A  	fcall	_clcd_print
  7462  125C                     l5094:
  7463                           
  7464                           ;digital_alarm_clock_def.c: 251:     clcd_print(menu_2[1], (0xC0 + 2));
  7465  125C  1683               	bsf	3,5	;RP0=1, select bank1
  7466  125D  1303               	bcf	3,6	;RP1=0, select bank1
  7467  125E  085D               	movf	(low ((_menu_2| 0+1)))^(0+128),w
  7468  125F  1283               	bcf	3,5	;RP0=0, select bank0
  7469  1260  1303               	bcf	3,6	;RP1=0, select bank0
  7470  1261  00CA               	movwf	clcd_print@str
  7471  1262  3000               	movlw	0
  7472  1263  1D03               	btfss	3,2
  7473  1264  3080               	movlw	128
  7474  1265  00CB               	movwf	clcd_print@str+1
  7475  1266  30C2               	movlw	194
  7476  1267  00CF               	movwf	??_menu2
  7477  1268  084F               	movf	??_menu2,w
  7478  1269  00CC               	movwf	clcd_print@addr
  7479  126A  160A  158A  24DE  160A  118A  	fcall	_clcd_print
  7480  126F                     l5096:
  7481                           
  7482                           ;digital_alarm_clock_def.c: 252:     return menu_pos;
  7483  126F  1283               	bcf	3,5	;RP0=0, select bank0
  7484  1270  1303               	bcf	3,6	;RP1=0, select bank0
  7485  1271  0834               	movf	menu2@menu_pos,w
  7486  1272                     l422:
  7487  1272  0008               	return
  7488  1273                     __end_of_menu2:
  7489                           
  7490                           	psect	text7
  7491  112B                     __ptext7:	
  7492 ;; *************** function _menu1 *****************
  7493 ;; Defined at:
  7494 ;;		line 176 in file "digital_alarm_clock_def.c"
  7495 ;; Parameters:    Size  Location     Type
  7496 ;;  reset_flag      1    wreg     unsigned char 
  7497 ;;  key             1    6[BANK0 ] unsigned char 
  7498 ;; Auto vars:     Size  Location     Type
  7499 ;;  reset_flag      1    8[BANK0 ] unsigned char 
  7500 ;; Return value:  Size  Location     Type
  7501 ;;                  1    wreg      unsigned char 
  7502 ;; Registers used:
  7503 ;;		wreg, fsr0l, fsr0h, status,2, status,0, btemp+1, pclath, cstack
  7504 ;; Tracked objects:
  7505 ;;		On entry : 0/0
  7506 ;;		On exit  : 0/0
  7507 ;;		Unchanged: 0/0
  7508 ;; Data sizes:     COMMON   BANK0   BANK1   BANK3   BANK2
  7509 ;;      Params:         0       1       0       0       0
  7510 ;;      Locals:         0       1       0       0       0
  7511 ;;      Temps:          0       1       0       0       0
  7512 ;;      Totals:         0       3       0       0       0
  7513 ;;Total ram usage:        3 bytes
  7514 ;; Hardware stack levels used: 1
  7515 ;; Hardware stack levels required when called: 3
  7516 ;; This function calls:
  7517 ;;		_clcd_print
  7518 ;;		_clcd_putch
  7519 ;;		_clear_screen
  7520 ;; This function is called by:
  7521 ;;		_main
  7522 ;; This function uses a non-reentrant model
  7523 ;;
  7524                           
  7525                           
  7526                           ;psect for function _menu1
  7527  112B                     _menu1:
  7528                           
  7529                           ;incstack = 0
  7530                           ; Regs used in _menu1: [wreg-fsr0h+status,2+status,0+btemp+1+pclath+cstack]
  7531                           ;menu1@reset_flag stored from wreg
  7532  112B  1283               	bcf	3,5	;RP0=0, select bank0
  7533  112C  1303               	bcf	3,6	;RP1=0, select bank0
  7534  112D  00D0               	movwf	menu1@reset_flag
  7535  112E                     l5004:
  7536                           
  7537                           ;digital_alarm_clock_def.c: 176: unsigned char menu1(unsigned char reset_flag, unsigned 
      +                          char key);digital_alarm_clock_def.c: 177: {;digital_alarm_clock_def.c: 178:     static c
      +                          har menu_pos;;digital_alarm_clock_def.c: 179:     if(reset_flag == 0x10)
  7538  112E  3010               	movlw	16
  7539  112F  0650               	xorwf	menu1@reset_flag,w
  7540  1130  1D03               	btfss	3,2
  7541  1131  2933               	goto	u5111
  7542  1132  2934               	goto	u5110
  7543  1133                     u5111:
  7544  1133  2944               	goto	l5014
  7545  1134                     u5110:
  7546  1134                     l5006:
  7547                           
  7548                           ;digital_alarm_clock_def.c: 180:     {;digital_alarm_clock_def.c: 181:         menu_pos 
      +                          = 0;
  7549  1134  01B5               	clrf	menu1@menu_pos
  7550  1135                     l5008:
  7551                           
  7552                           ;digital_alarm_clock_def.c: 182:         clear_screen();
  7553  1135  160A  158A  2379  160A  118A  	fcall	_clear_screen
  7554  113A                     l5010:
  7555                           
  7556                           ;digital_alarm_clock_def.c: 183:         return_time = 5;
  7557  113A  3005               	movlw	5
  7558  113B  00F6               	movwf	_return_time
  7559  113C  3000               	movlw	0
  7560  113D  00F7               	movwf	_return_time+1
  7561  113E                     l5012:
  7562                           
  7563                           ;digital_alarm_clock_def.c: 184:         key = 0x3F;
  7564  113E  303F               	movlw	63
  7565  113F  1283               	bcf	3,5	;RP0=0, select bank0
  7566  1140  1303               	bcf	3,6	;RP1=0, select bank0
  7567  1141  00CF               	movwf	??_menu1
  7568  1142  084F               	movf	??_menu1,w
  7569  1143  00CE               	movwf	menu1@key
  7570  1144                     l5014:
  7571                           
  7572                           ;digital_alarm_clock_def.c: 187:     if(return_time == 0)
  7573  1144  0876               	movf	_return_time,w
  7574  1145  0477               	iorwf	_return_time+1,w
  7575  1146  1D03               	btfss	3,2
  7576  1147  2949               	goto	u5121
  7577  1148  294A               	goto	u5120
  7578  1149                     u5121:
  7579  1149  294C               	goto	l5020
  7580  114A                     u5120:
  7581  114A                     l5016:
  7582                           
  7583                           ;digital_alarm_clock_def.c: 188:         return 0x22;
  7584  114A  3022               	movlw	34
  7585  114B  29CE               	goto	l409
  7586  114C                     l5020:
  7587                           
  7588                           ;digital_alarm_clock_def.c: 190:     if(key == 0x2F && menu_pos < 1)
  7589  114C  302F               	movlw	47
  7590  114D  064E               	xorwf	menu1@key,w
  7591  114E  1D03               	btfss	3,2
  7592  114F  2951               	goto	u5131
  7593  1150  2952               	goto	u5130
  7594  1151                     u5131:
  7595  1151  2960               	goto	l5028
  7596  1152                     u5130:
  7597  1152                     l5022:
  7598  1152  0835               	movf	menu1@menu_pos,w
  7599  1153  1D03               	btfss	3,2
  7600  1154  2956               	goto	u5141
  7601  1155  2957               	goto	u5140
  7602  1156                     u5141:
  7603  1156  2960               	goto	l5028
  7604  1157                     u5140:
  7605  1157                     l5024:
  7606                           
  7607                           ;digital_alarm_clock_def.c: 191:     {;digital_alarm_clock_def.c: 192:         menu_pos+
      +                          +;
  7608  1157  3001               	movlw	1
  7609  1158  00CF               	movwf	??_menu1
  7610  1159  084F               	movf	??_menu1,w
  7611  115A  07B5               	addwf	menu1@menu_pos,f
  7612  115B                     l5026:
  7613                           
  7614                           ;digital_alarm_clock_def.c: 193:         return_time = 5;
  7615  115B  3005               	movlw	5
  7616  115C  00F6               	movwf	_return_time
  7617  115D  3000               	movlw	0
  7618  115E  00F7               	movwf	_return_time+1
  7619                           
  7620                           ;digital_alarm_clock_def.c: 194:     }
  7621  115F  296E               	goto	l5036
  7622  1160                     l5028:
  7623  1160  3037               	movlw	55
  7624  1161  064E               	xorwf	menu1@key,w
  7625  1162  1D03               	btfss	3,2
  7626  1163  2965               	goto	u5151
  7627  1164  2966               	goto	u5150
  7628  1165                     u5151:
  7629  1165  296E               	goto	l5036
  7630  1166                     u5150:
  7631  1166                     l5030:
  7632  1166  0835               	movf	menu1@menu_pos,w
  7633  1167  1903               	btfsc	3,2
  7634  1168  296A               	goto	u5161
  7635  1169  296B               	goto	u5160
  7636  116A                     u5161:
  7637  116A  296E               	goto	l5036
  7638  116B                     u5160:
  7639  116B                     l5032:
  7640                           
  7641                           ;digital_alarm_clock_def.c: 196:     {;digital_alarm_clock_def.c: 197:         menu_pos-
      +                          -;
  7642  116B  3001               	movlw	1
  7643  116C  02B5               	subwf	menu1@menu_pos,f
  7644  116D  295B               	goto	l5026
  7645  116E                     l5036:
  7646                           
  7647                           ;digital_alarm_clock_def.c: 200:     if(menu_pos == 0)
  7648  116E  0835               	movf	menu1@menu_pos,w
  7649  116F  1D03               	btfss	3,2
  7650  1170  2972               	goto	u5171
  7651  1171  2973               	goto	u5170
  7652  1172                     u5171:
  7653  1172  298A               	goto	l5040
  7654  1173                     u5170:
  7655  1173                     l5038:
  7656                           
  7657                           ;digital_alarm_clock_def.c: 201:     {;digital_alarm_clock_def.c: 202:         clcd_putc
      +                          h(0x3E, (0x80 + 0));
  7658  1173  3080               	movlw	128
  7659  1174  00CF               	movwf	??_menu1
  7660  1175  084F               	movf	??_menu1,w
  7661  1176  00CC               	movwf	clcd_putch@addr
  7662  1177  303E               	movlw	62
  7663  1178  120A  118A  27EA  160A  118A  	fcall	_clcd_putch
  7664                           
  7665                           ;digital_alarm_clock_def.c: 203:         clcd_putch(' ', (0xC0 + 0));
  7666  117D  30C0               	movlw	192
  7667  117E  1283               	bcf	3,5	;RP0=0, select bank0
  7668  117F  1303               	bcf	3,6	;RP1=0, select bank0
  7669  1180  00CF               	movwf	??_menu1
  7670  1181  084F               	movf	??_menu1,w
  7671  1182  00CC               	movwf	clcd_putch@addr
  7672  1183  3020               	movlw	32
  7673  1184  120A  118A  27EA  160A  118A  	fcall	_clcd_putch
  7674                           
  7675                           ;digital_alarm_clock_def.c: 204:     }
  7676  1189  29A5               	goto	l5044
  7677  118A                     l5040:
  7678  118A  0335               	decf	menu1@menu_pos,w
  7679  118B  1D03               	btfss	3,2
  7680  118C  298E               	goto	u5181
  7681  118D  298F               	goto	u5180
  7682  118E                     u5181:
  7683  118E  29A5               	goto	l5044
  7684  118F                     u5180:
  7685  118F                     l5042:
  7686                           
  7687                           ;digital_alarm_clock_def.c: 206:     {;digital_alarm_clock_def.c: 207:         clcd_putc
      +                          h(' ', (0x80 + 0));
  7688  118F  3080               	movlw	128
  7689  1190  00CF               	movwf	??_menu1
  7690  1191  084F               	movf	??_menu1,w
  7691  1192  00CC               	movwf	clcd_putch@addr
  7692  1193  3020               	movlw	32
  7693  1194  120A  118A  27EA  160A  118A  	fcall	_clcd_putch
  7694                           
  7695                           ;digital_alarm_clock_def.c: 208:         clcd_putch(0x3E, (0xC0 + 0));
  7696  1199  30C0               	movlw	192
  7697  119A  1283               	bcf	3,5	;RP0=0, select bank0
  7698  119B  1303               	bcf	3,6	;RP1=0, select bank0
  7699  119C  00CF               	movwf	??_menu1
  7700  119D  084F               	movf	??_menu1,w
  7701  119E  00CC               	movwf	clcd_putch@addr
  7702  119F  303E               	movlw	62
  7703  11A0  120A  118A  27EA  160A  118A  	fcall	_clcd_putch
  7704  11A5                     l5044:
  7705                           
  7706                           ;digital_alarm_clock_def.c: 210:     clcd_print(menu_1[0], (0x80 + 2));
  7707  11A5  1683               	bsf	3,5	;RP0=1, select bank1
  7708  11A6  1303               	bcf	3,6	;RP1=0, select bank1
  7709  11A7  085E               	movf	_menu_1^(0+128),w
  7710  11A8  1283               	bcf	3,5	;RP0=0, select bank0
  7711  11A9  1303               	bcf	3,6	;RP1=0, select bank0
  7712  11AA  00CA               	movwf	clcd_print@str
  7713  11AB  3000               	movlw	0
  7714  11AC  1D03               	btfss	3,2
  7715  11AD  3080               	movlw	128
  7716  11AE  00CB               	movwf	clcd_print@str+1
  7717  11AF  3082               	movlw	130
  7718  11B0  00CF               	movwf	??_menu1
  7719  11B1  084F               	movf	??_menu1,w
  7720  11B2  00CC               	movwf	clcd_print@addr
  7721  11B3  160A  158A  24DE  160A  118A  	fcall	_clcd_print
  7722  11B8                     l5046:
  7723                           
  7724                           ;digital_alarm_clock_def.c: 211:     clcd_print(menu_1[1], (0xC0 + 2));
  7725  11B8  1683               	bsf	3,5	;RP0=1, select bank1
  7726  11B9  1303               	bcf	3,6	;RP1=0, select bank1
  7727  11BA  085F               	movf	(low ((_menu_1| 0+1)))^(0+128),w
  7728  11BB  1283               	bcf	3,5	;RP0=0, select bank0
  7729  11BC  1303               	bcf	3,6	;RP1=0, select bank0
  7730  11BD  00CA               	movwf	clcd_print@str
  7731  11BE  3000               	movlw	0
  7732  11BF  1D03               	btfss	3,2
  7733  11C0  3080               	movlw	128
  7734  11C1  00CB               	movwf	clcd_print@str+1
  7735  11C2  30C2               	movlw	194
  7736  11C3  00CF               	movwf	??_menu1
  7737  11C4  084F               	movf	??_menu1,w
  7738  11C5  00CC               	movwf	clcd_print@addr
  7739  11C6  160A  158A  24DE  160A  118A  	fcall	_clcd_print
  7740  11CB                     l5048:
  7741                           
  7742                           ;digital_alarm_clock_def.c: 212:     return menu_pos;
  7743  11CB  1283               	bcf	3,5	;RP0=0, select bank0
  7744  11CC  1303               	bcf	3,6	;RP1=0, select bank0
  7745  11CD  0835               	movf	menu1@menu_pos,w
  7746  11CE                     l409:
  7747  11CE  0008               	return
  7748  11CF                     __end_of_menu1:
  7749                           
  7750                           	psect	text8
  7751  1C84                     __ptext8:	
  7752 ;; *************** function _init_config *****************
  7753 ;; Defined at:
  7754 ;;		line 17 in file "main.c"
  7755 ;; Parameters:    Size  Location     Type
  7756 ;;		None
  7757 ;; Auto vars:     Size  Location     Type
  7758 ;;		None
  7759 ;; Return value:  Size  Location     Type
  7760 ;;                  1    wreg      void 
  7761 ;; Registers used:
  7762 ;;		wreg, status,2, status,0, pclath, cstack
  7763 ;; Tracked objects:
  7764 ;;		On entry : 0/0
  7765 ;;		On exit  : 0/0
  7766 ;;		Unchanged: 0/0
  7767 ;; Data sizes:     COMMON   BANK0   BANK1   BANK3   BANK2
  7768 ;;      Params:         0       0       0       0       0
  7769 ;;      Locals:         0       0       0       0       0
  7770 ;;      Temps:          0       0       0       0       0
  7771 ;;      Totals:         0       0       0       0       0
  7772 ;;Total ram usage:        0 bytes
  7773 ;; Hardware stack levels used: 1
  7774 ;; Hardware stack levels required when called: 6
  7775 ;; This function calls:
  7776 ;;		_init_buzzer
  7777 ;;		_init_clcd
  7778 ;;		_init_digital_keypad
  7779 ;;		_init_ds1307
  7780 ;;		_init_i2c
  7781 ;;		_init_timer2
  7782 ;; This function is called by:
  7783 ;;		_main
  7784 ;; This function uses a non-reentrant model
  7785 ;;
  7786                           
  7787                           
  7788                           ;psect for function _init_config
  7789  1C84                     _init_config:
  7790  1C84                     l4924:	
  7791                           ;incstack = 0
  7792                           ; Regs used in _init_config: [wreg+status,2+status,0+pclath+cstack]
  7793                           
  7794                           
  7795                           ;main.c: 19:     PEIE = 1;
  7796  1C84  3000               	movlw	0
  7797  1C85  1283               	bcf	3,5	;RP0=0, select bank0
  7798  1C86  1303               	bcf	3,6	;RP1=0, select bank0
  7799  1C87  00D8               	movwf	init_i2c@baud+3
  7800  1C88  3001               	movlw	1
  7801  1C89  00D7               	movwf	init_i2c@baud+2
  7802  1C8A  3086               	movlw	134
  7803  1C8B  00D6               	movwf	init_i2c@baud+1
  7804  1C8C  30A0               	movlw	160
  7805  1C8D  00D5               	movwf	init_i2c@baud
  7806  1C8E  160A  158A  2511  160A  158A  	fcall	_init_i2c
  7807                           
  7808                           ;main.c: 21: 
  7809  1C93  160A  158A  23B7  160A  158A  	fcall	_init_ds1307
  7810                           
  7811                           ;main.c: 23: 
  7812  1C98  160A  158A  2325  160A  158A  	fcall	_init_digital_keypad
  7813                           
  7814                           ;main.c: 25:     unsigned char key, key_level;
  7815  1C9D  120A  158A  2001  160A  158A  	fcall	_init_clcd
  7816                           
  7817                           ;main.c: 27:     unsigned int delay1 = 0, delay2 = 0, delay3 = 0, delay4 = 0, delay5 = 0
      +                          , delay6 = 0;
  7818  1CA2  160A  158A  234C  160A  158A  	fcall	_init_timer2
  7819                           
  7820                           ;main.c: 29:     while (1) {
  7821  1CA7  160A  158A  231F  160A  158A  	fcall	_init_buzzer
  7822  1CAC                     l4926:
  7823                           
  7824                           ;main.c: 31:         key = read_digital_keypad(1);
  7825  1CAC  178B               	bsf	11,7	;volatile
  7826  1CAD                     l4928:
  7827                           
  7828                           ;main.c: 32:         key_level = read_digital_keypad(0);
  7829  1CAD  170B               	bsf	11,6	;volatile
  7830  1CAE                     l245:
  7831  1CAE  0008               	return
  7832  1CAF                     __end_of_init_config:
  7833                           
  7834                           	psect	text9
  7835  1B4C                     __ptext9:	
  7836 ;; *************** function _init_timer2 *****************
  7837 ;; Defined at:
  7838 ;;		line 3 in file "timers.c"
  7839 ;; Parameters:    Size  Location     Type
  7840 ;;		None
  7841 ;; Auto vars:     Size  Location     Type
  7842 ;;		None
  7843 ;; Return value:  Size  Location     Type
  7844 ;;                  1    wreg      void 
  7845 ;; Registers used:
  7846 ;;		wreg
  7847 ;; Tracked objects:
  7848 ;;		On entry : 0/0
  7849 ;;		On exit  : 0/0
  7850 ;;		Unchanged: 0/0
  7851 ;; Data sizes:     COMMON   BANK0   BANK1   BANK3   BANK2
  7852 ;;      Params:         0       0       0       0       0
  7853 ;;      Locals:         0       0       0       0       0
  7854 ;;      Temps:          0       0       0       0       0
  7855 ;;      Totals:         0       0       0       0       0
  7856 ;;Total ram usage:        0 bytes
  7857 ;; Hardware stack levels used: 1
  7858 ;; Hardware stack levels required when called: 1
  7859 ;; This function calls:
  7860 ;;		Nothing
  7861 ;; This function is called by:
  7862 ;;		_init_config
  7863 ;; This function uses a non-reentrant model
  7864 ;;
  7865                           
  7866                           
  7867                           ;psect for function _init_timer2
  7868  1B4C                     _init_timer2:
  7869  1B4C                     l4778:	
  7870                           ;incstack = 0
  7871                           ; Regs used in _init_timer2: [wreg]
  7872                           
  7873                           
  7874                           ;timers.c: 6:     T2CKPS0 = 1;
  7875  1B4C  1283               	bcf	3,5	;RP0=0, select bank0
  7876  1B4D  1303               	bcf	3,6	;RP1=0, select bank0
  7877  1B4E  1412               	bsf	18,0	;volatile
  7878                           
  7879                           ;timers.c: 7:     T2CKPS1 = 1;
  7880  1B4F  1492               	bsf	18,1	;volatile
  7881  1B50                     l4780:
  7882                           
  7883                           ;timers.c: 10:     PR2 = 250;
  7884  1B50  30FA               	movlw	250
  7885  1B51  1683               	bsf	3,5	;RP0=1, select bank1
  7886  1B52  1303               	bcf	3,6	;RP1=0, select bank1
  7887  1B53  0092               	movwf	18	;volatile
  7888  1B54                     l4782:
  7889                           
  7890                           ;timers.c: 13:     TMR2IE = 1;
  7891  1B54  148C               	bsf	12,1	;volatile
  7892  1B55                     l182:
  7893  1B55  0008               	return
  7894  1B56                     __end_of_init_timer2:
  7895                           
  7896                           	psect	text10
  7897  1D11                     __ptext10:	
  7898 ;; *************** function _init_i2c *****************
  7899 ;; Defined at:
  7900 ;;		line 4 in file "i2c.c"
  7901 ;; Parameters:    Size  Location     Type
  7902 ;;  baud            4   13[BANK0 ] unsigned long 
  7903 ;; Auto vars:     Size  Location     Type
  7904 ;;		None
  7905 ;; Return value:  Size  Location     Type
  7906 ;;                  1    wreg      void 
  7907 ;; Registers used:
  7908 ;;		wreg, status,2, status,0, pclath, cstack
  7909 ;; Tracked objects:
  7910 ;;		On entry : 0/0
  7911 ;;		On exit  : 0/0
  7912 ;;		Unchanged: 0/0
  7913 ;; Data sizes:     COMMON   BANK0   BANK1   BANK3   BANK2
  7914 ;;      Params:         0       4       0       0       0
  7915 ;;      Locals:         0       0       0       0       0
  7916 ;;      Temps:          0       4       0       0       0
  7917 ;;      Totals:         0       8       0       0       0
  7918 ;;Total ram usage:        8 bytes
  7919 ;; Hardware stack levels used: 1
  7920 ;; Hardware stack levels required when called: 2
  7921 ;; This function calls:
  7922 ;;		___lldiv
  7923 ;; This function is called by:
  7924 ;;		_init_config
  7925 ;; This function uses a non-reentrant model
  7926 ;;
  7927                           
  7928                           
  7929                           ;psect for function _init_i2c
  7930  1D11                     _init_i2c:
  7931  1D11                     l4772:	
  7932                           ;incstack = 0
  7933                           ; Regs used in _init_i2c: [wreg+status,2+status,0+pclath+cstack]
  7934                           
  7935                           
  7936                           ;i2c.c: 4: void init_i2c(unsigned long baud);i2c.c: 5: {;i2c.c: 7:     SSPM3 = 1;
  7937  1D11  1283               	bcf	3,5	;RP0=0, select bank0
  7938  1D12  1303               	bcf	3,6	;RP1=0, select bank0
  7939  1D13  1594               	bsf	20,3	;volatile
  7940  1D14                     l4774:
  7941                           
  7942                           ;i2c.c: 10:     SSPADD = (unsigned char)(20000000 / (4 * baud)) - 1;
  7943  1D14  0855               	movf	init_i2c@baud,w
  7944  1D15  00D9               	movwf	??_init_i2c
  7945  1D16  0856               	movf	init_i2c@baud+1,w
  7946  1D17  00DA               	movwf	??_init_i2c+1
  7947  1D18  0857               	movf	init_i2c@baud+2,w
  7948  1D19  00DB               	movwf	??_init_i2c+2
  7949  1D1A  0858               	movf	init_i2c@baud+3,w
  7950  1D1B  00DC               	movwf	??_init_i2c+3
  7951  1D1C  3002               	movlw	2
  7952  1D1D                     u4825:
  7953  1D1D  1003               	clrc
  7954  1D1E  0DD9               	rlf	??_init_i2c,f
  7955  1D1F  0DDA               	rlf	??_init_i2c+1,f
  7956  1D20  0DDB               	rlf	??_init_i2c+2,f
  7957  1D21  0DDC               	rlf	??_init_i2c+3,f
  7958  1D22                     u4820:
  7959  1D22  3EFF               	addlw	-1
  7960  1D23  1D03               	skipz
  7961  1D24  2D1D               	goto	u4825
  7962  1D25  085C               	movf	??_init_i2c+3,w
  7963  1D26  00CB               	movwf	___lldiv@divisor+3
  7964  1D27  085B               	movf	??_init_i2c+2,w
  7965  1D28  00CA               	movwf	___lldiv@divisor+2
  7966  1D29  085A               	movf	??_init_i2c+1,w
  7967  1D2A  00C9               	movwf	___lldiv@divisor+1
  7968  1D2B  0859               	movf	??_init_i2c,w
  7969  1D2C  00C8               	movwf	___lldiv@divisor
  7970  1D2D  3001               	movlw	1
  7971  1D2E  00CF               	movwf	___lldiv@dividend+3
  7972  1D2F  3031               	movlw	49
  7973  1D30  00CE               	movwf	___lldiv@dividend+2
  7974  1D31  302D               	movlw	45
  7975  1D32  00CD               	movwf	___lldiv@dividend+1
  7976  1D33  3000               	movlw	0
  7977  1D34  00CC               	movwf	___lldiv@dividend
  7978  1D35  160A  158A  272F  160A  158A  	fcall	___lldiv
  7979  1D3A  1283               	bcf	3,5	;RP0=0, select bank0
  7980  1D3B  1303               	bcf	3,6	;RP1=0, select bank0
  7981  1D3C  0848               	movf	?___lldiv,w
  7982  1D3D  3EFF               	addlw	255
  7983  1D3E  1683               	bsf	3,5	;RP0=1, select bank1
  7984  1D3F  1303               	bcf	3,6	;RP1=0, select bank1
  7985  1D40  0093               	movwf	19	;volatile
  7986  1D41                     l4776:
  7987                           
  7988                           ;i2c.c: 13:     SSPEN = 1;
  7989  1D41  1283               	bcf	3,5	;RP0=0, select bank0
  7990  1D42  1303               	bcf	3,6	;RP1=0, select bank0
  7991  1D43  1694               	bsf	20,5	;volatile
  7992  1D44                     l123:
  7993  1D44  0008               	return
  7994  1D45                     __end_of_init_i2c:
  7995                           
  7996                           	psect	text11
  7997  1F2F                     __ptext11:	
  7998 ;; *************** function ___lldiv *****************
  7999 ;; Defined at:
  8000 ;;		line 5 in file "C:\Program Files\Microchip\xc8\v2.32\pic\sources\c90\common\__lldiv.c"
  8001 ;; Parameters:    Size  Location     Type
  8002 ;;  divisor         4    0[BANK0 ] unsigned long 
  8003 ;;  dividend        4    4[BANK0 ] unsigned long 
  8004 ;; Auto vars:     Size  Location     Type
  8005 ;;  quotient        4    8[BANK0 ] unsigned long 
  8006 ;;  counter         1   12[BANK0 ] unsigned char 
  8007 ;; Return value:  Size  Location     Type
  8008 ;;                  4    0[BANK0 ] unsigned long 
  8009 ;; Registers used:
  8010 ;;		wreg, status,2, status,0
  8011 ;; Tracked objects:
  8012 ;;		On entry : 0/0
  8013 ;;		On exit  : 0/0
  8014 ;;		Unchanged: 0/0
  8015 ;; Data sizes:     COMMON   BANK0   BANK1   BANK3   BANK2
  8016 ;;      Params:         0       8       0       0       0
  8017 ;;      Locals:         0       5       0       0       0
  8018 ;;      Temps:          1       0       0       0       0
  8019 ;;      Totals:         1      13       0       0       0
  8020 ;;Total ram usage:       14 bytes
  8021 ;; Hardware stack levels used: 1
  8022 ;; Hardware stack levels required when called: 1
  8023 ;; This function calls:
  8024 ;;		Nothing
  8025 ;; This function is called by:
  8026 ;;		_init_i2c
  8027 ;; This function uses a non-reentrant model
  8028 ;;
  8029                           
  8030                           
  8031                           ;psect for function ___lldiv
  8032  1F2F                     ___lldiv:
  8033  1F2F                     l4630:	
  8034                           ;incstack = 0
  8035                           ; Regs used in ___lldiv: [wreg+status,2+status,0]
  8036                           
  8037  1F2F  3000               	movlw	0
  8038  1F30  1283               	bcf	3,5	;RP0=0, select bank0
  8039  1F31  1303               	bcf	3,6	;RP1=0, select bank0
  8040  1F32  00D3               	movwf	___lldiv@quotient+3
  8041  1F33  3000               	movlw	0
  8042  1F34  00D2               	movwf	___lldiv@quotient+2
  8043  1F35  3000               	movlw	0
  8044  1F36  00D1               	movwf	___lldiv@quotient+1
  8045  1F37  3000               	movlw	0
  8046  1F38  00D0               	movwf	___lldiv@quotient
  8047  1F39  084B               	movf	___lldiv@divisor+3,w
  8048  1F3A  044A               	iorwf	___lldiv@divisor+2,w
  8049  1F3B  0449               	iorwf	___lldiv@divisor+1,w
  8050  1F3C  0448               	iorwf	___lldiv@divisor,w
  8051  1F3D  1903               	skipnz
  8052  1F3E  2F40               	goto	u4541
  8053  1F3F  2F41               	goto	u4540
  8054  1F40                     u4541:
  8055  1F40  2F8E               	goto	l4650
  8056  1F41                     u4540:
  8057  1F41                     l4632:
  8058  1F41  01D4               	clrf	___lldiv@counter
  8059  1F42  0AD4               	incf	___lldiv@counter,f
  8060  1F43  2F51               	goto	l4636
  8061  1F44                     l4634:
  8062  1F44  3001               	movlw	1
  8063  1F45  00F4               	movwf	??___lldiv
  8064  1F46                     u4555:
  8065  1F46  1003               	clrc
  8066  1F47  0DC8               	rlf	___lldiv@divisor,f
  8067  1F48  0DC9               	rlf	___lldiv@divisor+1,f
  8068  1F49  0DCA               	rlf	___lldiv@divisor+2,f
  8069  1F4A  0DCB               	rlf	___lldiv@divisor+3,f
  8070  1F4B  0BF4               	decfsz	??___lldiv,f
  8071  1F4C  2F46               	goto	u4555
  8072  1F4D  3001               	movlw	1
  8073  1F4E  00F4               	movwf	??___lldiv
  8074  1F4F  0874               	movf	??___lldiv,w
  8075  1F50  07D4               	addwf	___lldiv@counter,f
  8076  1F51                     l4636:
  8077  1F51  1FCB               	btfss	___lldiv@divisor+3,7
  8078  1F52  2F54               	goto	u4561
  8079  1F53  2F55               	goto	u4560
  8080  1F54                     u4561:
  8081  1F54  2F44               	goto	l4634
  8082  1F55                     u4560:
  8083  1F55                     l4638:
  8084  1F55  3001               	movlw	1
  8085  1F56  00F4               	movwf	??___lldiv
  8086  1F57                     u4575:
  8087  1F57  1003               	clrc
  8088  1F58  0DD0               	rlf	___lldiv@quotient,f
  8089  1F59  0DD1               	rlf	___lldiv@quotient+1,f
  8090  1F5A  0DD2               	rlf	___lldiv@quotient+2,f
  8091  1F5B  0DD3               	rlf	___lldiv@quotient+3,f
  8092  1F5C  0BF4               	decfsz	??___lldiv,f
  8093  1F5D  2F57               	goto	u4575
  8094  1F5E                     l4640:
  8095  1F5E  084B               	movf	___lldiv@divisor+3,w
  8096  1F5F  024F               	subwf	___lldiv@dividend+3,w
  8097  1F60  1D03               	skipz
  8098  1F61  2F6C               	goto	u4585
  8099  1F62  084A               	movf	___lldiv@divisor+2,w
  8100  1F63  024E               	subwf	___lldiv@dividend+2,w
  8101  1F64  1D03               	skipz
  8102  1F65  2F6C               	goto	u4585
  8103  1F66  0849               	movf	___lldiv@divisor+1,w
  8104  1F67  024D               	subwf	___lldiv@dividend+1,w
  8105  1F68  1D03               	skipz
  8106  1F69  2F6C               	goto	u4585
  8107  1F6A  0848               	movf	___lldiv@divisor,w
  8108  1F6B  024C               	subwf	___lldiv@dividend,w
  8109  1F6C                     u4585:
  8110  1F6C  1C03               	skipc
  8111  1F6D  2F6F               	goto	u4581
  8112  1F6E  2F70               	goto	u4580
  8113  1F6F                     u4581:
  8114  1F6F  2F7F               	goto	l4646
  8115  1F70                     u4580:
  8116  1F70                     l4642:
  8117  1F70  0848               	movf	___lldiv@divisor,w
  8118  1F71  02CC               	subwf	___lldiv@dividend,f
  8119  1F72  0849               	movf	___lldiv@divisor+1,w
  8120  1F73  1C03               	skipc
  8121  1F74  0F49               	incfsz	___lldiv@divisor+1,w
  8122  1F75  02CD               	subwf	___lldiv@dividend+1,f
  8123  1F76  084A               	movf	___lldiv@divisor+2,w
  8124  1F77  1C03               	skipc
  8125  1F78  0F4A               	incfsz	___lldiv@divisor+2,w
  8126  1F79  02CE               	subwf	___lldiv@dividend+2,f
  8127  1F7A  084B               	movf	___lldiv@divisor+3,w
  8128  1F7B  1C03               	skipc
  8129  1F7C  0F4B               	incfsz	___lldiv@divisor+3,w
  8130  1F7D  02CF               	subwf	___lldiv@dividend+3,f
  8131  1F7E                     l4644:
  8132  1F7E  1450               	bsf	___lldiv@quotient,0
  8133  1F7F                     l4646:
  8134  1F7F  3001               	movlw	1
  8135  1F80                     u4595:
  8136  1F80  1003               	clrc
  8137  1F81  0CCB               	rrf	___lldiv@divisor+3,f
  8138  1F82  0CCA               	rrf	___lldiv@divisor+2,f
  8139  1F83  0CC9               	rrf	___lldiv@divisor+1,f
  8140  1F84  0CC8               	rrf	___lldiv@divisor,f
  8141  1F85  3EFF               	addlw	-1
  8142  1F86  1D03               	skipz
  8143  1F87  2F80               	goto	u4595
  8144  1F88                     l4648:
  8145  1F88  3001               	movlw	1
  8146  1F89  02D4               	subwf	___lldiv@counter,f
  8147  1F8A  1D03               	btfss	3,2
  8148  1F8B  2F8D               	goto	u4601
  8149  1F8C  2F8E               	goto	u4600
  8150  1F8D                     u4601:
  8151  1F8D  2F55               	goto	l4638
  8152  1F8E                     u4600:
  8153  1F8E                     l4650:
  8154  1F8E  0853               	movf	___lldiv@quotient+3,w
  8155  1F8F  00CB               	movwf	?___lldiv+3
  8156  1F90  0852               	movf	___lldiv@quotient+2,w
  8157  1F91  00CA               	movwf	?___lldiv+2
  8158  1F92  0851               	movf	___lldiv@quotient+1,w
  8159  1F93  00C9               	movwf	?___lldiv+1
  8160  1F94  0850               	movf	___lldiv@quotient,w
  8161  1F95  00C8               	movwf	?___lldiv
  8162  1F96                     l775:
  8163  1F96  0008               	return
  8164  1F97                     __end_of___lldiv:
  8165                           
  8166                           	psect	text12
  8167  1BB7                     __ptext12:	
  8168 ;; *************** function _init_ds1307 *****************
  8169 ;; Defined at:
  8170 ;;		line 5 in file "ds1307.c"
  8171 ;; Parameters:    Size  Location     Type
  8172 ;;		None
  8173 ;; Auto vars:     Size  Location     Type
  8174 ;;  dummy           1   24[BANK0 ] unsigned char 
  8175 ;; Return value:  Size  Location     Type
  8176 ;;                  1    wreg      void 
  8177 ;; Registers used:
  8178 ;;		wreg, status,2, status,0, pclath, cstack
  8179 ;; Tracked objects:
  8180 ;;		On entry : 0/0
  8181 ;;		On exit  : 0/0
  8182 ;;		Unchanged: 0/0
  8183 ;; Data sizes:     COMMON   BANK0   BANK1   BANK3   BANK2
  8184 ;;      Params:         0       0       0       0       0
  8185 ;;      Locals:         0       1       0       0       0
  8186 ;;      Temps:          0       1       0       0       0
  8187 ;;      Totals:         0       2       0       0       0
  8188 ;;Total ram usage:        2 bytes
  8189 ;; Hardware stack levels used: 1
  8190 ;; Hardware stack levels required when called: 5
  8191 ;; This function calls:
  8192 ;;		_read_ds1307
  8193 ;;		_write_ds1307
  8194 ;; This function is called by:
  8195 ;;		_init_config
  8196 ;; This function uses a non-reentrant model
  8197 ;;
  8198                           
  8199                           
  8200                           ;psect for function _init_ds1307
  8201  1BB7                     _init_ds1307:
  8202  1BB7                     l4756:	
  8203                           ;incstack = 0
  8204                           ; Regs used in _init_ds1307: [wreg+status,2+status,0+pclath+cstack]
  8205                           
  8206                           
  8207                           ;ds1307.c: 7:     unsigned char dummy;;ds1307.c: 9:     dummy = read_ds1307(0x00);
  8208  1BB7  3000               	movlw	0
  8209  1BB8  160A  158A  2545  160A  158A  	fcall	_read_ds1307
  8210  1BBD  1283               	bcf	3,5	;RP0=0, select bank0
  8211  1BBE  1303               	bcf	3,6	;RP1=0, select bank0
  8212  1BBF  00DF               	movwf	??_init_ds1307
  8213  1BC0  085F               	movf	??_init_ds1307,w
  8214  1BC1  00E0               	movwf	init_ds1307@dummy
  8215  1BC2                     l4758:
  8216                           
  8217                           ;ds1307.c: 10:     dummy = dummy & 0x7F;
  8218  1BC2  0860               	movf	init_ds1307@dummy,w
  8219  1BC3  397F               	andlw	127
  8220  1BC4  00DF               	movwf	??_init_ds1307
  8221  1BC5  085F               	movf	??_init_ds1307,w
  8222  1BC6  00E0               	movwf	init_ds1307@dummy
  8223  1BC7                     l4760:
  8224                           
  8225                           ;ds1307.c: 11:     write_ds1307(0x00, dummy);
  8226  1BC7  0860               	movf	init_ds1307@dummy,w
  8227  1BC8  00DF               	movwf	??_init_ds1307
  8228  1BC9  085F               	movf	??_init_ds1307,w
  8229  1BCA  00DD               	movwf	write_ds1307@data
  8230  1BCB  3000               	movlw	0
  8231  1BCC  160A  158A  2439  160A  158A  	fcall	_write_ds1307
  8232  1BD1                     l66:
  8233  1BD1  0008               	return
  8234  1BD2                     __end_of_init_ds1307:
  8235                           
  8236                           	psect	text13
  8237  1C39                     __ptext13:	
  8238 ;; *************** function _write_ds1307 *****************
  8239 ;; Defined at:
  8240 ;;		line 29 in file "ds1307.c"
  8241 ;; Parameters:    Size  Location     Type
  8242 ;;  addr            1    wreg     unsigned char 
  8243 ;;  data            1   21[BANK0 ] unsigned char 
  8244 ;; Auto vars:     Size  Location     Type
  8245 ;;  addr            1   22[BANK0 ] unsigned char 
  8246 ;; Return value:  Size  Location     Type
  8247 ;;                  1    wreg      void 
  8248 ;; Registers used:
  8249 ;;		wreg, status,2, status,0, pclath, cstack
  8250 ;; Tracked objects:
  8251 ;;		On entry : 0/0
  8252 ;;		On exit  : 0/0
  8253 ;;		Unchanged: 0/0
  8254 ;; Data sizes:     COMMON   BANK0   BANK1   BANK3   BANK2
  8255 ;;      Params:         0       1       0       0       0
  8256 ;;      Locals:         0       1       0       0       0
  8257 ;;      Temps:          0       0       0       0       0
  8258 ;;      Totals:         0       2       0       0       0
  8259 ;;Total ram usage:        2 bytes
  8260 ;; Hardware stack levels used: 1
  8261 ;; Hardware stack levels required when called: 3
  8262 ;; This function calls:
  8263 ;;		_i2c_start
  8264 ;;		_i2c_stop
  8265 ;;		_i2c_write
  8266 ;; This function is called by:
  8267 ;;		_init_ds1307
  8268 ;;		_main
  8269 ;; This function uses a non-reentrant model
  8270 ;;
  8271                           
  8272                           
  8273                           ;psect for function _write_ds1307
  8274  1C39                     _write_ds1307:
  8275                           
  8276                           ;incstack = 0
  8277                           ; Regs used in _write_ds1307: [wreg+status,2+status,0+pclath+cstack]
  8278                           ;write_ds1307@addr stored from wreg
  8279  1C39  1283               	bcf	3,5	;RP0=0, select bank0
  8280  1C3A  1303               	bcf	3,6	;RP1=0, select bank0
  8281  1C3B  00DE               	movwf	write_ds1307@addr
  8282  1C3C                     l4578:
  8283                           
  8284                           ;ds1307.c: 29: void write_ds1307(unsigned char addr, unsigned char data);ds1307.c: 30: {
      +                          ;ds1307.c: 31:     i2c_start();
  8285  1C3C  160A  158A  233A  160A  158A  	fcall	_i2c_start
  8286                           
  8287                           ;ds1307.c: 32:     i2c_write(0b11010000);
  8288  1C41  30D0               	movlw	208
  8289  1C42  160A  158A  2356  160A  158A  	fcall	_i2c_write
  8290                           
  8291                           ;ds1307.c: 33:     i2c_write(addr);
  8292  1C47  1283               	bcf	3,5	;RP0=0, select bank0
  8293  1C48  1303               	bcf	3,6	;RP1=0, select bank0
  8294  1C49  085E               	movf	write_ds1307@addr,w
  8295  1C4A  160A  158A  2356  160A  158A  	fcall	_i2c_write
  8296                           
  8297                           ;ds1307.c: 34:     i2c_write(data);
  8298  1C4F  1283               	bcf	3,5	;RP0=0, select bank0
  8299  1C50  1303               	bcf	3,6	;RP1=0, select bank0
  8300  1C51  085D               	movf	write_ds1307@data,w
  8301  1C52  160A  158A  2356  160A  158A  	fcall	_i2c_write
  8302                           
  8303                           ;ds1307.c: 35:     i2c_stop();
  8304  1C57  160A  158A  2343  160A  158A  	fcall	_i2c_stop
  8305  1C5C                     l72:
  8306  1C5C  0008               	return
  8307  1C5D                     __end_of_write_ds1307:
  8308                           
  8309                           	psect	text14
  8310  1B25                     __ptext14:	
  8311 ;; *************** function _init_digital_keypad *****************
  8312 ;; Defined at:
  8313 ;;		line 4 in file "digital_keypad.c"
  8314 ;; Parameters:    Size  Location     Type
  8315 ;;		None
  8316 ;; Auto vars:     Size  Location     Type
  8317 ;;		None
  8318 ;; Return value:  Size  Location     Type
  8319 ;;                  1    wreg      void 
  8320 ;; Registers used:
  8321 ;;		wreg, status,2
  8322 ;; Tracked objects:
  8323 ;;		On entry : 0/0
  8324 ;;		On exit  : 0/0
  8325 ;;		Unchanged: 0/0
  8326 ;; Data sizes:     COMMON   BANK0   BANK1   BANK3   BANK2
  8327 ;;      Params:         0       0       0       0       0
  8328 ;;      Locals:         0       0       0       0       0
  8329 ;;      Temps:          0       0       0       0       0
  8330 ;;      Totals:         0       0       0       0       0
  8331 ;;Total ram usage:        0 bytes
  8332 ;; Hardware stack levels used: 1
  8333 ;; Hardware stack levels required when called: 1
  8334 ;; This function calls:
  8335 ;;		Nothing
  8336 ;; This function is called by:
  8337 ;;		_init_config
  8338 ;; This function uses a non-reentrant model
  8339 ;;
  8340                           
  8341                           
  8342                           ;psect for function _init_digital_keypad
  8343  1B25                     _init_digital_keypad:
  8344  1B25                     l4754:	
  8345                           ;incstack = 0
  8346                           ; Regs used in _init_digital_keypad: [wreg+status,2]
  8347                           
  8348                           
  8349                           ;digital_keypad.c: 7:     TRISB = TRISB | 0x3F;
  8350  1B25  1683               	bsf	3,5	;RP0=1, select bank1
  8351  1B26  1303               	bcf	3,6	;RP1=0, select bank1
  8352  1B27  0806               	movf	6,w	;volatile
  8353  1B28  383F               	iorlw	63
  8354  1B29  0086               	movwf	6	;volatile
  8355  1B2A                     l39:
  8356  1B2A  0008               	return
  8357  1B2B                     __end_of_init_digital_keypad:
  8358                           
  8359                           	psect	text15
  8360  0801                     __ptext15:	
  8361 ;; *************** function _init_clcd *****************
  8362 ;; Defined at:
  8363 ;;		line 44 in file "clcd.c"
  8364 ;; Parameters:    Size  Location     Type
  8365 ;;		None
  8366 ;; Auto vars:     Size  Location     Type
  8367 ;;		None
  8368 ;; Return value:  Size  Location     Type
  8369 ;;                  1    wreg      void 
  8370 ;; Registers used:
  8371 ;;		wreg, status,2, status,0, pclath, cstack
  8372 ;; Tracked objects:
  8373 ;;		On entry : 0/0
  8374 ;;		On exit  : 0/0
  8375 ;;		Unchanged: 0/0
  8376 ;; Data sizes:     COMMON   BANK0   BANK1   BANK3   BANK2
  8377 ;;      Params:         0       0       0       0       0
  8378 ;;      Locals:         0       0       0       0       0
  8379 ;;      Temps:          0       0       0       0       0
  8380 ;;      Totals:         0       0       0       0       0
  8381 ;;Total ram usage:        0 bytes
  8382 ;; Hardware stack levels used: 1
  8383 ;; Hardware stack levels required when called: 3
  8384 ;; This function calls:
  8385 ;;		_init_display_controller
  8386 ;; This function is called by:
  8387 ;;		_init_config
  8388 ;; This function uses a non-reentrant model
  8389 ;;
  8390                           
  8391                           
  8392                           ;psect for function _init_clcd
  8393  0801                     _init_clcd:
  8394  0801                     l4736:	
  8395                           ;incstack = 0
  8396                           ; Regs used in _init_clcd: [wreg+status,2+status,0+pclath+cstack]
  8397                           
  8398                           
  8399                           ;clcd.c: 47:     TRISD = 0x00;
  8400  0801  1683               	bsf	3,5	;RP0=1, select bank1
  8401  0802  1303               	bcf	3,6	;RP1=0, select bank1
  8402  0803  0188               	clrf	8	;volatile
  8403  0804                     l4738:
  8404                           
  8405                           ;clcd.c: 50:     TRISE2 = 0;
  8406  0804  1109               	bcf	9,2	;volatile
  8407  0805                     l4740:
  8408                           
  8409                           ;clcd.c: 51:     TRISE1 = 0;
  8410  0805  1089               	bcf	9,1	;volatile
  8411  0806                     l4742:
  8412                           
  8413                           ;clcd.c: 53:     init_display_controller();
  8414  0806  160A  118A  20BA  120A  158A  	fcall	_init_display_controller
  8415  080B                     l23:
  8416  080B  0008               	return
  8417  080C                     __end_of_init_clcd:
  8418                           
  8419                           	psect	text16
  8420  10BA                     __ptext16:	
  8421 ;; *************** function _init_display_controller *****************
  8422 ;; Defined at:
  8423 ;;		line 21 in file "clcd.c"
  8424 ;; Parameters:    Size  Location     Type
  8425 ;;		None
  8426 ;; Auto vars:     Size  Location     Type
  8427 ;;		None
  8428 ;; Return value:  Size  Location     Type
  8429 ;;                  1    wreg      void 
  8430 ;; Registers used:
  8431 ;;		wreg, status,2, status,0, pclath, cstack
  8432 ;; Tracked objects:
  8433 ;;		On entry : 0/0
  8434 ;;		On exit  : 0/0
  8435 ;;		Unchanged: 0/0
  8436 ;; Data sizes:     COMMON   BANK0   BANK1   BANK3   BANK2
  8437 ;;      Params:         0       0       0       0       0
  8438 ;;      Locals:         0       0       0       0       0
  8439 ;;      Temps:          0       2       0       0       0
  8440 ;;      Totals:         0       2       0       0       0
  8441 ;;Total ram usage:        2 bytes
  8442 ;; Hardware stack levels used: 1
  8443 ;; Hardware stack levels required when called: 2
  8444 ;; This function calls:
  8445 ;;		_clcd_write
  8446 ;; This function is called by:
  8447 ;;		_init_clcd
  8448 ;; This function uses a non-reentrant model
  8449 ;;
  8450                           
  8451                           
  8452                           ;psect for function _init_display_controller
  8453  10BA                     _init_display_controller:
  8454  10BA                     l4554:	
  8455                           ;incstack = 0
  8456                           ; Regs used in _init_display_controller: [wreg+status,2+status,0+pclath+cstack]
  8457                           
  8458                           
  8459                           ;clcd.c: 24:     _delay((unsigned long)((30)*(20000000/4000.0)));
  8460  10BA  30C3               	movlw	195
  8461  10BB  1283               	bcf	3,5	;RP0=0, select bank0
  8462  10BC  1303               	bcf	3,6	;RP1=0, select bank0
  8463  10BD  00CB               	movwf	??_init_display_controller+1
  8464  10BE  30CC               	movlw	204
  8465  10BF  00CA               	movwf	??_init_display_controller
  8466  10C0                     u6607:
  8467  10C0  0BCA               	decfsz	??_init_display_controller,f
  8468  10C1  28C0               	goto	u6607
  8469  10C2  0BCB               	decfsz	??_init_display_controller+1,f
  8470  10C3  28C0               	goto	u6607
  8471  10C4  0000               	nop
  8472  10C5                     l4556:
  8473                           
  8474                           ;clcd.c: 27:     clcd_write(0x33, 0);
  8475  10C5  01F4               	clrf	clcd_write@mode
  8476  10C6  3033               	movlw	51
  8477  10C7  160A  158A  25E4  160A  118A  	fcall	_clcd_write
  8478  10CC                     l4558:
  8479                           
  8480                           ;clcd.c: 28:     _delay((unsigned long)((4100)*(20000000/4000000.0)));
  8481  10CC  301B               	movlw	27
  8482  10CD  1283               	bcf	3,5	;RP0=0, select bank0
  8483  10CE  1303               	bcf	3,6	;RP1=0, select bank0
  8484  10CF  00CB               	movwf	??_init_display_controller+1
  8485  10D0  309D               	movlw	157
  8486  10D1  00CA               	movwf	??_init_display_controller
  8487  10D2                     u6617:
  8488  10D2  0BCA               	decfsz	??_init_display_controller,f
  8489  10D3  28D2               	goto	u6617
  8490  10D4  0BCB               	decfsz	??_init_display_controller+1,f
  8491  10D5  28D2               	goto	u6617
  8492  10D6  28D7               	nop2
  8493                           
  8494                           ;clcd.c: 29:     clcd_write(0x33, 0);
  8495  10D7  01F4               	clrf	clcd_write@mode
  8496  10D8  3033               	movlw	51
  8497  10D9  160A  158A  25E4  160A  118A  	fcall	_clcd_write
  8498  10DE                     l4560:
  8499                           
  8500                           ;clcd.c: 30:     _delay((unsigned long)((100)*(20000000/4000000.0)));
  8501  10DE  30A5               	movlw	165
  8502  10DF  1283               	bcf	3,5	;RP0=0, select bank0
  8503  10E0  1303               	bcf	3,6	;RP1=0, select bank0
  8504  10E1  00CA               	movwf	??_init_display_controller
  8505  10E2                     u6627:
  8506  10E2  0BCA               	decfsz	??_init_display_controller,f
  8507  10E3  28E2               	goto	u6627
  8508  10E4  28E5               	nop2
  8509  10E5                     l4562:
  8510                           
  8511                           ;clcd.c: 31:     clcd_write(0x33, 0);
  8512  10E5  01F4               	clrf	clcd_write@mode
  8513  10E6  3033               	movlw	51
  8514  10E7  160A  158A  25E4  160A  118A  	fcall	_clcd_write
  8515  10EC                     l4564:
  8516                           
  8517                           ;clcd.c: 32:     _delay((unsigned long)((1)*(20000000/4000000.0)));
  8518  10EC  28ED               	nop2	;2 cycle nop
  8519  10ED  28EE               	nop2	;2 cycle nop
  8520  10EE  0000               	nop
  8521  10EF                     l4566:
  8522                           
  8523                           ;clcd.c: 34:     clcd_write(0x02, 0);
  8524  10EF  01F4               	clrf	clcd_write@mode
  8525  10F0  3002               	movlw	2
  8526  10F1  160A  158A  25E4  160A  118A  	fcall	_clcd_write
  8527  10F6                     l4568:
  8528                           
  8529                           ;clcd.c: 35:     _delay((unsigned long)((100)*(20000000/4000000.0)));
  8530  10F6  30A5               	movlw	165
  8531  10F7  1283               	bcf	3,5	;RP0=0, select bank0
  8532  10F8  1303               	bcf	3,6	;RP1=0, select bank0
  8533  10F9  00CA               	movwf	??_init_display_controller
  8534  10FA                     u6637:
  8535  10FA  0BCA               	decfsz	??_init_display_controller,f
  8536  10FB  28FA               	goto	u6637
  8537  10FC  28FD               	nop2
  8538                           
  8539                           ;clcd.c: 36:     clcd_write(0x28, 0);
  8540  10FD  01F4               	clrf	clcd_write@mode
  8541  10FE  3028               	movlw	40
  8542  10FF  160A  158A  25E4  160A  118A  	fcall	_clcd_write
  8543  1104                     l4570:
  8544                           
  8545                           ;clcd.c: 37:     _delay((unsigned long)((100)*(20000000/4000000.0)));
  8546  1104  30A5               	movlw	165
  8547  1105  1283               	bcf	3,5	;RP0=0, select bank0
  8548  1106  1303               	bcf	3,6	;RP1=0, select bank0
  8549  1107  00CA               	movwf	??_init_display_controller
  8550  1108                     u6647:
  8551  1108  0BCA               	decfsz	??_init_display_controller,f
  8552  1109  2908               	goto	u6647
  8553  110A  290B               	nop2
  8554  110B                     l4572:
  8555                           
  8556                           ;clcd.c: 38:     clcd_write(0x01, 0);
  8557  110B  01F4               	clrf	clcd_write@mode
  8558  110C  3001               	movlw	1
  8559  110D  160A  158A  25E4  160A  118A  	fcall	_clcd_write
  8560                           
  8561                           ;clcd.c: 39:     _delay((unsigned long)((500)*(20000000/4000000.0)));
  8562  1112  3004               	movlw	4
  8563  1113  1283               	bcf	3,5	;RP0=0, select bank0
  8564  1114  1303               	bcf	3,6	;RP1=0, select bank0
  8565  1115  00CB               	movwf	??_init_display_controller+1
  8566  1116  303D               	movlw	61
  8567  1117  00CA               	movwf	??_init_display_controller
  8568  1118                     u6657:
  8569  1118  0BCA               	decfsz	??_init_display_controller,f
  8570  1119  2918               	goto	u6657
  8571  111A  0BCB               	decfsz	??_init_display_controller+1,f
  8572  111B  2918               	goto	u6657
  8573  111C                     l4574:
  8574                           
  8575                           ;clcd.c: 40:     clcd_write(0x0C, 0);
  8576  111C  01F4               	clrf	clcd_write@mode
  8577  111D  300C               	movlw	12
  8578  111E  160A  158A  25E4  160A  118A  	fcall	_clcd_write
  8579  1123                     l4576:
  8580                           
  8581                           ;clcd.c: 41:     _delay((unsigned long)((100)*(20000000/4000000.0)));
  8582  1123  30A5               	movlw	165
  8583  1124  1283               	bcf	3,5	;RP0=0, select bank0
  8584  1125  1303               	bcf	3,6	;RP1=0, select bank0
  8585  1126  00CA               	movwf	??_init_display_controller
  8586  1127                     u6667:
  8587  1127  0BCA               	decfsz	??_init_display_controller,f
  8588  1128  2927               	goto	u6667
  8589  1129  292A               	nop2
  8590  112A                     l20:
  8591  112A  0008               	return
  8592  112B                     __end_of_init_display_controller:
  8593                           
  8594                           	psect	text17
  8595  1B1F                     __ptext17:	
  8596 ;; *************** function _init_buzzer *****************
  8597 ;; Defined at:
  8598 ;;		line 11 in file "buzzer.c"
  8599 ;; Parameters:    Size  Location     Type
  8600 ;;		None
  8601 ;; Auto vars:     Size  Location     Type
  8602 ;;		None
  8603 ;; Return value:  Size  Location     Type
  8604 ;;                  1    wreg      void 
  8605 ;; Registers used:
  8606 ;;		wreg, status,2
  8607 ;; Tracked objects:
  8608 ;;		On entry : 0/0
  8609 ;;		On exit  : 0/0
  8610 ;;		Unchanged: 0/0
  8611 ;; Data sizes:     COMMON   BANK0   BANK1   BANK3   BANK2
  8612 ;;      Params:         0       0       0       0       0
  8613 ;;      Locals:         0       0       0       0       0
  8614 ;;      Temps:          0       0       0       0       0
  8615 ;;      Totals:         0       0       0       0       0
  8616 ;;Total ram usage:        0 bytes
  8617 ;; Hardware stack levels used: 1
  8618 ;; Hardware stack levels required when called: 1
  8619 ;; This function calls:
  8620 ;;		Nothing
  8621 ;; This function is called by:
  8622 ;;		_init_config
  8623 ;; This function uses a non-reentrant model
  8624 ;;
  8625                           
  8626                           
  8627                           ;psect for function _init_buzzer
  8628  1B1F                     _init_buzzer:
  8629  1B1F                     l4784:	
  8630                           ;incstack = 0
  8631                           ; Regs used in _init_buzzer: [wreg+status,2]
  8632                           
  8633                           
  8634                           ;buzzer.c: 13:     TRISC = TRISC & 0xFD;
  8635  1B1F  1683               	bsf	3,5	;RP0=1, select bank1
  8636  1B20  1303               	bcf	3,6	;RP1=0, select bank1
  8637  1B21  0807               	movf	7,w	;volatile
  8638  1B22  39FD               	andlw	253
  8639  1B23  0087               	movwf	7	;volatile
  8640  1B24                     l647:
  8641  1B24  0008               	return
  8642  1B25                     __end_of_init_buzzer:
  8643                           
  8644                           	psect	text18
  8645  13C5                     __ptext18:	
  8646 ;; *************** function _display_event *****************
  8647 ;; Defined at:
  8648 ;;		line 920 in file "digital_alarm_clock_def.c"
  8649 ;; Parameters:    Size  Location     Type
  8650 ;;  reset_flag      1    wreg     unsigned char 
  8651 ;; Auto vars:     Size  Location     Type
  8652 ;;  reset_flag      1    7[BANK0 ] unsigned char 
  8653 ;; Return value:  Size  Location     Type
  8654 ;;                  1    wreg      unsigned char 
  8655 ;; Registers used:
  8656 ;;		wreg, fsr0l, fsr0h, status,2, status,0, btemp+1, pclath, cstack
  8657 ;; Tracked objects:
  8658 ;;		On entry : 0/0
  8659 ;;		On exit  : 0/0
  8660 ;;		Unchanged: 0/0
  8661 ;; Data sizes:     COMMON   BANK0   BANK1   BANK3   BANK2
  8662 ;;      Params:         0       0       0       0       0
  8663 ;;      Locals:         0       1       0       0       0
  8664 ;;      Temps:          0       1       0       0       0
  8665 ;;      Totals:         0       2       0       0       0
  8666 ;;Total ram usage:        2 bytes
  8667 ;; Hardware stack levels used: 1
  8668 ;; Hardware stack levels required when called: 5
  8669 ;; This function calls:
  8670 ;;		_clcd_print
  8671 ;;		_clcd_putch
  8672 ;;		_clear_screen
  8673 ;;		_read_EEPROM
  8674 ;; This function is called by:
  8675 ;;		_main
  8676 ;; This function uses a non-reentrant model
  8677 ;;
  8678                           
  8679                           
  8680                           ;psect for function _display_event
  8681  13C5                     _display_event:
  8682                           
  8683                           ;incstack = 0
  8684                           ; Regs used in _display_event: [wreg-fsr0h+status,2+status,0+btemp+1+pclath+cstack]
  8685                           ;display_event@reset_flag stored from wreg
  8686  13C5  1283               	bcf	3,5	;RP0=0, select bank0
  8687  13C6  1303               	bcf	3,6	;RP1=0, select bank0
  8688  13C7  00CF               	movwf	display_event@reset_flag
  8689  13C8                     l5646:
  8690                           
  8691                           ;digital_alarm_clock_def.c: 920: unsigned char display_event(unsigned char reset_flag);d
      +                          igital_alarm_clock_def.c: 921: {;digital_alarm_clock_def.c: 922:     if(reset_flag == 0x
      +                          15)
  8692  13C8  3015               	movlw	21
  8693  13C9  064F               	xorwf	display_event@reset_flag,w
  8694  13CA  1D03               	btfss	3,2
  8695  13CB  2BCD               	goto	u6211
  8696  13CC  2BCE               	goto	u6210
  8697  13CD                     u6211:
  8698  13CD  2CFA               	goto	l5692
  8699  13CE                     u6210:
  8700  13CE                     l5648:
  8701                           
  8702                           ;digital_alarm_clock_def.c: 923:     {;digital_alarm_clock_def.c: 924:         return_ti
      +                          me = 5;
  8703  13CE  3005               	movlw	5
  8704  13CF  00F6               	movwf	_return_time
  8705  13D0  3000               	movlw	0
  8706  13D1  00F7               	movwf	_return_time+1
  8707  13D2                     l5650:
  8708                           
  8709                           ;digital_alarm_clock_def.c: 925:         clear_screen();
  8710  13D2  160A  158A  2379  160A  118A  	fcall	_clear_screen
  8711  13D7                     l5652:
  8712                           
  8713                           ;digital_alarm_clock_def.c: 926:         clcd_print("# T - ", (0x80 + 0));
  8714  13D7  307C               	movlw	(low ((STR_17-__stringbase)| (0+32768)))& (0+255)
  8715  13D8  1283               	bcf	3,5	;RP0=0, select bank0
  8716  13D9  1303               	bcf	3,6	;RP1=0, select bank0
  8717  13DA  00CA               	movwf	clcd_print@str
  8718  13DB  3080               	movlw	128
  8719  13DC  00CB               	movwf	clcd_print@str+1
  8720  13DD  3080               	movlw	128
  8721  13DE  00CE               	movwf	??_display_event
  8722  13DF  084E               	movf	??_display_event,w
  8723  13E0  00CC               	movwf	clcd_print@addr
  8724  13E1  160A  158A  24DE  160A  118A  	fcall	_clcd_print
  8725  13E6                     l5654:
  8726                           
  8727                           ;digital_alarm_clock_def.c: 927:         clcd_print("0 D - ", (0xC0 + 0));
  8728  13E6  306E               	movlw	(low ((STR_18-__stringbase)| (0+32768)))& (0+255)
  8729  13E7  1283               	bcf	3,5	;RP0=0, select bank0
  8730  13E8  1303               	bcf	3,6	;RP1=0, select bank0
  8731  13E9  00CA               	movwf	clcd_print@str
  8732  13EA  3080               	movlw	128
  8733  13EB  00CB               	movwf	clcd_print@str+1
  8734  13EC  30C0               	movlw	192
  8735  13ED  00CE               	movwf	??_display_event
  8736  13EE  084E               	movf	??_display_event,w
  8737  13EF  00CC               	movwf	clcd_print@addr
  8738  13F0  160A  158A  24DE  160A  118A  	fcall	_clcd_print
  8739  13F5                     l5656:
  8740                           
  8741                           ;digital_alarm_clock_def.c: 928:         clcd_putch(read_EEPROM(0x01), (0x80 + 6));
  8742  13F5  3086               	movlw	134
  8743  13F6  1283               	bcf	3,5	;RP0=0, select bank0
  8744  13F7  1303               	bcf	3,6	;RP1=0, select bank0
  8745  13F8  00CE               	movwf	??_display_event
  8746  13F9  084E               	movf	??_display_event,w
  8747  13FA  00CC               	movwf	clcd_putch@addr
  8748  13FB  3001               	movlw	1
  8749  13FC  160A  158A  25AF  160A  118A  	fcall	_read_EEPROM
  8750  1401  120A  118A  27EA  160A  118A  	fcall	_clcd_putch
  8751  1406                     l5658:
  8752                           
  8753                           ;digital_alarm_clock_def.c: 929:         clcd_putch(read_EEPROM(0x02), (0x80 + 7));
  8754  1406  3087               	movlw	135
  8755  1407  1283               	bcf	3,5	;RP0=0, select bank0
  8756  1408  1303               	bcf	3,6	;RP1=0, select bank0
  8757  1409  00CE               	movwf	??_display_event
  8758  140A  084E               	movf	??_display_event,w
  8759  140B  00CC               	movwf	clcd_putch@addr
  8760  140C  3002               	movlw	2
  8761  140D  160A  158A  25AF  160A  118A  	fcall	_read_EEPROM
  8762  1412  120A  118A  27EA  160A  118A  	fcall	_clcd_putch
  8763  1417                     l5660:
  8764                           
  8765                           ;digital_alarm_clock_def.c: 930:         clcd_putch(':', (0x80 + 8));
  8766  1417  3088               	movlw	136
  8767  1418  1283               	bcf	3,5	;RP0=0, select bank0
  8768  1419  1303               	bcf	3,6	;RP1=0, select bank0
  8769  141A  00CE               	movwf	??_display_event
  8770  141B  084E               	movf	??_display_event,w
  8771  141C  00CC               	movwf	clcd_putch@addr
  8772  141D  303A               	movlw	58
  8773  141E  120A  118A  27EA  160A  118A  	fcall	_clcd_putch
  8774  1423                     l5662:
  8775                           
  8776                           ;digital_alarm_clock_def.c: 931:         clcd_putch(read_EEPROM(0x03), (0x80 + 9));
  8777  1423  3089               	movlw	137
  8778  1424  1283               	bcf	3,5	;RP0=0, select bank0
  8779  1425  1303               	bcf	3,6	;RP1=0, select bank0
  8780  1426  00CE               	movwf	??_display_event
  8781  1427  084E               	movf	??_display_event,w
  8782  1428  00CC               	movwf	clcd_putch@addr
  8783  1429  3003               	movlw	3
  8784  142A  160A  158A  25AF  160A  118A  	fcall	_read_EEPROM
  8785  142F  120A  118A  27EA  160A  118A  	fcall	_clcd_putch
  8786  1434                     l5664:
  8787                           
  8788                           ;digital_alarm_clock_def.c: 932:         clcd_putch(read_EEPROM(0x04), (0x80 + 10));
  8789  1434  308A               	movlw	138
  8790  1435  1283               	bcf	3,5	;RP0=0, select bank0
  8791  1436  1303               	bcf	3,6	;RP1=0, select bank0
  8792  1437  00CE               	movwf	??_display_event
  8793  1438  084E               	movf	??_display_event,w
  8794  1439  00CC               	movwf	clcd_putch@addr
  8795  143A  3004               	movlw	4
  8796  143B  160A  158A  25AF  160A  118A  	fcall	_read_EEPROM
  8797  1440  120A  118A  27EA  160A  118A  	fcall	_clcd_putch
  8798  1445                     l5666:
  8799                           
  8800                           ;digital_alarm_clock_def.c: 933:         clcd_putch(' ', (0x80 + 11));
  8801  1445  308B               	movlw	139
  8802  1446  1283               	bcf	3,5	;RP0=0, select bank0
  8803  1447  1303               	bcf	3,6	;RP1=0, select bank0
  8804  1448  00CE               	movwf	??_display_event
  8805  1449  084E               	movf	??_display_event,w
  8806  144A  00CC               	movwf	clcd_putch@addr
  8807  144B  3020               	movlw	32
  8808  144C  120A  118A  27EA  160A  118A  	fcall	_clcd_putch
  8809  1451                     l5668:
  8810                           
  8811                           ;digital_alarm_clock_def.c: 934:         clcd_putch(read_EEPROM(0x05), (0x80 + 12));
  8812  1451  308C               	movlw	140
  8813  1452  1283               	bcf	3,5	;RP0=0, select bank0
  8814  1453  1303               	bcf	3,6	;RP1=0, select bank0
  8815  1454  00CE               	movwf	??_display_event
  8816  1455  084E               	movf	??_display_event,w
  8817  1456  00CC               	movwf	clcd_putch@addr
  8818  1457  3005               	movlw	5
  8819  1458  160A  158A  25AF  160A  118A  	fcall	_read_EEPROM
  8820  145D  120A  118A  27EA  160A  118A  	fcall	_clcd_putch
  8821  1462                     l5670:
  8822                           
  8823                           ;digital_alarm_clock_def.c: 935:         clcd_putch(read_EEPROM(0x06), (0x80 + 13));
  8824  1462  308D               	movlw	141
  8825  1463  1283               	bcf	3,5	;RP0=0, select bank0
  8826  1464  1303               	bcf	3,6	;RP1=0, select bank0
  8827  1465  00CE               	movwf	??_display_event
  8828  1466  084E               	movf	??_display_event,w
  8829  1467  00CC               	movwf	clcd_putch@addr
  8830  1468  3006               	movlw	6
  8831  1469  160A  158A  25AF  160A  118A  	fcall	_read_EEPROM
  8832  146E  120A  118A  27EA  160A  118A  	fcall	_clcd_putch
  8833  1473                     l5672:
  8834                           
  8835                           ;digital_alarm_clock_def.c: 936:         clcd_putch('/', (0x80 + 15));
  8836  1473  308F               	movlw	143
  8837  1474  1283               	bcf	3,5	;RP0=0, select bank0
  8838  1475  1303               	bcf	3,6	;RP1=0, select bank0
  8839  1476  00CE               	movwf	??_display_event
  8840  1477  084E               	movf	??_display_event,w
  8841  1478  00CC               	movwf	clcd_putch@addr
  8842  1479  302F               	movlw	47
  8843  147A  120A  118A  27EA  160A  118A  	fcall	_clcd_putch
  8844  147F                     l5674:
  8845                           
  8846                           ;digital_alarm_clock_def.c: 938:         clcd_putch('0', (0xC0 + 6));
  8847  147F  30C6               	movlw	198
  8848  1480  1283               	bcf	3,5	;RP0=0, select bank0
  8849  1481  1303               	bcf	3,6	;RP1=0, select bank0
  8850  1482  00CE               	movwf	??_display_event
  8851  1483  084E               	movf	??_display_event,w
  8852  1484  00CC               	movwf	clcd_putch@addr
  8853  1485  3030               	movlw	48
  8854  1486  120A  118A  27EA  160A  118A  	fcall	_clcd_putch
  8855  148B                     l5676:
  8856                           
  8857                           ;digital_alarm_clock_def.c: 939:         clcd_putch('0', (0xC0 + 7));
  8858  148B  30C7               	movlw	199
  8859  148C  1283               	bcf	3,5	;RP0=0, select bank0
  8860  148D  1303               	bcf	3,6	;RP1=0, select bank0
  8861  148E  00CE               	movwf	??_display_event
  8862  148F  084E               	movf	??_display_event,w
  8863  1490  00CC               	movwf	clcd_putch@addr
  8864  1491  3030               	movlw	48
  8865  1492  120A  118A  27EA  160A  118A  	fcall	_clcd_putch
  8866  1497                     l5678:
  8867                           
  8868                           ;digital_alarm_clock_def.c: 940:         clcd_putch(':', (0xC0 + 8));
  8869  1497  30C8               	movlw	200
  8870  1498  1283               	bcf	3,5	;RP0=0, select bank0
  8871  1499  1303               	bcf	3,6	;RP1=0, select bank0
  8872  149A  00CE               	movwf	??_display_event
  8873  149B  084E               	movf	??_display_event,w
  8874  149C  00CC               	movwf	clcd_putch@addr
  8875  149D  303A               	movlw	58
  8876  149E  120A  118A  27EA  160A  118A  	fcall	_clcd_putch
  8877  14A3                     l5680:
  8878                           
  8879                           ;digital_alarm_clock_def.c: 941:         clcd_putch(read_EEPROM(0x07), (0xC0 + 9));
  8880  14A3  30C9               	movlw	201
  8881  14A4  1283               	bcf	3,5	;RP0=0, select bank0
  8882  14A5  1303               	bcf	3,6	;RP1=0, select bank0
  8883  14A6  00CE               	movwf	??_display_event
  8884  14A7  084E               	movf	??_display_event,w
  8885  14A8  00CC               	movwf	clcd_putch@addr
  8886  14A9  3007               	movlw	7
  8887  14AA  160A  158A  25AF  160A  118A  	fcall	_read_EEPROM
  8888  14AF  120A  118A  27EA  160A  118A  	fcall	_clcd_putch
  8889  14B4                     l5682:
  8890                           
  8891                           ;digital_alarm_clock_def.c: 942:         clcd_putch(read_EEPROM(0x08), (0xC0 + 10));
  8892  14B4  30CA               	movlw	202
  8893  14B5  1283               	bcf	3,5	;RP0=0, select bank0
  8894  14B6  1303               	bcf	3,6	;RP1=0, select bank0
  8895  14B7  00CE               	movwf	??_display_event
  8896  14B8  084E               	movf	??_display_event,w
  8897  14B9  00CC               	movwf	clcd_putch@addr
  8898  14BA  3008               	movlw	8
  8899  14BB  160A  158A  25AF  160A  118A  	fcall	_read_EEPROM
  8900  14C0  120A  118A  27EA  160A  118A  	fcall	_clcd_putch
  8901  14C5                     l5684:
  8902                           
  8903                           ;digital_alarm_clock_def.c: 943:         clcd_putch(':', (0xC0 + 11));
  8904  14C5  30CB               	movlw	203
  8905  14C6  1283               	bcf	3,5	;RP0=0, select bank0
  8906  14C7  1303               	bcf	3,6	;RP1=0, select bank0
  8907  14C8  00CE               	movwf	??_display_event
  8908  14C9  084E               	movf	??_display_event,w
  8909  14CA  00CC               	movwf	clcd_putch@addr
  8910  14CB  303A               	movlw	58
  8911  14CC  120A  118A  27EA  160A  118A  	fcall	_clcd_putch
  8912  14D1                     l5686:
  8913                           
  8914                           ;digital_alarm_clock_def.c: 944:         clcd_putch('0', (0xC0 + 12));
  8915  14D1  30CC               	movlw	204
  8916  14D2  1283               	bcf	3,5	;RP0=0, select bank0
  8917  14D3  1303               	bcf	3,6	;RP1=0, select bank0
  8918  14D4  00CE               	movwf	??_display_event
  8919  14D5  084E               	movf	??_display_event,w
  8920  14D6  00CC               	movwf	clcd_putch@addr
  8921  14D7  3030               	movlw	48
  8922  14D8  120A  118A  27EA  160A  118A  	fcall	_clcd_putch
  8923  14DD                     l5688:
  8924                           
  8925                           ;digital_alarm_clock_def.c: 945:         clcd_putch('0', (0xC0 + 13));
  8926  14DD  30CD               	movlw	205
  8927  14DE  1283               	bcf	3,5	;RP0=0, select bank0
  8928  14DF  1303               	bcf	3,6	;RP1=0, select bank0
  8929  14E0  00CE               	movwf	??_display_event
  8930  14E1  084E               	movf	??_display_event,w
  8931  14E2  00CC               	movwf	clcd_putch@addr
  8932  14E3  3030               	movlw	48
  8933  14E4  120A  118A  27EA  160A  118A  	fcall	_clcd_putch
  8934  14E9                     l5690:
  8935                           
  8936                           ;digital_alarm_clock_def.c: 946:         clcd_putch(read_EEPROM(0x09), (0xC0 + 15));
  8937  14E9  30CF               	movlw	207
  8938  14EA  1283               	bcf	3,5	;RP0=0, select bank0
  8939  14EB  1303               	bcf	3,6	;RP1=0, select bank0
  8940  14EC  00CE               	movwf	??_display_event
  8941  14ED  084E               	movf	??_display_event,w
  8942  14EE  00CC               	movwf	clcd_putch@addr
  8943  14EF  3009               	movlw	9
  8944  14F0  160A  158A  25AF  160A  118A  	fcall	_read_EEPROM
  8945  14F5  120A  118A  27EA  160A  118A  	fcall	_clcd_putch
  8946  14FA                     l5692:
  8947                           
  8948                           ;digital_alarm_clock_def.c: 949:     if(return_time == 0)
  8949  14FA  0876               	movf	_return_time,w
  8950  14FB  0477               	iorwf	_return_time+1,w
  8951  14FC  1D03               	btfss	3,2
  8952  14FD  2CFF               	goto	u6221
  8953  14FE  2D00               	goto	u6220
  8954  14FF                     u6221:
  8955  14FF  2D02               	goto	l5698
  8956  1500                     u6220:
  8957  1500                     l5694:
  8958                           
  8959                           ;digital_alarm_clock_def.c: 950:         return 0x22;
  8960  1500  3022               	movlw	34
  8961  1501  2D03               	goto	l615
  8962  1502                     l5698:
  8963                           
  8964                           ;digital_alarm_clock_def.c: 952:     return 0x30;
  8965  1502  3030               	movlw	48
  8966  1503                     l615:
  8967  1503  0008               	return
  8968  1504                     __end_of_display_event:
  8969                           
  8970                           	psect	text19
  8971  05E9                     __ptext19:	
  8972 ;; *************** function _display_dash_screen *****************
  8973 ;; Defined at:
  8974 ;;		line 111 in file "digital_alarm_clock_def.c"
  8975 ;; Parameters:    Size  Location     Type
  8976 ;;  reset_flag      1    wreg     unsigned char 
  8977 ;; Auto vars:     Size  Location     Type
  8978 ;;  reset_flag      1   18[BANK0 ] unsigned char 
  8979 ;; Return value:  Size  Location     Type
  8980 ;;                  1    wreg      void 
  8981 ;; Registers used:
  8982 ;;		wreg, fsr0l, fsr0h, status,2, status,0, btemp+1, pclath, cstack
  8983 ;; Tracked objects:
  8984 ;;		On entry : 0/0
  8985 ;;		On exit  : 0/0
  8986 ;;		Unchanged: 0/0
  8987 ;; Data sizes:     COMMON   BANK0   BANK1   BANK3   BANK2
  8988 ;;      Params:         0       0       0       0       0
  8989 ;;      Locals:         0       1       0       0       0
  8990 ;;      Temps:          0       1       0       0       0
  8991 ;;      Totals:         0       2       0       0       0
  8992 ;;Total ram usage:        2 bytes
  8993 ;; Hardware stack levels used: 1
  8994 ;; Hardware stack levels required when called: 7
  8995 ;; This function calls:
  8996 ;;		_clcd_print
  8997 ;;		_clcd_putch
  8998 ;;		_clear_screen
  8999 ;;		_display_date
  9000 ;;		_display_time
  9001 ;;		_read_EEPROM
  9002 ;;		_ring_alarm
  9003 ;; This function is called by:
  9004 ;;		_main
  9005 ;; This function uses a non-reentrant model
  9006 ;;
  9007                           
  9008                           
  9009                           ;psect for function _display_dash_screen
  9010  05E9                     _display_dash_screen:
  9011                           
  9012                           ;incstack = 0
  9013                           ; Regs used in _display_dash_screen: [wreg-fsr0h+status,2+status,0+btemp+1+pclath+cstack
      +                          ]
  9014                           ;display_dash_screen@reset_flag stored from wreg
  9015  05E9  1283               	bcf	3,5	;RP0=0, select bank0
  9016  05EA  1303               	bcf	3,6	;RP1=0, select bank0
  9017  05EB  00DA               	movwf	display_dash_screen@reset_flag
  9018  05EC                     l4946:
  9019                           
  9020                           ;digital_alarm_clock_def.c: 111: void display_dash_screen(unsigned char reset_flag);digi
      +                          tal_alarm_clock_def.c: 112: {;digital_alarm_clock_def.c: 113:     if(reset_flag == 0x17)
  9021  05EC  3017               	movlw	23
  9022  05ED  065A               	xorwf	display_dash_screen@reset_flag,w
  9023  05EE  1D03               	btfss	3,2
  9024  05EF  2DF1               	goto	u5061
  9025  05F0  2DF2               	goto	u5060
  9026  05F1                     u5061:
  9027  05F1  2E70               	goto	l4976
  9028  05F2                     u5060:
  9029  05F2                     l4948:
  9030                           
  9031                           ;digital_alarm_clock_def.c: 114:     {;digital_alarm_clock_def.c: 115:         return_ti
      +                          me = 5;
  9032  05F2  3005               	movlw	5
  9033  05F3  00F6               	movwf	_return_time
  9034  05F4  3000               	movlw	0
  9035  05F5  00F7               	movwf	_return_time+1
  9036  05F6                     l4950:
  9037                           
  9038                           ;digital_alarm_clock_def.c: 116:         sec = 0;
  9039  05F6  01BE               	clrf	_sec
  9040  05F7                     l4952:
  9041                           
  9042                           ;digital_alarm_clock_def.c: 117:         TMR2ON = 1;
  9043  05F7  1512               	bsf	18,2	;volatile
  9044  05F8                     l4954:
  9045                           
  9046                           ;digital_alarm_clock_def.c: 118:         clear_screen();
  9047  05F8  160A  158A  2379  120A  118A  	fcall	_clear_screen
  9048  05FD                     l4956:
  9049                           
  9050                           ;digital_alarm_clock_def.c: 119:         new_event[0] = read_EEPROM(0x01);
  9051  05FD  3001               	movlw	1
  9052  05FE  160A  158A  25AF  120A  118A  	fcall	_read_EEPROM
  9053  0603  1283               	bcf	3,5	;RP0=0, select bank0
  9054  0604  1303               	bcf	3,6	;RP1=0, select bank0
  9055  0605  00D9               	movwf	??_display_dash_screen
  9056  0606  0859               	movf	??_display_dash_screen,w
  9057  0607  1683               	bsf	3,5	;RP0=1, select bank1
  9058  0608  1303               	bcf	3,6	;RP1=0, select bank1
  9059  0609  00CD               	movwf	_new_event^(0+128)
  9060  060A                     l4958:
  9061                           
  9062                           ;digital_alarm_clock_def.c: 120:         new_event[1] = read_EEPROM(0x02);
  9063  060A  3002               	movlw	2
  9064  060B  160A  158A  25AF  120A  118A  	fcall	_read_EEPROM
  9065  0610  1283               	bcf	3,5	;RP0=0, select bank0
  9066  0611  1303               	bcf	3,6	;RP1=0, select bank0
  9067  0612  00D9               	movwf	??_display_dash_screen
  9068  0613  0859               	movf	??_display_dash_screen,w
  9069  0614  1683               	bsf	3,5	;RP0=1, select bank1
  9070  0615  1303               	bcf	3,6	;RP1=0, select bank1
  9071  0616  00CE               	movwf	(_new_event^(0+128)+1)
  9072  0617                     l4960:
  9073                           
  9074                           ;digital_alarm_clock_def.c: 121:         new_event[2] = ':';
  9075  0617  303A               	movlw	58
  9076  0618  1283               	bcf	3,5	;RP0=0, select bank0
  9077  0619  1303               	bcf	3,6	;RP1=0, select bank0
  9078  061A  00D9               	movwf	??_display_dash_screen
  9079  061B  0859               	movf	??_display_dash_screen,w
  9080  061C  1683               	bsf	3,5	;RP0=1, select bank1
  9081  061D  1303               	bcf	3,6	;RP1=0, select bank1
  9082  061E  00CF               	movwf	(_new_event^(0+128)+2)
  9083  061F                     l4962:
  9084                           
  9085                           ;digital_alarm_clock_def.c: 122:         new_event[3] = read_EEPROM(0x03);
  9086  061F  3003               	movlw	3
  9087  0620  160A  158A  25AF  120A  118A  	fcall	_read_EEPROM
  9088  0625  1283               	bcf	3,5	;RP0=0, select bank0
  9089  0626  1303               	bcf	3,6	;RP1=0, select bank0
  9090  0627  00D9               	movwf	??_display_dash_screen
  9091  0628  0859               	movf	??_display_dash_screen,w
  9092  0629  1683               	bsf	3,5	;RP0=1, select bank1
  9093  062A  1303               	bcf	3,6	;RP1=0, select bank1
  9094  062B  00D0               	movwf	(_new_event^(0+128)+3)
  9095  062C                     l4964:
  9096                           
  9097                           ;digital_alarm_clock_def.c: 123:         new_event[4] = read_EEPROM(0x04);
  9098  062C  3004               	movlw	4
  9099  062D  160A  158A  25AF  120A  118A  	fcall	_read_EEPROM
  9100  0632  1283               	bcf	3,5	;RP0=0, select bank0
  9101  0633  1303               	bcf	3,6	;RP1=0, select bank0
  9102  0634  00D9               	movwf	??_display_dash_screen
  9103  0635  0859               	movf	??_display_dash_screen,w
  9104  0636  1683               	bsf	3,5	;RP0=1, select bank1
  9105  0637  1303               	bcf	3,6	;RP1=0, select bank1
  9106  0638  00D1               	movwf	(_new_event^(0+128)+4)
  9107  0639                     l4966:
  9108                           
  9109                           ;digital_alarm_clock_def.c: 124:         new_event[5] = ' ';
  9110  0639  3020               	movlw	32
  9111  063A  1283               	bcf	3,5	;RP0=0, select bank0
  9112  063B  1303               	bcf	3,6	;RP1=0, select bank0
  9113  063C  00D9               	movwf	??_display_dash_screen
  9114  063D  0859               	movf	??_display_dash_screen,w
  9115  063E  1683               	bsf	3,5	;RP0=1, select bank1
  9116  063F  1303               	bcf	3,6	;RP1=0, select bank1
  9117  0640  00D2               	movwf	(_new_event^(0+128)+5)
  9118  0641                     l4968:
  9119                           
  9120                           ;digital_alarm_clock_def.c: 125:         new_event[6] = read_EEPROM(0x05);
  9121  0641  3005               	movlw	5
  9122  0642  160A  158A  25AF  120A  118A  	fcall	_read_EEPROM
  9123  0647  1283               	bcf	3,5	;RP0=0, select bank0
  9124  0648  1303               	bcf	3,6	;RP1=0, select bank0
  9125  0649  00D9               	movwf	??_display_dash_screen
  9126  064A  0859               	movf	??_display_dash_screen,w
  9127  064B  1683               	bsf	3,5	;RP0=1, select bank1
  9128  064C  1303               	bcf	3,6	;RP1=0, select bank1
  9129  064D  00D3               	movwf	(_new_event^(0+128)+6)
  9130  064E                     l4970:
  9131                           
  9132                           ;digital_alarm_clock_def.c: 126:         new_event[7] = read_EEPROM(0x06);
  9133  064E  3006               	movlw	6
  9134  064F  160A  158A  25AF  120A  118A  	fcall	_read_EEPROM
  9135  0654  1283               	bcf	3,5	;RP0=0, select bank0
  9136  0655  1303               	bcf	3,6	;RP1=0, select bank0
  9137  0656  00D9               	movwf	??_display_dash_screen
  9138  0657  0859               	movf	??_display_dash_screen,w
  9139  0658  1683               	bsf	3,5	;RP0=1, select bank1
  9140  0659  1303               	bcf	3,6	;RP1=0, select bank1
  9141  065A  00D4               	movwf	(_new_event^(0+128)+7)
  9142  065B                     l4972:
  9143                           
  9144                           ;digital_alarm_clock_def.c: 127:         new_event[8] = ' ';
  9145  065B  3020               	movlw	32
  9146  065C  1283               	bcf	3,5	;RP0=0, select bank0
  9147  065D  1303               	bcf	3,6	;RP1=0, select bank0
  9148  065E  00D9               	movwf	??_display_dash_screen
  9149  065F  0859               	movf	??_display_dash_screen,w
  9150  0660  1683               	bsf	3,5	;RP0=1, select bank1
  9151  0661  1303               	bcf	3,6	;RP1=0, select bank1
  9152  0662  00D5               	movwf	(_new_event^(0+128)+8)
  9153  0663                     l4974:
  9154                           
  9155                           ;digital_alarm_clock_def.c: 128:         new_event[9] = read_EEPROM(0x09);
  9156  0663  3009               	movlw	9
  9157  0664  160A  158A  25AF  120A  118A  	fcall	_read_EEPROM
  9158  0669  1283               	bcf	3,5	;RP0=0, select bank0
  9159  066A  1303               	bcf	3,6	;RP1=0, select bank0
  9160  066B  00D9               	movwf	??_display_dash_screen
  9161  066C  0859               	movf	??_display_dash_screen,w
  9162  066D  1683               	bsf	3,5	;RP0=1, select bank1
  9163  066E  1303               	bcf	3,6	;RP1=0, select bank1
  9164  066F  00D6               	movwf	(_new_event^(0+128)+9)
  9165  0670                     l4976:
  9166                           
  9167                           ;digital_alarm_clock_def.c: 130:     event = read_EEPROM(0x00) - '0';
  9168  0670  3000               	movlw	0
  9169  0671  160A  158A  25AF  120A  118A  	fcall	_read_EEPROM
  9170  0676  3ED0               	addlw	208
  9171  0677  1283               	bcf	3,5	;RP0=0, select bank0
  9172  0678  1303               	bcf	3,6	;RP1=0, select bank0
  9173  0679  00D9               	movwf	??_display_dash_screen
  9174  067A  0859               	movf	??_display_dash_screen,w
  9175  067B  00B6               	movwf	_event
  9176  067C                     l4978:
  9177                           
  9178                           ;digital_alarm_clock_def.c: 131:     if(event)
  9179  067C  0836               	movf	_event,w
  9180  067D  1903               	btfsc	3,2
  9181  067E  2E80               	goto	u5071
  9182  067F  2E81               	goto	u5070
  9183  0680                     u5071:
  9184  0680  2F16               	goto	l4992
  9185  0681                     u5070:
  9186  0681                     l4980:
  9187                           
  9188                           ;digital_alarm_clock_def.c: 132:     {;digital_alarm_clock_def.c: 133:         if(return
      +                          _time == 0)
  9189  0681  0876               	movf	_return_time,w
  9190  0682  0477               	iorwf	_return_time+1,w
  9191  0683  1D03               	btfss	3,2
  9192  0684  2E86               	goto	u5081
  9193  0685  2E87               	goto	u5080
  9194  0686                     u5081:
  9195  0686  2E8F               	goto	l4984
  9196  0687                     u5080:
  9197  0687                     l4982:
  9198                           
  9199                           ;digital_alarm_clock_def.c: 134:         {;digital_alarm_clock_def.c: 135:             s
      +                          ec = 2;
  9200  0687  3002               	movlw	2
  9201  0688  00D9               	movwf	??_display_dash_screen
  9202  0689  0859               	movf	??_display_dash_screen,w
  9203  068A  00BE               	movwf	_sec
  9204                           
  9205                           ;digital_alarm_clock_def.c: 136:             return_time = 5;
  9206  068B  3005               	movlw	5
  9207  068C  00F6               	movwf	_return_time
  9208  068D  3000               	movlw	0
  9209  068E  00F7               	movwf	_return_time+1
  9210  068F                     l4984:
  9211                           
  9212                           ;digital_alarm_clock_def.c: 139:         if(sec)
  9213  068F  083E               	movf	_sec,w
  9214  0690  1903               	btfsc	3,2
  9215  0691  2E93               	goto	u5091
  9216  0692  2E94               	goto	u5090
  9217  0693                     u5091:
  9218  0693  2ECF               	goto	l4988
  9219  0694                     u5090:
  9220  0694                     l4986:
  9221                           
  9222                           ;digital_alarm_clock_def.c: 140:         {;digital_alarm_clock_def.c: 141:             c
      +                          lcd_print("TIME  ", (0x80 + 0));
  9223  0694  3060               	movlw	(low ((STR_7-__stringbase)| (0+32768)))& (0+255)
  9224  0695  00CA               	movwf	clcd_print@str
  9225  0696  3080               	movlw	128
  9226  0697  00CB               	movwf	clcd_print@str+1
  9227  0698  3080               	movlw	128
  9228  0699  00D9               	movwf	??_display_dash_screen
  9229  069A  0859               	movf	??_display_dash_screen,w
  9230  069B  00CC               	movwf	clcd_print@addr
  9231  069C  160A  158A  24DE  120A  118A  	fcall	_clcd_print
  9232                           
  9233                           ;digital_alarm_clock_def.c: 143:             clcd_print(time, (0x80 + 6));
  9234  06A1  303F               	movlw	(low (_time| 0))& (0+255)
  9235  06A2  1283               	bcf	3,5	;RP0=0, select bank0
  9236  06A3  1303               	bcf	3,6	;RP1=0, select bank0
  9237  06A4  00CA               	movwf	clcd_print@str
  9238  06A5  3000               	movlw	0
  9239  06A6  00CB               	movwf	clcd_print@str+1
  9240  06A7  3086               	movlw	134
  9241  06A8  00D9               	movwf	??_display_dash_screen
  9242  06A9  0859               	movf	??_display_dash_screen,w
  9243  06AA  00CC               	movwf	clcd_print@addr
  9244  06AB  160A  158A  24DE  120A  118A  	fcall	_clcd_print
  9245                           
  9246                           ;digital_alarm_clock_def.c: 144:             clcd_print("EVENT ", (0xC0 + 0));
  9247  06B0  308A               	movlw	(low ((STR_8-__stringbase)| (0+32768)))& (0+255)
  9248  06B1  1283               	bcf	3,5	;RP0=0, select bank0
  9249  06B2  1303               	bcf	3,6	;RP1=0, select bank0
  9250  06B3  00CA               	movwf	clcd_print@str
  9251  06B4  3080               	movlw	128
  9252  06B5  00CB               	movwf	clcd_print@str+1
  9253  06B6  30C0               	movlw	192
  9254  06B7  00D9               	movwf	??_display_dash_screen
  9255  06B8  0859               	movf	??_display_dash_screen,w
  9256  06B9  00CC               	movwf	clcd_print@addr
  9257  06BA  160A  158A  24DE  120A  118A  	fcall	_clcd_print
  9258                           
  9259                           ;digital_alarm_clock_def.c: 146:             clcd_print(new_event, (0xC0 + 6));
  9260  06BF  30CD               	movlw	(low (_new_event| 0))& (0+255)
  9261  06C0  1283               	bcf	3,5	;RP0=0, select bank0
  9262  06C1  1303               	bcf	3,6	;RP1=0, select bank0
  9263  06C2  00CA               	movwf	clcd_print@str
  9264  06C3  3000               	movlw	0
  9265  06C4  00CB               	movwf	clcd_print@str+1
  9266  06C5  30C6               	movlw	198
  9267  06C6  00D9               	movwf	??_display_dash_screen
  9268  06C7  0859               	movf	??_display_dash_screen,w
  9269  06C8  00CC               	movwf	clcd_print@addr
  9270  06C9  160A  158A  24DE  120A  118A  	fcall	_clcd_print
  9271                           
  9272                           ;digital_alarm_clock_def.c: 147:         }
  9273  06CE  2F5C               	goto	l4996
  9274  06CF                     l4988:
  9275                           
  9276                           ;digital_alarm_clock_def.c: 149:         {;digital_alarm_clock_def.c: 150:             c
      +                          lcd_print("DATE  ", (0x80 + 0));
  9277  06CF  3067               	movlw	(low ((STR_9-__stringbase)| (0+32768)))& (0+255)
  9278  06D0  00CA               	movwf	clcd_print@str
  9279  06D1  3080               	movlw	128
  9280  06D2  00CB               	movwf	clcd_print@str+1
  9281  06D3  3080               	movlw	128
  9282  06D4  00D9               	movwf	??_display_dash_screen
  9283  06D5  0859               	movf	??_display_dash_screen,w
  9284  06D6  00CC               	movwf	clcd_print@addr
  9285  06D7  160A  158A  24DE  120A  118A  	fcall	_clcd_print
  9286                           
  9287                           ;digital_alarm_clock_def.c: 152:             clcd_print(date, (0x80 + 6));
  9288  06DC  30C3               	movlw	(low (_date| 0))& (0+255)
  9289  06DD  1283               	bcf	3,5	;RP0=0, select bank0
  9290  06DE  1303               	bcf	3,6	;RP1=0, select bank0
  9291  06DF  00CA               	movwf	clcd_print@str
  9292  06E0  3000               	movlw	0
  9293  06E1  00CB               	movwf	clcd_print@str+1
  9294  06E2  3086               	movlw	134
  9295  06E3  00D9               	movwf	??_display_dash_screen
  9296  06E4  0859               	movf	??_display_dash_screen,w
  9297  06E5  00CC               	movwf	clcd_print@addr
  9298  06E6  160A  158A  24DE  120A  118A  	fcall	_clcd_print
  9299                           
  9300                           ;digital_alarm_clock_def.c: 153:             clcd_print("TIME  ", (0xC0 + 0));
  9301  06EB  3060               	movlw	(low ((STR_7-__stringbase)| (0+32768)))& (0+255)
  9302  06EC  1283               	bcf	3,5	;RP0=0, select bank0
  9303  06ED  1303               	bcf	3,6	;RP1=0, select bank0
  9304  06EE  00CA               	movwf	clcd_print@str
  9305  06EF  3080               	movlw	128
  9306  06F0  00CB               	movwf	clcd_print@str+1
  9307  06F1  30C0               	movlw	192
  9308  06F2  00D9               	movwf	??_display_dash_screen
  9309  06F3  0859               	movf	??_display_dash_screen,w
  9310  06F4  00CC               	movwf	clcd_print@addr
  9311  06F5  160A  158A  24DE  120A  118A  	fcall	_clcd_print
  9312                           
  9313                           ;digital_alarm_clock_def.c: 155:             clcd_print(time, (0xC0 + 6));
  9314  06FA  303F               	movlw	(low (_time| 0))& (0+255)
  9315  06FB  1283               	bcf	3,5	;RP0=0, select bank0
  9316  06FC  1303               	bcf	3,6	;RP1=0, select bank0
  9317  06FD  00CA               	movwf	clcd_print@str
  9318  06FE  3000               	movlw	0
  9319  06FF  00CB               	movwf	clcd_print@str+1
  9320  0700  30C6               	movlw	198
  9321  0701  00D9               	movwf	??_display_dash_screen
  9322  0702  0859               	movf	??_display_dash_screen,w
  9323  0703  00CC               	movwf	clcd_print@addr
  9324  0704  160A  158A  24DE  120A  118A  	fcall	_clcd_print
  9325  0709                     l4990:
  9326                           
  9327                           ;digital_alarm_clock_def.c: 156:             clcd_putch(' ', (0xC0 + 15));
  9328  0709  30CF               	movlw	207
  9329  070A  1283               	bcf	3,5	;RP0=0, select bank0
  9330  070B  1303               	bcf	3,6	;RP1=0, select bank0
  9331  070C  00D9               	movwf	??_display_dash_screen
  9332  070D  0859               	movf	??_display_dash_screen,w
  9333  070E  00CC               	movwf	clcd_putch@addr
  9334  070F  3020               	movlw	32
  9335  0710  120A  118A  27EA  120A  118A  	fcall	_clcd_putch
  9336  0715  2F5C               	goto	l4996
  9337  0716                     l4992:
  9338                           
  9339                           ;digital_alarm_clock_def.c: 160:     {;digital_alarm_clock_def.c: 161:         clcd_prin
      +                          t("DATE  ", (0x80 + 0));
  9340  0716  3067               	movlw	(low ((STR_9-__stringbase)| (0+32768)))& (0+255)
  9341  0717  00CA               	movwf	clcd_print@str
  9342  0718  3080               	movlw	128
  9343  0719  00CB               	movwf	clcd_print@str+1
  9344  071A  3080               	movlw	128
  9345  071B  00D9               	movwf	??_display_dash_screen
  9346  071C  0859               	movf	??_display_dash_screen,w
  9347  071D  00CC               	movwf	clcd_print@addr
  9348  071E  160A  158A  24DE  120A  118A  	fcall	_clcd_print
  9349                           
  9350                           ;digital_alarm_clock_def.c: 163:         clcd_print(date, (0x80 + 6));
  9351  0723  30C3               	movlw	(low (_date| 0))& (0+255)
  9352  0724  1283               	bcf	3,5	;RP0=0, select bank0
  9353  0725  1303               	bcf	3,6	;RP1=0, select bank0
  9354  0726  00CA               	movwf	clcd_print@str
  9355  0727  3000               	movlw	0
  9356  0728  00CB               	movwf	clcd_print@str+1
  9357  0729  3086               	movlw	134
  9358  072A  00D9               	movwf	??_display_dash_screen
  9359  072B  0859               	movf	??_display_dash_screen,w
  9360  072C  00CC               	movwf	clcd_print@addr
  9361  072D  160A  158A  24DE  120A  118A  	fcall	_clcd_print
  9362                           
  9363                           ;digital_alarm_clock_def.c: 164:         clcd_print("TIME  ", (0xC0 + 0));
  9364  0732  3060               	movlw	(low ((STR_7-__stringbase)| (0+32768)))& (0+255)
  9365  0733  1283               	bcf	3,5	;RP0=0, select bank0
  9366  0734  1303               	bcf	3,6	;RP1=0, select bank0
  9367  0735  00CA               	movwf	clcd_print@str
  9368  0736  3080               	movlw	128
  9369  0737  00CB               	movwf	clcd_print@str+1
  9370  0738  30C0               	movlw	192
  9371  0739  00D9               	movwf	??_display_dash_screen
  9372  073A  0859               	movf	??_display_dash_screen,w
  9373  073B  00CC               	movwf	clcd_print@addr
  9374  073C  160A  158A  24DE  120A  118A  	fcall	_clcd_print
  9375                           
  9376                           ;digital_alarm_clock_def.c: 166:         clcd_print(time, (0xC0 + 6));
  9377  0741  303F               	movlw	(low (_time| 0))& (0+255)
  9378  0742  1283               	bcf	3,5	;RP0=0, select bank0
  9379  0743  1303               	bcf	3,6	;RP1=0, select bank0
  9380  0744  00CA               	movwf	clcd_print@str
  9381  0745  3000               	movlw	0
  9382  0746  00CB               	movwf	clcd_print@str+1
  9383  0747  30C6               	movlw	198
  9384  0748  00D9               	movwf	??_display_dash_screen
  9385  0749  0859               	movf	??_display_dash_screen,w
  9386  074A  00CC               	movwf	clcd_print@addr
  9387  074B  160A  158A  24DE  120A  118A  	fcall	_clcd_print
  9388  0750                     l4994:
  9389                           
  9390                           ;digital_alarm_clock_def.c: 167:         clcd_putch(' ', (0xC0 + 15));
  9391  0750  30CF               	movlw	207
  9392  0751  1283               	bcf	3,5	;RP0=0, select bank0
  9393  0752  1303               	bcf	3,6	;RP1=0, select bank0
  9394  0753  00D9               	movwf	??_display_dash_screen
  9395  0754  0859               	movf	??_display_dash_screen,w
  9396  0755  00CC               	movwf	clcd_putch@addr
  9397  0756  3020               	movlw	32
  9398  0757  120A  118A  27EA  120A  118A  	fcall	_clcd_putch
  9399  075C                     l4996:
  9400                           
  9401                           ;digital_alarm_clock_def.c: 169:     display_time();
  9402  075C  120A  158A  204D  120A  118A  	fcall	_display_time
  9403  0761                     l4998:
  9404                           
  9405                           ;digital_alarm_clock_def.c: 170:     display_date();
  9406  0761  120A  118A  2773  120A  118A  	fcall	_display_date
  9407  0766                     l5000:
  9408                           
  9409                           ;digital_alarm_clock_def.c: 171:     if(event)
  9410  0766  1283               	bcf	3,5	;RP0=0, select bank0
  9411  0767  1303               	bcf	3,6	;RP1=0, select bank0
  9412  0768  0836               	movf	_event,w
  9413  0769  1903               	btfsc	3,2
  9414  076A  2F6C               	goto	u5101
  9415  076B  2F6D               	goto	u5100
  9416  076C                     u5101:
  9417  076C  2F72               	goto	l402
  9418  076D                     u5100:
  9419  076D                     l5002:
  9420                           
  9421                           ;digital_alarm_clock_def.c: 172:         ring_alarm();
  9422  076D  160A  118A  2317  120A  118A  	fcall	_ring_alarm
  9423  0772                     l402:
  9424  0772  0008               	return
  9425  0773                     __end_of_display_dash_screen:
  9426                           
  9427                           	psect	text20
  9428  1317                     __ptext20:	
  9429 ;; *************** function _ring_alarm *****************
  9430 ;; Defined at:
  9431 ;;		line 956 in file "digital_alarm_clock_def.c"
  9432 ;; Parameters:    Size  Location     Type
  9433 ;;		None
  9434 ;; Auto vars:     Size  Location     Type
  9435 ;;		None
  9436 ;; Return value:  Size  Location     Type
  9437 ;;                  1    wreg      void 
  9438 ;; Registers used:
  9439 ;;		wreg, fsr0l, fsr0h, status,2, status,0, btemp+1, pclath, cstack
  9440 ;; Tracked objects:
  9441 ;;		On entry : 0/0
  9442 ;;		On exit  : 0/0
  9443 ;;		Unchanged: 0/0
  9444 ;; Data sizes:     COMMON   BANK0   BANK1   BANK3   BANK2
  9445 ;;      Params:         0       0       0       0       0
  9446 ;;      Locals:         0       0       0       0       0
  9447 ;;      Temps:          0       3       0       0       0
  9448 ;;      Totals:         0       3       0       0       0
  9449 ;;Total ram usage:        3 bytes
  9450 ;; Hardware stack levels used: 1
  9451 ;; Hardware stack levels required when called: 5
  9452 ;; This function calls:
  9453 ;;		___bmul
  9454 ;;		_alarm
  9455 ;;		_byte_write_EEPROM
  9456 ;;		_read_EEPROM
  9457 ;;		_stop_alarm
  9458 ;;		_strncmp
  9459 ;; This function is called by:
  9460 ;;		_display_dash_screen
  9461 ;; This function uses a non-reentrant model
  9462 ;;
  9463                           
  9464                           
  9465                           ;psect for function _ring_alarm
  9466  1317                     _ring_alarm:
  9467  1317                     l4852:	
  9468                           ;incstack = 0
  9469                           ; Regs used in _ring_alarm: [wreg-fsr0h+status,2+status,0+btemp+1+pclath+cstack]
  9470                           
  9471                           
  9472                           ;digital_alarm_clock_def.c: 958:     static char alarm_flag = 0;;digital_alarm_clock_def
      +                          .c: 959:     if((strncmp(new_event, time, 7) == 0) && (strncmp(second_time, "00", 2) == 
      +                          0))
  9473  1317  303F               	movlw	(low (_time| 0))& (0+255)
  9474  1318  1283               	bcf	3,5	;RP0=0, select bank0
  9475  1319  1303               	bcf	3,6	;RP1=0, select bank0
  9476  131A  00C8               	movwf	strncmp@s2
  9477  131B  3000               	movlw	0
  9478  131C  00C9               	movwf	strncmp@s2+1
  9479  131D  3007               	movlw	7
  9480  131E  00CA               	movwf	strncmp@len
  9481  131F  3000               	movlw	0
  9482  1320  00CB               	movwf	strncmp@len+1
  9483  1321  30CD               	movlw	(low (_new_event| 0))& (0+255)
  9484  1322  160A  158A  2620  160A  118A  	fcall	_strncmp
  9485  1327  1283               	bcf	3,5	;RP0=0, select bank0
  9486  1328  1303               	bcf	3,6	;RP1=0, select bank0
  9487  1329  0848               	movf	?_strncmp,w
  9488  132A  0449               	iorwf	?_strncmp+1,w
  9489  132B  1D03               	btfss	3,2
  9490  132C  2B2E               	goto	u4911
  9491  132D  2B2F               	goto	u4910
  9492  132E                     u4911:
  9493  132E  2B6C               	goto	l4862
  9494  132F                     u4910:
  9495  132F                     l4854:
  9496  132F  3091               	movlw	(low ((STR_19-__stringbase)| (0+32768)))& (0+255)
  9497  1330  00C8               	movwf	strncmp@s2
  9498  1331  3080               	movlw	128
  9499  1332  00C9               	movwf	strncmp@s2+1
  9500  1333  3002               	movlw	2
  9501  1334  00CA               	movwf	strncmp@len
  9502  1335  3000               	movlw	0
  9503  1336  00CB               	movwf	strncmp@len+1
  9504  1337  30D7               	movlw	(low (_second_time| 0))& (0+255)
  9505  1338  160A  158A  2620  160A  118A  	fcall	_strncmp
  9506  133D  1283               	bcf	3,5	;RP0=0, select bank0
  9507  133E  1303               	bcf	3,6	;RP1=0, select bank0
  9508  133F  0848               	movf	?_strncmp,w
  9509  1340  0449               	iorwf	?_strncmp+1,w
  9510  1341  1D03               	btfss	3,2
  9511  1342  2B44               	goto	u4921
  9512  1343  2B45               	goto	u4920
  9513  1344                     u4921:
  9514  1344  2B6C               	goto	l4862
  9515  1345                     u4920:
  9516  1345                     l4856:
  9517                           
  9518                           ;digital_alarm_clock_def.c: 960:     {;digital_alarm_clock_def.c: 961:         dur_sec =
      +                           60;
  9519  1345  303C               	movlw	60
  9520  1346  00D0               	movwf	??_ring_alarm
  9521  1347  0850               	movf	??_ring_alarm,w
  9522  1348  00BD               	movwf	_dur_sec
  9523  1349                     l4858:
  9524                           
  9525                           ;digital_alarm_clock_def.c: 962:         min = (read_EEPROM(0x07)-'0')*10+(read_EEPROM(0
      +                          x08)-'0');
  9526  1349  3008               	movlw	8
  9527  134A  160A  158A  25AF  160A  118A  	fcall	_read_EEPROM
  9528  134F  1283               	bcf	3,5	;RP0=0, select bank0
  9529  1350  1303               	bcf	3,6	;RP1=0, select bank0
  9530  1351  00D0               	movwf	??_ring_alarm
  9531  1352  300A               	movlw	10
  9532  1353  00D1               	movwf	??_ring_alarm+1
  9533  1354  0851               	movf	??_ring_alarm+1,w
  9534  1355  00CC               	movwf	___bmul@multiplicand
  9535  1356  3007               	movlw	7
  9536  1357  160A  158A  25AF  160A  118A  	fcall	_read_EEPROM
  9537  135C  160A  118A  20A3  160A  118A  	fcall	___bmul
  9538  1361  1283               	bcf	3,5	;RP0=0, select bank0
  9539  1362  1303               	bcf	3,6	;RP1=0, select bank0
  9540  1363  0750               	addwf	??_ring_alarm,w
  9541  1364  3EF0               	addlw	240
  9542  1365  00D2               	movwf	??_ring_alarm+2
  9543  1366  0852               	movf	??_ring_alarm+2,w
  9544  1367  00F9               	movwf	_min
  9545  1368                     l4860:
  9546                           
  9547                           ;digital_alarm_clock_def.c: 963:         alarm_flag = 1;
  9548  1368  1683               	bsf	3,5	;RP0=1, select bank1
  9549  1369  1303               	bcf	3,6	;RP1=0, select bank1
  9550  136A  01BF               	clrf	ring_alarm@alarm_flag^(0+128)
  9551  136B  0ABF               	incf	ring_alarm@alarm_flag^(0+128),f
  9552  136C                     l4862:
  9553                           
  9554                           ;digital_alarm_clock_def.c: 968:     if(alarm_flag)
  9555  136C  1683               	bsf	3,5	;RP0=1, select bank1
  9556  136D  1303               	bcf	3,6	;RP1=0, select bank1
  9557  136E  083F               	movf	ring_alarm@alarm_flag^(0+128),w
  9558  136F  1903               	btfsc	3,2
  9559  1370  2B72               	goto	u4931
  9560  1371  2B73               	goto	u4930
  9561  1372                     u4931:
  9562  1372  2BC4               	goto	l634
  9563  1373                     u4930:
  9564  1373                     l4864:
  9565                           
  9566                           ;digital_alarm_clock_def.c: 969:     {;digital_alarm_clock_def.c: 970:         if(new_ev
      +                          ent[9] == 'D')
  9567  1373  3044               	movlw	68
  9568  1374  0656               	xorwf	(_new_event^(0+128)+9),w
  9569  1375  1D03               	btfss	3,2
  9570  1376  2B78               	goto	u4941
  9571  1377  2B79               	goto	u4940
  9572  1378                     u4941:
  9573  1378  2B8D               	goto	l4874
  9574  1379                     u4940:
  9575  1379                     l4866:
  9576                           
  9577                           ;digital_alarm_clock_def.c: 971:         {;digital_alarm_clock_def.c: 972:             i
      +                          f(min)
  9578  1379  0879               	movf	_min,w
  9579  137A  1903               	btfsc	3,2
  9580  137B  2B7D               	goto	u4951
  9581  137C  2B7E               	goto	u4950
  9582  137D                     u4951:
  9583  137D  2B84               	goto	l4870
  9584  137E                     u4950:
  9585  137E                     l4868:
  9586                           
  9587                           ;digital_alarm_clock_def.c: 973:                 alarm();
  9588  137E  160A  158A  2313  160A  118A  	fcall	_alarm
  9589  1383  2BC4               	goto	l634
  9590  1384                     l4870:
  9591                           
  9592                           ;digital_alarm_clock_def.c: 975:             {;digital_alarm_clock_def.c: 976:          
      +                                 stop_alarm();
  9593  1384  160A  158A  2319  160A  118A  	fcall	_stop_alarm
  9594  1389                     l4872:
  9595                           
  9596                           ;digital_alarm_clock_def.c: 977:                 alarm_flag = 0;
  9597  1389  1683               	bsf	3,5	;RP0=1, select bank1
  9598  138A  1303               	bcf	3,6	;RP1=0, select bank1
  9599  138B  01BF               	clrf	ring_alarm@alarm_flag^(0+128)
  9600  138C  2BC4               	goto	l634
  9601  138D                     l4874:
  9602  138D  304F               	movlw	79
  9603  138E  0656               	xorwf	(_new_event^(0+128)+9),w
  9604  138F  1D03               	btfss	3,2
  9605  1390  2B92               	goto	u4961
  9606  1391  2B93               	goto	u4960
  9607  1392                     u4961:
  9608  1392  2BAB               	goto	l4884
  9609  1393                     u4960:
  9610  1393                     l4876:
  9611                           
  9612                           ;digital_alarm_clock_def.c: 981:         {;digital_alarm_clock_def.c: 982:             i
      +                          f(min)
  9613  1393  0879               	movf	_min,w
  9614  1394  1903               	btfsc	3,2
  9615  1395  2B97               	goto	u4971
  9616  1396  2B98               	goto	u4970
  9617  1397                     u4971:
  9618  1397  2B99               	goto	l4880
  9619  1398                     u4970:
  9620  1398  2B7E               	goto	l4868
  9621  1399                     l4880:
  9622                           
  9623                           ;digital_alarm_clock_def.c: 985:             {;digital_alarm_clock_def.c: 986:          
      +                                 stop_alarm();
  9624  1399  160A  158A  2319  160A  118A  	fcall	_stop_alarm
  9625                           
  9626                           ;digital_alarm_clock_def.c: 987:                 byte_write_EEPROM(0x00, '0');
  9627  139E  3030               	movlw	48
  9628  139F  1283               	bcf	3,5	;RP0=0, select bank0
  9629  13A0  1303               	bcf	3,6	;RP1=0, select bank0
  9630  13A1  00D0               	movwf	??_ring_alarm
  9631  13A2  0850               	movf	??_ring_alarm,w
  9632  13A3  00F5               	movwf	byte_write_EEPROM@data
  9633  13A4  3000               	movlw	0
  9634  13A5  160A  158A  23D2  160A  118A  	fcall	_byte_write_EEPROM
  9635  13AA  2B89               	goto	l4872
  9636  13AB                     l4884:
  9637  13AB  3057               	movlw	87
  9638  13AC  0656               	xorwf	(_new_event^(0+128)+9),w
  9639  13AD  1D03               	btfss	3,2
  9640  13AE  2BB0               	goto	u4981
  9641  13AF  2BB1               	goto	u4980
  9642  13B0                     u4981:
  9643  13B0  2BC4               	goto	l625
  9644  13B1                     u4980:
  9645  13B1                     l4886:
  9646                           
  9647                           ;digital_alarm_clock_def.c: 992:         {;digital_alarm_clock_def.c: 993:             i
      +                          f(date[9] == read_EEPROM(0x10))
  9648  13B1  3010               	movlw	16
  9649  13B2  160A  158A  25AF  160A  118A  	fcall	_read_EEPROM
  9650  13B7  1683               	bsf	3,5	;RP0=1, select bank1
  9651  13B8  1303               	bcf	3,6	;RP1=0, select bank1
  9652  13B9  064C               	xorwf	(_date^(0+128)+9),w
  9653  13BA  1D03               	skipz
  9654  13BB  2BBD               	goto	u4991
  9655  13BC  2BBE               	goto	u4990
  9656  13BD                     u4991:
  9657  13BD  2BC4               	goto	l634
  9658  13BE                     u4990:
  9659  13BE                     l4888:
  9660                           
  9661                           ;digital_alarm_clock_def.c: 994:             {;digital_alarm_clock_def.c: 995:          
      +                                 if(min)
  9662  13BE  0879               	movf	_min,w
  9663  13BF  1903               	btfsc	3,2
  9664  13C0  2BC2               	goto	u5001
  9665  13C1  2BC3               	goto	u5000
  9666  13C2                     u5001:
  9667  13C2  2B84               	goto	l4870
  9668  13C3                     u5000:
  9669  13C3  2B7E               	goto	l4868
  9670  13C4                     l625:
  9671  13C4                     l634:
  9672  13C4  0008               	return
  9673  13C5                     __end_of_ring_alarm:
  9674                           
  9675                           	psect	text21
  9676  1E20                     __ptext21:	
  9677 ;; *************** function _strncmp *****************
  9678 ;; Defined at:
  9679 ;;		line 4 in file "C:\Program Files\Microchip\xc8\v2.32\pic\sources\c90\common\strncmp.c"
  9680 ;; Parameters:    Size  Location     Type
  9681 ;;  s1              1    wreg     PTR const unsigned char 
  9682 ;;		 -> new_event(10), second_time(3), 
  9683 ;;  s2              2    0[BANK0 ] PTR const unsigned char 
  9684 ;;		 -> STR_19(3), time(9), 
  9685 ;;  len             2    2[BANK0 ] unsigned int 
  9686 ;; Auto vars:     Size  Location     Type
  9687 ;;  s1              1    4[BANK0 ] PTR const unsigned char 
  9688 ;;		 -> new_event(10), second_time(3), 
  9689 ;; Return value:  Size  Location     Type
  9690 ;;                  2    0[BANK0 ] int 
  9691 ;; Registers used:
  9692 ;;		wreg, fsr0l, fsr0h, status,2, status,0, btemp+1, pclath
  9693 ;; Tracked objects:
  9694 ;;		On entry : 0/0
  9695 ;;		On exit  : 0/0
  9696 ;;		Unchanged: 0/0
  9697 ;; Data sizes:     COMMON   BANK0   BANK1   BANK3   BANK2
  9698 ;;      Params:         0       4       0       0       0
  9699 ;;      Locals:         0       1       0       0       0
  9700 ;;      Temps:          2       0       0       0       0
  9701 ;;      Totals:         2       5       0       0       0
  9702 ;;Total ram usage:        7 bytes
  9703 ;; Hardware stack levels used: 2
  9704 ;; Hardware stack levels required when called: 1
  9705 ;; This function calls:
  9706 ;;		Nothing
  9707 ;; This function is called by:
  9708 ;;		_ring_alarm
  9709 ;; This function uses a non-reentrant model
  9710 ;;
  9711                           
  9712                           
  9713                           ;psect for function _strncmp
  9714  1E20                     _strncmp:
  9715                           
  9716                           ;incstack = 0
  9717                           ; Regs used in _strncmp: [wreg-fsr0h+status,2+status,0+btemp+1+pclath]
  9718                           ;strncmp@s1 stored from wreg
  9719  1E20  1283               	bcf	3,5	;RP0=0, select bank0
  9720  1E21  1303               	bcf	3,6	;RP1=0, select bank0
  9721  1E22  00CC               	movwf	strncmp@s1
  9722  1E23                     l4592:
  9723  1E23  2E5F               	goto	l4606
  9724  1E24                     l4594:
  9725  1E24  084C               	movf	strncmp@s1,w
  9726  1E25  0084               	movwf	4
  9727  1E26  1383               	bcf	3,7	;select IRP bank0
  9728  1E27  0800               	movf	0,w
  9729  1E28  1903               	btfsc	3,2
  9730  1E29  2E2B               	goto	u4491
  9731  1E2A  2E2C               	goto	u4490
  9732  1E2B                     u4491:
  9733  1E2B  2E3F               	goto	l4598
  9734  1E2C                     u4490:
  9735  1E2C                     l4596:
  9736  1E2C  0849               	movf	strncmp@s2+1,w
  9737  1E2D  00FF               	movwf	btemp+1
  9738  1E2E  0848               	movf	strncmp@s2,w
  9739  1E2F  0084               	movwf	4
  9740  1E30  160A  118A  2000  160A  158A  	fcall	stringtab
  9741  1E35  00F4               	movwf	??_strncmp
  9742  1E36  084C               	movf	strncmp@s1,w
  9743  1E37  0084               	movwf	4
  9744  1E38  1383               	bcf	3,7	;select IRP bank0
  9745  1E39  0800               	movf	0,w
  9746  1E3A  0674               	xorwf	??_strncmp,w
  9747  1E3B  1903               	skipnz
  9748  1E3C  2E3E               	goto	u4501
  9749  1E3D  2E3F               	goto	u4500
  9750  1E3E                     u4501:
  9751  1E3E  2E55               	goto	l4602
  9752  1E3F                     u4500:
  9753  1E3F                     l4598:
  9754  1E3F  0849               	movf	strncmp@s2+1,w
  9755  1E40  00FF               	movwf	btemp+1
  9756  1E41  0848               	movf	strncmp@s2,w
  9757  1E42  0084               	movwf	4
  9758  1E43  160A  118A  2000  160A  158A  	fcall	stringtab
  9759  1E48  00F4               	movwf	??_strncmp
  9760  1E49  084C               	movf	strncmp@s1,w
  9761  1E4A  0084               	movwf	4
  9762  1E4B  1383               	bcf	3,7	;select IRP bank0
  9763  1E4C  0800               	movf	0,w
  9764  1E4D  00F5               	movwf	??_strncmp+1
  9765  1E4E  0874               	movf	??_strncmp,w
  9766  1E4F  0275               	subwf	??_strncmp+1,w
  9767  1E50  00C8               	movwf	?_strncmp
  9768  1E51  01C9               	clrf	?_strncmp+1
  9769  1E52  1C03               	skipc
  9770  1E53  03C9               	decf	?_strncmp+1,f
  9771  1E54  2E6F               	goto	l1195
  9772  1E55                     l4602:
  9773  1E55  3001               	movlw	1
  9774  1E56  00F4               	movwf	??_strncmp
  9775  1E57  0874               	movf	??_strncmp,w
  9776  1E58  07CC               	addwf	strncmp@s1,f
  9777  1E59                     l4604:
  9778  1E59  3001               	movlw	1
  9779  1E5A  07C8               	addwf	strncmp@s2,f
  9780  1E5B  1803               	skipnc
  9781  1E5C  0AC9               	incf	strncmp@s2+1,f
  9782  1E5D  3000               	movlw	0
  9783  1E5E  07C9               	addwf	strncmp@s2+1,f
  9784  1E5F                     l4606:
  9785  1E5F  3001               	movlw	1
  9786  1E60  02CA               	subwf	strncmp@len,f
  9787  1E61  3000               	movlw	0
  9788  1E62  1C03               	skipc
  9789  1E63  03CB               	decf	strncmp@len+1,f
  9790  1E64  02CB               	subwf	strncmp@len+1,f
  9791  1E65  0A4A               	incf	strncmp@len,w
  9792  1E66  1D03               	skipz
  9793  1E67  2E6C               	goto	u4511
  9794  1E68  0A4B               	incf	strncmp@len+1,w
  9795  1E69  1D03               	btfss	3,2
  9796  1E6A  2E6C               	goto	u4511
  9797  1E6B  2E6D               	goto	u4510
  9798  1E6C                     u4511:
  9799  1E6C  2E24               	goto	l4594
  9800  1E6D                     u4510:
  9801  1E6D                     l4608:
  9802  1E6D  01C8               	clrf	?_strncmp
  9803  1E6E  01C9               	clrf	?_strncmp+1
  9804  1E6F                     l1195:
  9805  1E6F  0008               	return
  9806  1E70                     __end_of_strncmp:
  9807                           
  9808                           	psect	text22
  9809  1B19                     __ptext22:	
  9810 ;; *************** function _stop_alarm *****************
  9811 ;; Defined at:
  9812 ;;		line 21 in file "buzzer.c"
  9813 ;; Parameters:    Size  Location     Type
  9814 ;;		None
  9815 ;; Auto vars:     Size  Location     Type
  9816 ;;		None
  9817 ;; Return value:  Size  Location     Type
  9818 ;;                  1    wreg      void 
  9819 ;; Registers used:
  9820 ;;		wreg, status,2
  9821 ;; Tracked objects:
  9822 ;;		On entry : 0/0
  9823 ;;		On exit  : 0/0
  9824 ;;		Unchanged: 0/0
  9825 ;; Data sizes:     COMMON   BANK0   BANK1   BANK3   BANK2
  9826 ;;      Params:         0       0       0       0       0
  9827 ;;      Locals:         0       0       0       0       0
  9828 ;;      Temps:          0       0       0       0       0
  9829 ;;      Totals:         0       0       0       0       0
  9830 ;;Total ram usage:        0 bytes
  9831 ;; Hardware stack levels used: 1
  9832 ;; Hardware stack levels required when called: 1
  9833 ;; This function calls:
  9834 ;;		Nothing
  9835 ;; This function is called by:
  9836 ;;		_ring_alarm
  9837 ;; This function uses a non-reentrant model
  9838 ;;
  9839                           
  9840                           
  9841                           ;psect for function _stop_alarm
  9842  1B19                     _stop_alarm:
  9843  1B19                     l4614:	
  9844                           ;incstack = 0
  9845                           ; Regs used in _stop_alarm: [wreg+status,2]
  9846                           
  9847                           
  9848                           ;buzzer.c: 23:     PORTC = PORTC & 0xFD;
  9849  1B19  1283               	bcf	3,5	;RP0=0, select bank0
  9850  1B1A  1303               	bcf	3,6	;RP1=0, select bank0
  9851  1B1B  0807               	movf	7,w	;volatile
  9852  1B1C  39FD               	andlw	253
  9853  1B1D  0087               	movwf	7	;volatile
  9854  1B1E                     l653:
  9855  1B1E  0008               	return
  9856  1B1F                     __end_of_stop_alarm:
  9857                           
  9858                           	psect	text23
  9859  1DAF                     __ptext23:	
  9860 ;; *************** function _read_EEPROM *****************
  9861 ;; Defined at:
  9862 ;;		line 22 in file "EEPROM.c"
  9863 ;; Parameters:    Size  Location     Type
  9864 ;;  addr            1    wreg     unsigned char 
  9865 ;; Auto vars:     Size  Location     Type
  9866 ;;  addr            1    2[BANK0 ] unsigned char 
  9867 ;;  data            1    3[BANK0 ] unsigned char 
  9868 ;; Return value:  Size  Location     Type
  9869 ;;                  1    wreg      unsigned char 
  9870 ;; Registers used:
  9871 ;;		wreg, status,2, status,0, pclath, cstack
  9872 ;; Tracked objects:
  9873 ;;		On entry : 0/0
  9874 ;;		On exit  : 0/0
  9875 ;;		Unchanged: 0/0
  9876 ;; Data sizes:     COMMON   BANK0   BANK1   BANK3   BANK2
  9877 ;;      Params:         0       0       0       0       0
  9878 ;;      Locals:         0       2       0       0       0
  9879 ;;      Temps:          1       0       0       0       0
  9880 ;;      Totals:         1       2       0       0       0
  9881 ;;Total ram usage:        3 bytes
  9882 ;; Hardware stack levels used: 1
  9883 ;; Hardware stack levels required when called: 4
  9884 ;; This function calls:
  9885 ;;		_i2c_read
  9886 ;;		_i2c_rep_start
  9887 ;;		_i2c_start
  9888 ;;		_i2c_stop
  9889 ;;		_i2c_write
  9890 ;; This function is called by:
  9891 ;;		_display_dash_screen
  9892 ;;		_display_event
  9893 ;;		_ring_alarm
  9894 ;; This function uses a non-reentrant model
  9895 ;;
  9896                           
  9897                           
  9898                           ;psect for function _read_EEPROM
  9899  1DAF                     _read_EEPROM:
  9900                           
  9901                           ;incstack = 0
  9902                           ; Regs used in _read_EEPROM: [wreg+status,2+status,0+pclath+cstack]
  9903                           ;read_EEPROM@addr stored from wreg
  9904  1DAF  1283               	bcf	3,5	;RP0=0, select bank0
  9905  1DB0  1303               	bcf	3,6	;RP1=0, select bank0
  9906  1DB1  00CA               	movwf	read_EEPROM@addr
  9907  1DB2                     l4580:
  9908                           
  9909                           ;EEPROM.c: 22: char read_EEPROM(unsigned char addr);EEPROM.c: 23: {;EEPROM.c: 25:     un
      +                          signed char data;;EEPROM.c: 28:     i2c_start();
  9910  1DB2  160A  158A  233A  160A  158A  	fcall	_i2c_start
  9911                           
  9912                           ;EEPROM.c: 30:     i2c_write(0b10100000);
  9913  1DB7  30A0               	movlw	160
  9914  1DB8  160A  158A  2356  160A  158A  	fcall	_i2c_write
  9915                           
  9916                           ;EEPROM.c: 32:     i2c_write(addr);
  9917  1DBD  1283               	bcf	3,5	;RP0=0, select bank0
  9918  1DBE  1303               	bcf	3,6	;RP1=0, select bank0
  9919  1DBF  084A               	movf	read_EEPROM@addr,w
  9920  1DC0  160A  158A  2356  160A  158A  	fcall	_i2c_write
  9921                           
  9922                           ;EEPROM.c: 34:     i2c_rep_start();
  9923  1DC5  160A  158A  2361  160A  158A  	fcall	_i2c_rep_start
  9924                           
  9925                           ;EEPROM.c: 36:     i2c_write(0b10100001);
  9926  1DCA  30A1               	movlw	161
  9927  1DCB  160A  158A  2356  160A  158A  	fcall	_i2c_write
  9928                           
  9929                           ;EEPROM.c: 39:     data = i2c_read(0);
  9930  1DD0  3000               	movlw	0
  9931  1DD1  160A  158A  245D  160A  158A  	fcall	_i2c_read
  9932  1DD6  00F5               	movwf	??_read_EEPROM
  9933  1DD7  0875               	movf	??_read_EEPROM,w
  9934  1DD8  1283               	bcf	3,5	;RP0=0, select bank0
  9935  1DD9  1303               	bcf	3,6	;RP1=0, select bank0
  9936  1DDA  00CB               	movwf	read_EEPROM@data
  9937                           
  9938                           ;EEPROM.c: 41:     i2c_stop();
  9939  1DDB  160A  158A  2343  160A  158A  	fcall	_i2c_stop
  9940  1DE0                     l4582:
  9941                           
  9942                           ;EEPROM.c: 43:     return data;
  9943  1DE0  1283               	bcf	3,5	;RP0=0, select bank0
  9944  1DE1  1303               	bcf	3,6	;RP1=0, select bank0
  9945  1DE2  084B               	movf	read_EEPROM@data,w
  9946  1DE3                     l85:
  9947  1DE3  0008               	return
  9948  1DE4                     __end_of_read_EEPROM:
  9949                           
  9950                           	psect	text24
  9951  1B13                     __ptext24:	
  9952 ;; *************** function _alarm *****************
  9953 ;; Defined at:
  9954 ;;		line 16 in file "buzzer.c"
  9955 ;; Parameters:    Size  Location     Type
  9956 ;;		None
  9957 ;; Auto vars:     Size  Location     Type
  9958 ;;		None
  9959 ;; Return value:  Size  Location     Type
  9960 ;;                  1    wreg      void 
  9961 ;; Registers used:
  9962 ;;		wreg, status,2
  9963 ;; Tracked objects:
  9964 ;;		On entry : 0/0
  9965 ;;		On exit  : 0/0
  9966 ;;		Unchanged: 0/0
  9967 ;; Data sizes:     COMMON   BANK0   BANK1   BANK3   BANK2
  9968 ;;      Params:         0       0       0       0       0
  9969 ;;      Locals:         0       0       0       0       0
  9970 ;;      Temps:          0       0       0       0       0
  9971 ;;      Totals:         0       0       0       0       0
  9972 ;;Total ram usage:        0 bytes
  9973 ;; Hardware stack levels used: 1
  9974 ;; Hardware stack levels required when called: 1
  9975 ;; This function calls:
  9976 ;;		Nothing
  9977 ;; This function is called by:
  9978 ;;		_ring_alarm
  9979 ;; This function uses a non-reentrant model
  9980 ;;
  9981                           
  9982                           
  9983                           ;psect for function _alarm
  9984  1B13                     _alarm:
  9985  1B13                     l4612:	
  9986                           ;incstack = 0
  9987                           ; Regs used in _alarm: [wreg+status,2]
  9988                           
  9989                           
  9990                           ;buzzer.c: 18:     PORTC = PORTC | 0x02;
  9991  1B13  1283               	bcf	3,5	;RP0=0, select bank0
  9992  1B14  1303               	bcf	3,6	;RP1=0, select bank0
  9993  1B15  0807               	movf	7,w	;volatile
  9994  1B16  3802               	iorlw	2
  9995  1B17  0087               	movwf	7	;volatile
  9996  1B18                     l650:
  9997  1B18  0008               	return
  9998  1B19                     __end_of_alarm:
  9999                           
 10000                           	psect	text25
 10001  084D                     __ptext25:	
 10002 ;; *************** function _display_time *****************
 10003 ;; Defined at:
 10004 ;;		line 44 in file "digital_alarm_clock_def.c"
 10005 ;; Parameters:    Size  Location     Type
 10006 ;;		None
 10007 ;; Auto vars:     Size  Location     Type
 10008 ;;		None
 10009 ;; Return value:  Size  Location     Type
 10010 ;;                  1    wreg      void 
 10011 ;; Registers used:
 10012 ;;		wreg, status,2, status,0, pclath, cstack
 10013 ;; Tracked objects:
 10014 ;;		On entry : 0/0
 10015 ;;		On exit  : 0/0
 10016 ;;		Unchanged: 0/0
 10017 ;; Data sizes:     COMMON   BANK0   BANK1   BANK3   BANK2
 10018 ;;      Params:         0       0       0       0       0
 10019 ;;      Locals:         0       0       0       0       0
 10020 ;;      Temps:          0       3       0       0       0
 10021 ;;      Totals:         0       3       0       0       0
 10022 ;;Total ram usage:        3 bytes
 10023 ;; Hardware stack levels used: 1
 10024 ;; Hardware stack levels required when called: 6
 10025 ;; This function calls:
 10026 ;;		___awdiv
 10027 ;;		___awmod
 10028 ;;		___bmul
 10029 ;;		_get_time
 10030 ;; This function is called by:
 10031 ;;		_display_dash_screen
 10032 ;; This function uses a non-reentrant model
 10033 ;;
 10034                           
 10035                           
 10036                           ;psect for function _display_time
 10037  084D                     _display_time:
 10038  084D                     l4790:	
 10039                           ;incstack = 0
 10040                           ; Regs used in _display_time: [wreg+status,2+status,0+pclath+cstack]
 10041                           
 10042                           
 10043                           ;digital_alarm_clock_def.c: 46:     get_time();
 10044  084D  160A  158A  23F4  120A  158A  	fcall	_get_time
 10045  0852                     l4792:
 10046                           
 10047                           ;digital_alarm_clock_def.c: 50:     time[0] = ((clock_reg[0] >> 4) & 0x03) + '0';
 10048  0852  1283               	bcf	3,5	;RP0=0, select bank0
 10049  0853  1303               	bcf	3,6	;RP1=0, select bank0
 10050  0854  0820               	movf	_clock_reg,w
 10051  0855  00D6               	movwf	??_display_time
 10052  0856  3004               	movlw	4
 10053  0857                     u4835:
 10054  0857  1003               	clrc
 10055  0858  0CD6               	rrf	??_display_time,f
 10056  0859  3EFF               	addlw	-1
 10057  085A  1D03               	skipz
 10058  085B  2857               	goto	u4835
 10059  085C  0856               	movf	??_display_time,w
 10060  085D  3903               	andlw	3
 10061  085E  3E30               	addlw	48
 10062  085F  00D7               	movwf	??_display_time+1
 10063  0860  0857               	movf	??_display_time+1,w
 10064  0861  00BF               	movwf	_time
 10065  0862                     l4794:
 10066                           
 10067                           ;digital_alarm_clock_def.c: 51:     time[1] = (clock_reg[0] & 0x0F) + '0';
 10068  0862  0820               	movf	_clock_reg,w
 10069  0863  390F               	andlw	15
 10070  0864  3E30               	addlw	48
 10071  0865  00D6               	movwf	??_display_time
 10072  0866  0856               	movf	??_display_time,w
 10073  0867  00C0               	movwf	_time+1
 10074                           
 10075                           ;digital_alarm_clock_def.c: 53:     hour = (time[0]-'0')*10+(time[1]-'0');
 10076  0868  300A               	movlw	10
 10077  0869  00D6               	movwf	??_display_time
 10078  086A  0856               	movf	??_display_time,w
 10079  086B  00CC               	movwf	___bmul@multiplicand
 10080  086C  083F               	movf	_time,w
 10081  086D  160A  118A  20A3  120A  158A  	fcall	___bmul
 10082  0872  1283               	bcf	3,5	;RP0=0, select bank0
 10083  0873  1303               	bcf	3,6	;RP1=0, select bank0
 10084  0874  0740               	addwf	_time+1,w
 10085  0875  3EF0               	addlw	240
 10086  0876  00D7               	movwf	??_display_time+1
 10087  0877  0857               	movf	??_display_time+1,w
 10088  0878  00BA               	movwf	_hour
 10089  0879                     l4796:
 10090                           
 10091                           ;digital_alarm_clock_def.c: 54:     if(hour > 12)
 10092  0879  300D               	movlw	13
 10093  087A  023A               	subwf	_hour,w
 10094  087B  1C03               	skipc
 10095  087C  287E               	goto	u4841
 10096  087D  287F               	goto	u4840
 10097  087E                     u4841:
 10098  087E  28B5               	goto	l4806
 10099  087F                     u4840:
 10100  087F                     l4798:
 10101                           
 10102                           ;digital_alarm_clock_def.c: 55:     {;digital_alarm_clock_def.c: 56:         hour = hour
      +                           - 12;
 10103  087F  083A               	movf	_hour,w
 10104  0880  3EF4               	addlw	244
 10105  0881  00D6               	movwf	??_display_time
 10106  0882  0856               	movf	??_display_time,w
 10107  0883  00BA               	movwf	_hour
 10108  0884                     l4800:
 10109                           
 10110                           ;digital_alarm_clock_def.c: 57:         time[0] = hour/10 + '0';
 10111  0884  300A               	movlw	10
 10112  0885  00C8               	movwf	___awdiv@divisor
 10113  0886  3000               	movlw	0
 10114  0887  00C9               	movwf	___awdiv@divisor+1
 10115  0888  083A               	movf	_hour,w
 10116  0889  00D6               	movwf	??_display_time
 10117  088A  01D7               	clrf	??_display_time+1
 10118  088B  0856               	movf	??_display_time,w
 10119  088C  00CA               	movwf	___awdiv@dividend
 10120  088D  0857               	movf	??_display_time+1,w
 10121  088E  00CB               	movwf	___awdiv@dividend+1
 10122  088F  160A  158A  2797  120A  158A  	fcall	___awdiv
 10123  0894  1283               	bcf	3,5	;RP0=0, select bank0
 10124  0895  1303               	bcf	3,6	;RP1=0, select bank0
 10125  0896  0848               	movf	?___awdiv,w
 10126  0897  3E30               	addlw	48
 10127  0898  00D8               	movwf	??_display_time+2
 10128  0899  0858               	movf	??_display_time+2,w
 10129  089A  00BF               	movwf	_time
 10130  089B                     l4802:
 10131                           
 10132                           ;digital_alarm_clock_def.c: 58:         time[1] = hour%10 + '0';
 10133  089B  300A               	movlw	10
 10134  089C  00D0               	movwf	___awmod@divisor
 10135  089D  3000               	movlw	0
 10136  089E  00D1               	movwf	___awmod@divisor+1
 10137  089F  083A               	movf	_hour,w
 10138  08A0  00D6               	movwf	??_display_time
 10139  08A1  01D7               	clrf	??_display_time+1
 10140  08A2  0856               	movf	??_display_time,w
 10141  08A3  00D2               	movwf	___awmod@dividend
 10142  08A4  0857               	movf	??_display_time+1,w
 10143  08A5  00D3               	movwf	___awmod@dividend+1
 10144  08A6  160A  158A  2670  120A  158A  	fcall	___awmod
 10145  08AB  1283               	bcf	3,5	;RP0=0, select bank0
 10146  08AC  1303               	bcf	3,6	;RP1=0, select bank0
 10147  08AD  0850               	movf	?___awmod,w
 10148  08AE  3E30               	addlw	48
 10149  08AF  00D8               	movwf	??_display_time+2
 10150  08B0  0858               	movf	??_display_time+2,w
 10151  08B1  00C0               	movwf	_time+1
 10152  08B2                     l4804:
 10153                           
 10154                           ;digital_alarm_clock_def.c: 59:         PM = 1;
 10155  08B2  01F8               	clrf	_PM
 10156  08B3  0AF8               	incf	_PM,f
 10157                           
 10158                           ;digital_alarm_clock_def.c: 60:     }
 10159  08B4  28B6               	goto	l4808
 10160  08B5                     l4806:
 10161                           
 10162                           ;digital_alarm_clock_def.c: 62:     {;digital_alarm_clock_def.c: 63:         PM = 0;
 10163  08B5  01F8               	clrf	_PM
 10164  08B6                     l4808:
 10165                           
 10166                           ;digital_alarm_clock_def.c: 65:     time[2] = ':';
 10167  08B6  303A               	movlw	58
 10168  08B7  00D6               	movwf	??_display_time
 10169  08B8  0856               	movf	??_display_time,w
 10170  08B9  00C1               	movwf	_time+2
 10171  08BA                     l4810:
 10172                           
 10173                           ;digital_alarm_clock_def.c: 67:     time[3] = ((clock_reg[1] >> 4) & 0x07) + '0';
 10174  08BA  0821               	movf	_clock_reg+1,w
 10175  08BB  00D6               	movwf	??_display_time
 10176  08BC  3004               	movlw	4
 10177  08BD                     u4855:
 10178  08BD  1003               	clrc
 10179  08BE  0CD6               	rrf	??_display_time,f
 10180  08BF  3EFF               	addlw	-1
 10181  08C0  1D03               	skipz
 10182  08C1  28BD               	goto	u4855
 10183  08C2  0856               	movf	??_display_time,w
 10184  08C3  3907               	andlw	7
 10185  08C4  3E30               	addlw	48
 10186  08C5  00D7               	movwf	??_display_time+1
 10187  08C6  0857               	movf	??_display_time+1,w
 10188  08C7  00C2               	movwf	_time+3
 10189  08C8                     l4812:
 10190                           
 10191                           ;digital_alarm_clock_def.c: 68:     time[4] = (clock_reg[1] & 0x0F) + '0';
 10192  08C8  0821               	movf	_clock_reg+1,w
 10193  08C9  390F               	andlw	15
 10194  08CA  3E30               	addlw	48
 10195  08CB  00D6               	movwf	??_display_time
 10196  08CC  0856               	movf	??_display_time,w
 10197  08CD  00C3               	movwf	_time+4
 10198  08CE                     l4814:
 10199                           
 10200                           ;digital_alarm_clock_def.c: 69:     time[5] = ' ';
 10201  08CE  3020               	movlw	32
 10202  08CF  00D6               	movwf	??_display_time
 10203  08D0  0856               	movf	??_display_time,w
 10204  08D1  00C4               	movwf	_time+5
 10205  08D2                     l4816:
 10206                           
 10207                           ;digital_alarm_clock_def.c: 71:     if(PM)
 10208  08D2  0878               	movf	_PM,w
 10209  08D3  1903               	btfsc	3,2
 10210  08D4  28D6               	goto	u4861
 10211  08D5  28D7               	goto	u4860
 10212  08D6                     u4861:
 10213  08D6  28E0               	goto	l4820
 10214  08D7                     u4860:
 10215  08D7                     l4818:
 10216                           
 10217                           ;digital_alarm_clock_def.c: 72:     {;digital_alarm_clock_def.c: 73:         time[6] = '
      +                          P';
 10218  08D7  3050               	movlw	80
 10219  08D8  00D6               	movwf	??_display_time
 10220  08D9  0856               	movf	??_display_time,w
 10221  08DA  00C5               	movwf	_time+6
 10222                           
 10223                           ;digital_alarm_clock_def.c: 74:         time[7] = 'M';
 10224  08DB  304D               	movlw	77
 10225  08DC  00D6               	movwf	??_display_time
 10226  08DD  0856               	movf	??_display_time,w
 10227  08DE  00C6               	movwf	_time+7
 10228                           
 10229                           ;digital_alarm_clock_def.c: 75:     }
 10230  08DF  28E8               	goto	l4822
 10231  08E0                     l4820:
 10232                           
 10233                           ;digital_alarm_clock_def.c: 77:     {;digital_alarm_clock_def.c: 78:         time[6] = '
      +                          A';
 10234  08E0  3041               	movlw	65
 10235  08E1  00D6               	movwf	??_display_time
 10236  08E2  0856               	movf	??_display_time,w
 10237  08E3  00C5               	movwf	_time+6
 10238                           
 10239                           ;digital_alarm_clock_def.c: 79:         time[7] = 'M';
 10240  08E4  304D               	movlw	77
 10241  08E5  00D6               	movwf	??_display_time
 10242  08E6  0856               	movf	??_display_time,w
 10243  08E7  00C6               	movwf	_time+7
 10244  08E8                     l4822:
 10245                           
 10246                           ;digital_alarm_clock_def.c: 81:     time[8] = '\0';
 10247  08E8  01C7               	clrf	_time+8
 10248  08E9                     l4824:
 10249                           
 10250                           ;digital_alarm_clock_def.c: 83:     second_time[0] = ((clock_reg[2] >> 4) & 0x07) + '0';
 10251  08E9  0822               	movf	_clock_reg+2,w
 10252  08EA  00D6               	movwf	??_display_time
 10253  08EB  3004               	movlw	4
 10254  08EC                     u4875:
 10255  08EC  1003               	clrc
 10256  08ED  0CD6               	rrf	??_display_time,f
 10257  08EE  3EFF               	addlw	-1
 10258  08EF  1D03               	skipz
 10259  08F0  28EC               	goto	u4875
 10260  08F1  0856               	movf	??_display_time,w
 10261  08F2  3907               	andlw	7
 10262  08F3  3E30               	addlw	48
 10263  08F4  00D7               	movwf	??_display_time+1
 10264  08F5  0857               	movf	??_display_time+1,w
 10265  08F6  1683               	bsf	3,5	;RP0=1, select bank1
 10266  08F7  1303               	bcf	3,6	;RP1=0, select bank1
 10267  08F8  00D7               	movwf	_second_time^(0+128)
 10268  08F9                     l4826:
 10269                           
 10270                           ;digital_alarm_clock_def.c: 84:     second_time[1] = (clock_reg[2] & 0x0F) + '0';
 10271  08F9  1283               	bcf	3,5	;RP0=0, select bank0
 10272  08FA  1303               	bcf	3,6	;RP1=0, select bank0
 10273  08FB  0822               	movf	_clock_reg+2,w
 10274  08FC  390F               	andlw	15
 10275  08FD  3E30               	addlw	48
 10276  08FE  00D6               	movwf	??_display_time
 10277  08FF  0856               	movf	??_display_time,w
 10278  0900  1683               	bsf	3,5	;RP0=1, select bank1
 10279  0901  1303               	bcf	3,6	;RP1=0, select bank1
 10280  0902  00D8               	movwf	(_second_time^(0+128)+1)
 10281  0903                     l4828:
 10282                           
 10283                           ;digital_alarm_clock_def.c: 85:     second_time[2] = '\0';
 10284  0903  01D9               	clrf	(_second_time^(0+128)+2)
 10285  0904                     l389:
 10286  0904  0008               	return
 10287  0905                     __end_of_display_time:
 10288                           
 10289                           	psect	text26
 10290  1BF4                     __ptext26:	
 10291 ;; *************** function _get_time *****************
 10292 ;; Defined at:
 10293 ;;		line 27 in file "digital_alarm_clock_def.c"
 10294 ;; Parameters:    Size  Location     Type
 10295 ;;		None
 10296 ;; Auto vars:     Size  Location     Type
 10297 ;;		None
 10298 ;; Return value:  Size  Location     Type
 10299 ;;                  1    wreg      void 
 10300 ;; Registers used:
 10301 ;;		wreg, status,2, status,0, pclath, cstack
 10302 ;; Tracked objects:
 10303 ;;		On entry : 0/0
 10304 ;;		On exit  : 0/0
 10305 ;;		Unchanged: 0/0
 10306 ;; Data sizes:     COMMON   BANK0   BANK1   BANK3   BANK2
 10307 ;;      Params:         0       0       0       0       0
 10308 ;;      Locals:         0       0       0       0       0
 10309 ;;      Temps:          0       1       0       0       0
 10310 ;;      Totals:         0       1       0       0       0
 10311 ;;Total ram usage:        1 bytes
 10312 ;; Hardware stack levels used: 1
 10313 ;; Hardware stack levels required when called: 5
 10314 ;; This function calls:
 10315 ;;		_read_ds1307
 10316 ;; This function is called by:
 10317 ;;		_display_time
 10318 ;;		_set_time
 10319 ;;		_set_event
 10320 ;; This function uses a non-reentrant model
 10321 ;;
 10322                           
 10323                           
 10324                           ;psect for function _get_time
 10325  1BF4                     _get_time:
 10326  1BF4                     l4588:	
 10327                           ;incstack = 0
 10328                           ; Regs used in _get_time: [wreg+status,2+status,0+pclath+cstack]
 10329                           
 10330                           
 10331                           ;digital_alarm_clock_def.c: 29:     clock_reg[0] = read_ds1307(0x02);
 10332  1BF4  3002               	movlw	2
 10333  1BF5  160A  158A  2545  160A  158A  	fcall	_read_ds1307
 10334  1BFA  1283               	bcf	3,5	;RP0=0, select bank0
 10335  1BFB  1303               	bcf	3,6	;RP1=0, select bank0
 10336  1BFC  00CC               	movwf	??_get_time
 10337  1BFD  084C               	movf	??_get_time,w
 10338  1BFE  00A0               	movwf	_clock_reg
 10339                           
 10340                           ;digital_alarm_clock_def.c: 30:     clock_reg[1] = read_ds1307(0x01);
 10341  1BFF  3001               	movlw	1
 10342  1C00  160A  158A  2545  160A  158A  	fcall	_read_ds1307
 10343  1C05  1283               	bcf	3,5	;RP0=0, select bank0
 10344  1C06  1303               	bcf	3,6	;RP1=0, select bank0
 10345  1C07  00CC               	movwf	??_get_time
 10346  1C08  084C               	movf	??_get_time,w
 10347  1C09  00A1               	movwf	_clock_reg+1
 10348                           
 10349                           ;digital_alarm_clock_def.c: 31:     clock_reg[2] = read_ds1307(0x00);
 10350  1C0A  3000               	movlw	0
 10351  1C0B  160A  158A  2545  160A  158A  	fcall	_read_ds1307
 10352  1C10  1283               	bcf	3,5	;RP0=0, select bank0
 10353  1C11  1303               	bcf	3,6	;RP1=0, select bank0
 10354  1C12  00CC               	movwf	??_get_time
 10355  1C13  084C               	movf	??_get_time,w
 10356  1C14  00A2               	movwf	_clock_reg+2
 10357  1C15                     l379:
 10358  1C15  0008               	return
 10359  1C16                     __end_of_get_time:
 10360                           
 10361                           	psect	text27
 10362  10A3                     __ptext27:	
 10363 ;; *************** function ___bmul *****************
 10364 ;; Defined at:
 10365 ;;		line 4 in file "C:\Program Files\Microchip\xc8\v2.32\pic\sources\c90\common\Umul8.c"
 10366 ;; Parameters:    Size  Location     Type
 10367 ;;  multiplier      1    wreg     unsigned char 
 10368 ;;  multiplicand    1    4[BANK0 ] unsigned char 
 10369 ;; Auto vars:     Size  Location     Type
 10370 ;;  multiplier      1    7[BANK0 ] unsigned char 
 10371 ;;  product         1    6[BANK0 ] unsigned char 
 10372 ;; Return value:  Size  Location     Type
 10373 ;;                  1    wreg      unsigned char 
 10374 ;; Registers used:
 10375 ;;		wreg, status,2, status,0
 10376 ;; Tracked objects:
 10377 ;;		On entry : 0/0
 10378 ;;		On exit  : 0/0
 10379 ;;		Unchanged: 0/0
 10380 ;; Data sizes:     COMMON   BANK0   BANK1   BANK3   BANK2
 10381 ;;      Params:         0       1       0       0       0
 10382 ;;      Locals:         0       2       0       0       0
 10383 ;;      Temps:          0       1       0       0       0
 10384 ;;      Totals:         0       4       0       0       0
 10385 ;;Total ram usage:        4 bytes
 10386 ;; Hardware stack levels used: 1
 10387 ;; Hardware stack levels required when called: 1
 10388 ;; This function calls:
 10389 ;;		Nothing
 10390 ;; This function is called by:
 10391 ;;		_display_time
 10392 ;;		_set_time
 10393 ;;		_set_date
 10394 ;;		_set_event
 10395 ;;		_ring_alarm
 10396 ;; This function uses a non-reentrant model
 10397 ;;
 10398                           
 10399                           
 10400                           ;psect for function ___bmul
 10401  10A3                     ___bmul:
 10402                           
 10403                           ;incstack = 0
 10404                           ; Regs used in ___bmul: [wreg+status,2+status,0]
 10405                           ;___bmul@multiplier stored from wreg
 10406  10A3  1283               	bcf	3,5	;RP0=0, select bank0
 10407  10A4  1303               	bcf	3,6	;RP1=0, select bank0
 10408  10A5  00CF               	movwf	___bmul@multiplier
 10409  10A6                     l4616:
 10410  10A6  01CE               	clrf	___bmul@product
 10411  10A7                     l4618:
 10412  10A7  1C4F               	btfss	___bmul@multiplier,0
 10413  10A8  28AA               	goto	u4521
 10414  10A9  28AB               	goto	u4520
 10415  10AA                     u4521:
 10416  10AA  28AF               	goto	l4622
 10417  10AB                     u4520:
 10418  10AB                     l4620:
 10419  10AB  084C               	movf	___bmul@multiplicand,w
 10420  10AC  00CD               	movwf	??___bmul
 10421  10AD  084D               	movf	??___bmul,w
 10422  10AE  07CE               	addwf	___bmul@product,f
 10423  10AF                     l4622:
 10424  10AF  1003               	clrc
 10425  10B0  0DCC               	rlf	___bmul@multiplicand,f
 10426  10B1                     l4624:
 10427  10B1  1003               	clrc
 10428  10B2  0CCF               	rrf	___bmul@multiplier,f
 10429  10B3  084F               	movf	___bmul@multiplier,w
 10430  10B4  1D03               	btfss	3,2
 10431  10B5  28B7               	goto	u4531
 10432  10B6  28B8               	goto	u4530
 10433  10B7                     u4531:
 10434  10B7  28A7               	goto	l4618
 10435  10B8                     u4530:
 10436  10B8                     l4626:
 10437  10B8  084E               	movf	___bmul@product,w
 10438  10B9                     l765:
 10439  10B9  0008               	return
 10440  10BA                     __end_of___bmul:
 10441                           
 10442                           	psect	text28
 10443  0773                     __ptext28:	
 10444 ;; *************** function _display_date *****************
 10445 ;; Defined at:
 10446 ;;		line 88 in file "digital_alarm_clock_def.c"
 10447 ;; Parameters:    Size  Location     Type
 10448 ;;		None
 10449 ;; Auto vars:     Size  Location     Type
 10450 ;;		None
 10451 ;; Return value:  Size  Location     Type
 10452 ;;                  1    wreg      void 
 10453 ;; Registers used:
 10454 ;;		wreg, status,2, status,0, pclath, cstack
 10455 ;; Tracked objects:
 10456 ;;		On entry : 0/0
 10457 ;;		On exit  : 0/0
 10458 ;;		Unchanged: 0/0
 10459 ;; Data sizes:     COMMON   BANK0   BANK1   BANK3   BANK2
 10460 ;;      Params:         0       0       0       0       0
 10461 ;;      Locals:         0       0       0       0       0
 10462 ;;      Temps:          0       2       0       0       0
 10463 ;;      Totals:         0       2       0       0       0
 10464 ;;Total ram usage:        2 bytes
 10465 ;; Hardware stack levels used: 1
 10466 ;; Hardware stack levels required when called: 6
 10467 ;; This function calls:
 10468 ;;		_get_date
 10469 ;; This function is called by:
 10470 ;;		_display_dash_screen
 10471 ;; This function uses a non-reentrant model
 10472 ;;
 10473                           
 10474                           
 10475                           ;psect for function _display_date
 10476  0773                     _display_date:
 10477  0773                     l4830:	
 10478                           ;incstack = 0
 10479                           ; Regs used in _display_date: [wreg+status,2+status,0+pclath+cstack]
 10480                           
 10481                           
 10482                           ;digital_alarm_clock_def.c: 90:     get_date();
 10483  0773  160A  158A  257A  120A  118A  	fcall	_get_date
 10484  0778                     l4832:
 10485                           
 10486                           ;digital_alarm_clock_def.c: 94:     date[0] = ((date_reg[0] >> 4) & 0x03) + '0';
 10487  0778  1683               	bsf	3,5	;RP0=1, select bank1
 10488  0779  1303               	bcf	3,6	;RP1=0, select bank1
 10489  077A  0839               	movf	_date_reg^(0+128),w
 10490  077B  1283               	bcf	3,5	;RP0=0, select bank0
 10491  077C  1303               	bcf	3,6	;RP1=0, select bank0
 10492  077D  00CD               	movwf	??_display_date
 10493  077E  3004               	movlw	4
 10494  077F                     u4885:
 10495  077F  1003               	clrc
 10496  0780  0CCD               	rrf	??_display_date,f
 10497  0781  3EFF               	addlw	-1
 10498  0782  1D03               	skipz
 10499  0783  2F7F               	goto	u4885
 10500  0784  084D               	movf	??_display_date,w
 10501  0785  3903               	andlw	3
 10502  0786  3E30               	addlw	48
 10503  0787  00CE               	movwf	??_display_date+1
 10504  0788  084E               	movf	??_display_date+1,w
 10505  0789  1683               	bsf	3,5	;RP0=1, select bank1
 10506  078A  1303               	bcf	3,6	;RP1=0, select bank1
 10507  078B  00C3               	movwf	_date^(0+128)
 10508  078C                     l4834:
 10509                           
 10510                           ;digital_alarm_clock_def.c: 95:     date[1] = (date_reg[0] & 0x0F) + '0';
 10511  078C  0839               	movf	_date_reg^(0+128),w
 10512  078D  390F               	andlw	15
 10513  078E  3E30               	addlw	48
 10514  078F  1283               	bcf	3,5	;RP0=0, select bank0
 10515  0790  1303               	bcf	3,6	;RP1=0, select bank0
 10516  0791  00CD               	movwf	??_display_date
 10517  0792  084D               	movf	??_display_date,w
 10518  0793  1683               	bsf	3,5	;RP0=1, select bank1
 10519  0794  1303               	bcf	3,6	;RP1=0, select bank1
 10520  0795  00C4               	movwf	(_date^(0+128)+1)
 10521  0796                     l4836:
 10522                           
 10523                           ;digital_alarm_clock_def.c: 97:     date[2] = '-';
 10524  0796  302D               	movlw	45
 10525  0797  1283               	bcf	3,5	;RP0=0, select bank0
 10526  0798  1303               	bcf	3,6	;RP1=0, select bank0
 10527  0799  00CD               	movwf	??_display_date
 10528  079A  084D               	movf	??_display_date,w
 10529  079B  1683               	bsf	3,5	;RP0=1, select bank1
 10530  079C  1303               	bcf	3,6	;RP1=0, select bank1
 10531  079D  00C5               	movwf	(_date^(0+128)+2)
 10532  079E                     l4838:
 10533                           
 10534                           ;digital_alarm_clock_def.c: 99:     date[3] = ((date_reg[1] >> 4) & 0x01) + '0';
 10535  079E  083A               	movf	(_date_reg^(0+128)+1),w
 10536  079F  1283               	bcf	3,5	;RP0=0, select bank0
 10537  07A0  1303               	bcf	3,6	;RP1=0, select bank0
 10538  07A1  00CD               	movwf	??_display_date
 10539  07A2  3004               	movlw	4
 10540  07A3                     u4895:
 10541  07A3  1003               	clrc
 10542  07A4  0CCD               	rrf	??_display_date,f
 10543  07A5  3EFF               	addlw	-1
 10544  07A6  1D03               	skipz
 10545  07A7  2FA3               	goto	u4895
 10546  07A8  084D               	movf	??_display_date,w
 10547  07A9  3901               	andlw	1
 10548  07AA  3E30               	addlw	48
 10549  07AB  00CE               	movwf	??_display_date+1
 10550  07AC  084E               	movf	??_display_date+1,w
 10551  07AD  1683               	bsf	3,5	;RP0=1, select bank1
 10552  07AE  1303               	bcf	3,6	;RP1=0, select bank1
 10553  07AF  00C6               	movwf	(_date^(0+128)+3)
 10554  07B0                     l4840:
 10555                           
 10556                           ;digital_alarm_clock_def.c: 100:     date[4] = (date_reg[1] & 0x0F) + '0';
 10557  07B0  083A               	movf	(_date_reg^(0+128)+1),w
 10558  07B1  390F               	andlw	15
 10559  07B2  3E30               	addlw	48
 10560  07B3  1283               	bcf	3,5	;RP0=0, select bank0
 10561  07B4  1303               	bcf	3,6	;RP1=0, select bank0
 10562  07B5  00CD               	movwf	??_display_date
 10563  07B6  084D               	movf	??_display_date,w
 10564  07B7  1683               	bsf	3,5	;RP0=1, select bank1
 10565  07B8  1303               	bcf	3,6	;RP1=0, select bank1
 10566  07B9  00C7               	movwf	(_date^(0+128)+4)
 10567  07BA                     l4842:
 10568                           
 10569                           ;digital_alarm_clock_def.c: 102:     date[5] = '-';
 10570  07BA  302D               	movlw	45
 10571  07BB  1283               	bcf	3,5	;RP0=0, select bank0
 10572  07BC  1303               	bcf	3,6	;RP1=0, select bank0
 10573  07BD  00CD               	movwf	??_display_date
 10574  07BE  084D               	movf	??_display_date,w
 10575  07BF  1683               	bsf	3,5	;RP0=1, select bank1
 10576  07C0  1303               	bcf	3,6	;RP1=0, select bank1
 10577  07C1  00C8               	movwf	(_date^(0+128)+5)
 10578  07C2                     l4844:
 10579                           
 10580                           ;digital_alarm_clock_def.c: 104:     date[6] = ((date_reg[2] >> 4) & 0x0F) + '0';
 10581  07C2  083B               	movf	(_date_reg^(0+128)+2),w
 10582  07C3  1283               	bcf	3,5	;RP0=0, select bank0
 10583  07C4  1303               	bcf	3,6	;RP1=0, select bank0
 10584  07C5  00CD               	movwf	??_display_date
 10585  07C6  3004               	movlw	4
 10586  07C7                     u4905:
 10587  07C7  1003               	clrc
 10588  07C8  0CCD               	rrf	??_display_date,f
 10589  07C9  3EFF               	addlw	-1
 10590  07CA  1D03               	skipz
 10591  07CB  2FC7               	goto	u4905
 10592  07CC  084D               	movf	??_display_date,w
 10593  07CD  390F               	andlw	15
 10594  07CE  3E30               	addlw	48
 10595  07CF  00CE               	movwf	??_display_date+1
 10596  07D0  084E               	movf	??_display_date+1,w
 10597  07D1  1683               	bsf	3,5	;RP0=1, select bank1
 10598  07D2  1303               	bcf	3,6	;RP1=0, select bank1
 10599  07D3  00C9               	movwf	(_date^(0+128)+6)
 10600  07D4                     l4846:
 10601                           
 10602                           ;digital_alarm_clock_def.c: 105:     date[7] = (date_reg[2] & 0x0F) + '0';
 10603  07D4  083B               	movf	(_date_reg^(0+128)+2),w
 10604  07D5  390F               	andlw	15
 10605  07D6  3E30               	addlw	48
 10606  07D7  1283               	bcf	3,5	;RP0=0, select bank0
 10607  07D8  1303               	bcf	3,6	;RP1=0, select bank0
 10608  07D9  00CD               	movwf	??_display_date
 10609  07DA  084D               	movf	??_display_date,w
 10610  07DB  1683               	bsf	3,5	;RP0=1, select bank1
 10611  07DC  1303               	bcf	3,6	;RP1=0, select bank1
 10612  07DD  00CA               	movwf	(_date^(0+128)+7)
 10613  07DE                     l4848:
 10614                           
 10615                           ;digital_alarm_clock_def.c: 106:     date[8] = '\0';
 10616  07DE  01CB               	clrf	(_date^(0+128)+8)
 10617  07DF                     l4850:
 10618                           
 10619                           ;digital_alarm_clock_def.c: 107:     date[9] = (date_reg[3] & 0x07) + '0';
 10620  07DF  083C               	movf	(_date_reg^(0+128)+3),w
 10621  07E0  3907               	andlw	7
 10622  07E1  3E30               	addlw	48
 10623  07E2  1283               	bcf	3,5	;RP0=0, select bank0
 10624  07E3  1303               	bcf	3,6	;RP1=0, select bank0
 10625  07E4  00CD               	movwf	??_display_date
 10626  07E5  084D               	movf	??_display_date,w
 10627  07E6  1683               	bsf	3,5	;RP0=1, select bank1
 10628  07E7  1303               	bcf	3,6	;RP1=0, select bank1
 10629  07E8  00CC               	movwf	(_date^(0+128)+9)
 10630  07E9                     l392:
 10631  07E9  0008               	return
 10632  07EA                     __end_of_display_date:
 10633                           
 10634                           	psect	text29
 10635  1D7A                     __ptext29:	
 10636 ;; *************** function _get_date *****************
 10637 ;; Defined at:
 10638 ;;		line 35 in file "digital_alarm_clock_def.c"
 10639 ;; Parameters:    Size  Location     Type
 10640 ;;		None
 10641 ;; Auto vars:     Size  Location     Type
 10642 ;;		None
 10643 ;; Return value:  Size  Location     Type
 10644 ;;                  1    wreg      void 
 10645 ;; Registers used:
 10646 ;;		wreg, status,2, status,0, pclath, cstack
 10647 ;; Tracked objects:
 10648 ;;		On entry : 0/0
 10649 ;;		On exit  : 0/0
 10650 ;;		Unchanged: 0/0
 10651 ;; Data sizes:     COMMON   BANK0   BANK1   BANK3   BANK2
 10652 ;;      Params:         0       0       0       0       0
 10653 ;;      Locals:         0       0       0       0       0
 10654 ;;      Temps:          0       1       0       0       0
 10655 ;;      Totals:         0       1       0       0       0
 10656 ;;Total ram usage:        1 bytes
 10657 ;; Hardware stack levels used: 1
 10658 ;; Hardware stack levels required when called: 5
 10659 ;; This function calls:
 10660 ;;		_read_ds1307
 10661 ;; This function is called by:
 10662 ;;		_display_date
 10663 ;;		_set_date
 10664 ;; This function uses a non-reentrant model
 10665 ;;
 10666                           
 10667                           
 10668                           ;psect for function _get_date
 10669  1D7A                     _get_date:
 10670  1D7A                     l4590:	
 10671                           ;incstack = 0
 10672                           ; Regs used in _get_date: [wreg+status,2+status,0+pclath+cstack]
 10673                           
 10674                           
 10675                           ;digital_alarm_clock_def.c: 37:     date_reg[0] = read_ds1307(0x04);
 10676  1D7A  3004               	movlw	4
 10677  1D7B  160A  158A  2545  160A  158A  	fcall	_read_ds1307
 10678  1D80  1283               	bcf	3,5	;RP0=0, select bank0
 10679  1D81  1303               	bcf	3,6	;RP1=0, select bank0
 10680  1D82  00CC               	movwf	??_get_date
 10681  1D83  084C               	movf	??_get_date,w
 10682  1D84  1683               	bsf	3,5	;RP0=1, select bank1
 10683  1D85  1303               	bcf	3,6	;RP1=0, select bank1
 10684  1D86  00B9               	movwf	_date_reg^(0+128)
 10685                           
 10686                           ;digital_alarm_clock_def.c: 38:     date_reg[1] = read_ds1307(0x05);
 10687  1D87  3005               	movlw	5
 10688  1D88  160A  158A  2545  160A  158A  	fcall	_read_ds1307
 10689  1D8D  1283               	bcf	3,5	;RP0=0, select bank0
 10690  1D8E  1303               	bcf	3,6	;RP1=0, select bank0
 10691  1D8F  00CC               	movwf	??_get_date
 10692  1D90  084C               	movf	??_get_date,w
 10693  1D91  1683               	bsf	3,5	;RP0=1, select bank1
 10694  1D92  1303               	bcf	3,6	;RP1=0, select bank1
 10695  1D93  00BA               	movwf	(_date_reg^(0+128)+1)
 10696                           
 10697                           ;digital_alarm_clock_def.c: 39:     date_reg[2] = read_ds1307(0x06);
 10698  1D94  3006               	movlw	6
 10699  1D95  160A  158A  2545  160A  158A  	fcall	_read_ds1307
 10700  1D9A  1283               	bcf	3,5	;RP0=0, select bank0
 10701  1D9B  1303               	bcf	3,6	;RP1=0, select bank0
 10702  1D9C  00CC               	movwf	??_get_date
 10703  1D9D  084C               	movf	??_get_date,w
 10704  1D9E  1683               	bsf	3,5	;RP0=1, select bank1
 10705  1D9F  1303               	bcf	3,6	;RP1=0, select bank1
 10706  1DA0  00BB               	movwf	(_date_reg^(0+128)+2)
 10707                           
 10708                           ;digital_alarm_clock_def.c: 40:     date_reg[3] = read_ds1307(0x03);
 10709  1DA1  3003               	movlw	3
 10710  1DA2  160A  158A  2545  160A  158A  	fcall	_read_ds1307
 10711  1DA7  1283               	bcf	3,5	;RP0=0, select bank0
 10712  1DA8  1303               	bcf	3,6	;RP1=0, select bank0
 10713  1DA9  00CC               	movwf	??_get_date
 10714  1DAA  084C               	movf	??_get_date,w
 10715  1DAB  1683               	bsf	3,5	;RP0=1, select bank1
 10716  1DAC  1303               	bcf	3,6	;RP1=0, select bank1
 10717  1DAD  00BC               	movwf	(_date_reg^(0+128)+3)
 10718  1DAE                     l382:
 10719  1DAE  0008               	return
 10720  1DAF                     __end_of_get_date:
 10721                           
 10722                           	psect	text30
 10723  1D45                     __ptext30:	
 10724 ;; *************** function _read_ds1307 *****************
 10725 ;; Defined at:
 10726 ;;		line 14 in file "ds1307.c"
 10727 ;; Parameters:    Size  Location     Type
 10728 ;;  addr            1    wreg     unsigned char 
 10729 ;; Auto vars:     Size  Location     Type
 10730 ;;  addr            1    2[BANK0 ] unsigned char 
 10731 ;;  data            1    3[BANK0 ] unsigned char 
 10732 ;; Return value:  Size  Location     Type
 10733 ;;                  1    wreg      unsigned char 
 10734 ;; Registers used:
 10735 ;;		wreg, status,2, status,0, pclath, cstack
 10736 ;; Tracked objects:
 10737 ;;		On entry : 0/0
 10738 ;;		On exit  : 0/0
 10739 ;;		Unchanged: 0/0
 10740 ;; Data sizes:     COMMON   BANK0   BANK1   BANK3   BANK2
 10741 ;;      Params:         0       0       0       0       0
 10742 ;;      Locals:         0       2       0       0       0
 10743 ;;      Temps:          1       0       0       0       0
 10744 ;;      Totals:         1       2       0       0       0
 10745 ;;Total ram usage:        3 bytes
 10746 ;; Hardware stack levels used: 1
 10747 ;; Hardware stack levels required when called: 4
 10748 ;; This function calls:
 10749 ;;		_i2c_read
 10750 ;;		_i2c_rep_start
 10751 ;;		_i2c_start
 10752 ;;		_i2c_stop
 10753 ;;		_i2c_write
 10754 ;; This function is called by:
 10755 ;;		_init_ds1307
 10756 ;;		_get_time
 10757 ;;		_get_date
 10758 ;; This function uses a non-reentrant model
 10759 ;;
 10760                           
 10761                           
 10762                           ;psect for function _read_ds1307
 10763  1D45                     _read_ds1307:
 10764                           
 10765                           ;incstack = 0
 10766                           ; Regs used in _read_ds1307: [wreg+status,2+status,0+pclath+cstack]
 10767                           ;read_ds1307@addr stored from wreg
 10768  1D45  1283               	bcf	3,5	;RP0=0, select bank0
 10769  1D46  1303               	bcf	3,6	;RP1=0, select bank0
 10770  1D47  00CA               	movwf	read_ds1307@addr
 10771  1D48                     l4548:
 10772                           
 10773                           ;ds1307.c: 14: unsigned char read_ds1307(unsigned char addr);ds1307.c: 15: {;ds1307.c: 1
      +                          6:     unsigned char data;;ds1307.c: 18:     i2c_start();
 10774  1D48  160A  158A  233A  160A  158A  	fcall	_i2c_start
 10775                           
 10776                           ;ds1307.c: 19:     i2c_write(0b11010000);
 10777  1D4D  30D0               	movlw	208
 10778  1D4E  160A  158A  2356  160A  158A  	fcall	_i2c_write
 10779                           
 10780                           ;ds1307.c: 20:     i2c_write(addr);
 10781  1D53  1283               	bcf	3,5	;RP0=0, select bank0
 10782  1D54  1303               	bcf	3,6	;RP1=0, select bank0
 10783  1D55  084A               	movf	read_ds1307@addr,w
 10784  1D56  160A  158A  2356  160A  158A  	fcall	_i2c_write
 10785                           
 10786                           ;ds1307.c: 21:     i2c_rep_start();
 10787  1D5B  160A  158A  2361  160A  158A  	fcall	_i2c_rep_start
 10788                           
 10789                           ;ds1307.c: 22:     i2c_write(0b11010001);
 10790  1D60  30D1               	movlw	209
 10791  1D61  160A  158A  2356  160A  158A  	fcall	_i2c_write
 10792                           
 10793                           ;ds1307.c: 23:     data = i2c_read(0);
 10794  1D66  3000               	movlw	0
 10795  1D67  160A  158A  245D  160A  158A  	fcall	_i2c_read
 10796  1D6C  00F5               	movwf	??_read_ds1307
 10797  1D6D  0875               	movf	??_read_ds1307,w
 10798  1D6E  1283               	bcf	3,5	;RP0=0, select bank0
 10799  1D6F  1303               	bcf	3,6	;RP1=0, select bank0
 10800  1D70  00CB               	movwf	read_ds1307@data
 10801                           
 10802                           ;ds1307.c: 24:     i2c_stop();
 10803  1D71  160A  158A  2343  160A  158A  	fcall	_i2c_stop
 10804  1D76                     l4550:
 10805                           
 10806                           ;ds1307.c: 26:     return data;
 10807  1D76  1283               	bcf	3,5	;RP0=0, select bank0
 10808  1D77  1303               	bcf	3,6	;RP1=0, select bank0
 10809  1D78  084B               	movf	read_ds1307@data,w
 10810  1D79                     l69:
 10811  1D79  0008               	return
 10812  1D7A                     __end_of_read_ds1307:
 10813                           
 10814                           	psect	text31
 10815  1B61                     __ptext31:	
 10816 ;; *************** function _i2c_rep_start *****************
 10817 ;; Defined at:
 10818 ;;		line 28 in file "i2c.c"
 10819 ;; Parameters:    Size  Location     Type
 10820 ;;		None
 10821 ;; Auto vars:     Size  Location     Type
 10822 ;;		None
 10823 ;; Return value:  Size  Location     Type
 10824 ;;                  1    wreg      void 
 10825 ;; Registers used:
 10826 ;;		wreg, status,2, status,0, pclath, cstack
 10827 ;; Tracked objects:
 10828 ;;		On entry : 0/0
 10829 ;;		On exit  : 0/0
 10830 ;;		Unchanged: 0/0
 10831 ;; Data sizes:     COMMON   BANK0   BANK1   BANK3   BANK2
 10832 ;;      Params:         0       0       0       0       0
 10833 ;;      Locals:         0       0       0       0       0
 10834 ;;      Temps:          0       0       0       0       0
 10835 ;;      Totals:         0       0       0       0       0
 10836 ;;Total ram usage:        0 bytes
 10837 ;; Hardware stack levels used: 1
 10838 ;; Hardware stack levels required when called: 3
 10839 ;; This function calls:
 10840 ;;		_i2c_start
 10841 ;;		_i2c_stop
 10842 ;; This function is called by:
 10843 ;;		_read_ds1307
 10844 ;;		_read_EEPROM
 10845 ;; This function uses a non-reentrant model
 10846 ;;
 10847                           
 10848                           
 10849                           ;psect for function _i2c_rep_start
 10850  1B61                     _i2c_rep_start:
 10851  1B61                     l4512:	
 10852                           ;incstack = 0
 10853                           ; Regs used in _i2c_rep_start: [wreg+status,2+status,0+pclath+cstack]
 10854                           
 10855                           
 10856                           ;i2c.c: 30:     i2c_stop();
 10857  1B61  160A  158A  2343  160A  158A  	fcall	_i2c_stop
 10858                           
 10859                           ;i2c.c: 31:     i2c_start();
 10860  1B66  160A  158A  233A  160A  158A  	fcall	_i2c_start
 10861  1B6B                     l135:
 10862  1B6B  0008               	return
 10863  1B6C                     __end_of_i2c_rep_start:
 10864                           
 10865                           	psect	text32
 10866  1C5D                     __ptext32:	
 10867 ;; *************** function _i2c_read *****************
 10868 ;; Defined at:
 10869 ;;		line 41 in file "i2c.c"
 10870 ;; Parameters:    Size  Location     Type
 10871 ;;  ack             1    wreg     unsigned char 
 10872 ;; Auto vars:     Size  Location     Type
 10873 ;;  ack             1    0[BANK0 ] unsigned char 
 10874 ;;  data            1    1[BANK0 ] unsigned char 
 10875 ;; Return value:  Size  Location     Type
 10876 ;;                  1    wreg      unsigned char 
 10877 ;; Registers used:
 10878 ;;		wreg, status,2, status,0, pclath, cstack
 10879 ;; Tracked objects:
 10880 ;;		On entry : 0/0
 10881 ;;		On exit  : 0/0
 10882 ;;		Unchanged: 0/0
 10883 ;; Data sizes:     COMMON   BANK0   BANK1   BANK3   BANK2
 10884 ;;      Params:         0       0       0       0       0
 10885 ;;      Locals:         0       2       0       0       0
 10886 ;;      Temps:          1       0       0       0       0
 10887 ;;      Totals:         1       2       0       0       0
 10888 ;;Total ram usage:        3 bytes
 10889 ;; Hardware stack levels used: 1
 10890 ;; Hardware stack levels required when called: 2
 10891 ;; This function calls:
 10892 ;;		_i2c_wait_for_idle
 10893 ;; This function is called by:
 10894 ;;		_read_ds1307
 10895 ;;		_read_EEPROM
 10896 ;; This function uses a non-reentrant model
 10897 ;;
 10898                           
 10899                           
 10900                           ;psect for function _i2c_read
 10901  1C5D                     _i2c_read:
 10902                           
 10903                           ;incstack = 0
 10904                           ; Regs used in _i2c_read: [wreg+status,2+status,0+pclath+cstack]
 10905                           ;i2c_read@ack stored from wreg
 10906  1C5D  1283               	bcf	3,5	;RP0=0, select bank0
 10907  1C5E  1303               	bcf	3,6	;RP1=0, select bank0
 10908  1C5F  00C8               	movwf	i2c_read@ack
 10909  1C60                     l4514:
 10910                           
 10911                           ;i2c.c: 41: unsigned char i2c_read(unsigned char ack);i2c.c: 42: {;i2c.c: 43:     unsign
      +                          ed char data;;i2c.c: 45:     i2c_wait_for_idle();
 10912  1C60  160A  158A  236C  160A  158A  	fcall	_i2c_wait_for_idle
 10913  1C65                     l4516:
 10914                           
 10915                           ;i2c.c: 46:     RCEN = 1;
 10916  1C65  1683               	bsf	3,5	;RP0=1, select bank1
 10917  1C66  1303               	bcf	3,6	;RP1=0, select bank1
 10918  1C67  1591               	bsf	17,3	;volatile
 10919                           
 10920                           ;i2c.c: 48:     i2c_wait_for_idle();
 10921  1C68  160A  158A  236C  160A  158A  	fcall	_i2c_wait_for_idle
 10922  1C6D                     l4518:
 10923                           
 10924                           ;i2c.c: 49:     data = SSPBUF;
 10925  1C6D  1283               	bcf	3,5	;RP0=0, select bank0
 10926  1C6E  1303               	bcf	3,6	;RP1=0, select bank0
 10927  1C6F  0813               	movf	19,w	;volatile
 10928  1C70  00F4               	movwf	??_i2c_read
 10929  1C71  0874               	movf	??_i2c_read,w
 10930  1C72  00C9               	movwf	i2c_read@data
 10931  1C73                     l4520:
 10932                           
 10933                           ;i2c.c: 51:     if (ack == 1)
 10934  1C73  0348               	decf	i2c_read@ack,w
 10935  1C74  1D03               	btfss	3,2
 10936  1C75  2C77               	goto	u4451
 10937  1C76  2C78               	goto	u4450
 10938  1C77                     u4451:
 10939  1C77  2C7C               	goto	l141
 10940  1C78                     u4450:
 10941  1C78                     l4522:
 10942                           
 10943                           ;i2c.c: 52:     {;i2c.c: 53:         ACKDT = 1;
 10944  1C78  1683               	bsf	3,5	;RP0=1, select bank1
 10945  1C79  1303               	bcf	3,6	;RP1=0, select bank1
 10946  1C7A  1691               	bsf	17,5	;volatile
 10947                           
 10948                           ;i2c.c: 54:     }
 10949  1C7B  2C7F               	goto	l142
 10950  1C7C                     l141:	
 10951                           ;i2c.c: 55:     else
 10952                           
 10953                           
 10954                           ;i2c.c: 56:     {;i2c.c: 57:         ACKDT = 0;
 10955  1C7C  1683               	bsf	3,5	;RP0=1, select bank1
 10956  1C7D  1303               	bcf	3,6	;RP1=0, select bank1
 10957  1C7E  1291               	bcf	17,5	;volatile
 10958  1C7F                     l142:	
 10959                           ;i2c.c: 58:     }
 10960                           
 10961                           
 10962                           ;i2c.c: 60:     ACKEN = 1;
 10963  1C7F  1611               	bsf	17,4	;volatile
 10964  1C80                     l4524:
 10965                           
 10966                           ;i2c.c: 62:     return data;
 10967  1C80  1283               	bcf	3,5	;RP0=0, select bank0
 10968  1C81  1303               	bcf	3,6	;RP1=0, select bank0
 10969  1C82  0849               	movf	i2c_read@data,w
 10970  1C83                     l143:
 10971  1C83  0008               	return
 10972  1C84                     __end_of_i2c_read:
 10973                           
 10974                           	psect	text33
 10975  1B79                     __ptext33:	
 10976 ;; *************** function _clear_screen *****************
 10977 ;; Defined at:
 10978 ;;		line 1008 in file "digital_alarm_clock_def.c"
 10979 ;; Parameters:    Size  Location     Type
 10980 ;;		None
 10981 ;; Auto vars:     Size  Location     Type
 10982 ;;		None
 10983 ;; Return value:  Size  Location     Type
 10984 ;;                  1    wreg      void 
 10985 ;; Registers used:
 10986 ;;		wreg, status,2, status,0, pclath, cstack
 10987 ;; Tracked objects:
 10988 ;;		On entry : 0/0
 10989 ;;		On exit  : 0/0
 10990 ;;		Unchanged: 0/0
 10991 ;; Data sizes:     COMMON   BANK0   BANK1   BANK3   BANK2
 10992 ;;      Params:         0       0       0       0       0
 10993 ;;      Locals:         0       0       0       0       0
 10994 ;;      Temps:          0       2       0       0       0
 10995 ;;      Totals:         0       2       0       0       0
 10996 ;;Total ram usage:        2 bytes
 10997 ;; Hardware stack levels used: 1
 10998 ;; Hardware stack levels required when called: 2
 10999 ;; This function calls:
 11000 ;;		_clcd_write
 11001 ;; This function is called by:
 11002 ;;		_main
 11003 ;;		_display_dash_screen
 11004 ;;		_menu1
 11005 ;;		_menu2
 11006 ;;		_menu3
 11007 ;;		_set_time
 11008 ;;		_set_date
 11009 ;;		_set_event
 11010 ;;		_display_event
 11011 ;; This function uses a non-reentrant model
 11012 ;;
 11013                           
 11014                           
 11015                           ;psect for function _clear_screen
 11016  1B79                     _clear_screen:
 11017  1B79                     l4786:	
 11018                           ;incstack = 0
 11019                           ; Regs used in _clear_screen: [wreg+status,2+status,0+pclath+cstack]
 11020                           
 11021                           
 11022                           ;digital_alarm_clock_def.c: 1010:     clcd_write(0x01, 0);
 11023  1B79  01F4               	clrf	clcd_write@mode
 11024  1B7A  3001               	movlw	1
 11025  1B7B  160A  158A  25E4  160A  158A  	fcall	_clcd_write
 11026  1B80                     l4788:
 11027                           
 11028                           ;digital_alarm_clock_def.c: 1011:     _delay((unsigned long)((500)*(20000000/4000000.0))
      +                          );
 11029  1B80  3004               	movlw	4
 11030  1B81  1283               	bcf	3,5	;RP0=0, select bank0
 11031  1B82  1303               	bcf	3,6	;RP1=0, select bank0
 11032  1B83  00CB               	movwf	??_clear_screen+1
 11033  1B84  303D               	movlw	61
 11034  1B85  00CA               	movwf	??_clear_screen
 11035  1B86                     u6677:
 11036  1B86  0BCA               	decfsz	??_clear_screen,f
 11037  1B87  2B86               	goto	u6677
 11038  1B88  0BCB               	decfsz	??_clear_screen+1,f
 11039  1B89  2B86               	goto	u6677
 11040  1B8A                     l637:
 11041  1B8A  0008               	return
 11042  1B8B                     __end_of_clear_screen:
 11043                           
 11044                           	psect	text34
 11045  07EA                     __ptext34:	
 11046 ;; *************** function _clcd_putch *****************
 11047 ;; Defined at:
 11048 ;;		line 56 in file "clcd.c"
 11049 ;; Parameters:    Size  Location     Type
 11050 ;;  data            1    wreg     const unsigned char 
 11051 ;;  addr            1    4[BANK0 ] unsigned char 
 11052 ;; Auto vars:     Size  Location     Type
 11053 ;;  data            1    5[BANK0 ] const unsigned char 
 11054 ;; Return value:  Size  Location     Type
 11055 ;;                  1    wreg      void 
 11056 ;; Registers used:
 11057 ;;		wreg, status,2, status,0, pclath, cstack
 11058 ;; Tracked objects:
 11059 ;;		On entry : 0/0
 11060 ;;		On exit  : 0/0
 11061 ;;		Unchanged: 0/0
 11062 ;; Data sizes:     COMMON   BANK0   BANK1   BANK3   BANK2
 11063 ;;      Params:         0       1       0       0       0
 11064 ;;      Locals:         0       1       0       0       0
 11065 ;;      Temps:          0       0       0       0       0
 11066 ;;      Totals:         0       2       0       0       0
 11067 ;;Total ram usage:        2 bytes
 11068 ;; Hardware stack levels used: 1
 11069 ;; Hardware stack levels required when called: 2
 11070 ;; This function calls:
 11071 ;;		_clcd_write
 11072 ;; This function is called by:
 11073 ;;		_display_dash_screen
 11074 ;;		_menu1
 11075 ;;		_menu2
 11076 ;;		_menu3
 11077 ;;		_set_time
 11078 ;;		_set_date
 11079 ;;		_set_event
 11080 ;;		_display_event
 11081 ;; This function uses a non-reentrant model
 11082 ;;
 11083                           
 11084                           
 11085                           ;psect for function _clcd_putch
 11086  07EA                     _clcd_putch:
 11087                           
 11088                           ;incstack = 0
 11089                           ; Regs used in _clcd_putch: [wreg+status,2+status,0+pclath+cstack]
 11090                           ;clcd_putch@data stored from wreg
 11091  07EA  1283               	bcf	3,5	;RP0=0, select bank0
 11092  07EB  1303               	bcf	3,6	;RP1=0, select bank0
 11093  07EC  00CD               	movwf	clcd_putch@data
 11094  07ED                     l4744:
 11095                           
 11096                           ;clcd.c: 56: void clcd_putch(const char data, unsigned char addr);clcd.c: 57: {;clcd.c: 
      +                          58:     clcd_write(addr, 0);
 11097  07ED  01F4               	clrf	clcd_write@mode
 11098  07EE  084C               	movf	clcd_putch@addr,w
 11099  07EF  160A  158A  25E4  120A  118A  	fcall	_clcd_write
 11100                           
 11101                           ;clcd.c: 59:     clcd_write(data, 1);
 11102  07F4  01F4               	clrf	clcd_write@mode
 11103  07F5  0AF4               	incf	clcd_write@mode,f
 11104  07F6  1283               	bcf	3,5	;RP0=0, select bank0
 11105  07F7  1303               	bcf	3,6	;RP1=0, select bank0
 11106  07F8  084D               	movf	clcd_putch@data,w
 11107  07F9  160A  158A  25E4  120A  118A  	fcall	_clcd_write
 11108  07FE                     l26:
 11109  07FE  0008               	return
 11110  07FF                     __end_of_clcd_putch:
 11111                           
 11112                           	psect	text35
 11113  1CDE                     __ptext35:	
 11114 ;; *************** function _clcd_print *****************
 11115 ;; Defined at:
 11116 ;;		line 62 in file "clcd.c"
 11117 ;; Parameters:    Size  Location     Type
 11118 ;;  str             2    2[BANK0 ] PTR const unsigned char 
 11119 ;;		 -> STR_18(7), STR_17(7), STR_16(7), STR_15(7), 
 11120 ;;		 -> STR_14(17), STR_13(17), STR_12(7), STR_11(7), 
 11121 ;;		 -> STR_10(7), STR_9(7), STR_8(7), STR_7(7), 
 11122 ;;		 -> new_event(10), date(10), time(9), STR_6(9), 
 11123 ;;		 -> STR_5(9), STR_4(11), STR_3(10), STR_2(14), 
 11124 ;;		 -> STR_1(15), 
 11125 ;;  addr            1    4[BANK0 ] unsigned char 
 11126 ;; Auto vars:     Size  Location     Type
 11127 ;;		None
 11128 ;; Return value:  Size  Location     Type
 11129 ;;                  1    wreg      void 
 11130 ;; Registers used:
 11131 ;;		wreg, fsr0l, fsr0h, status,2, status,0, btemp+1, pclath, cstack
 11132 ;; Tracked objects:
 11133 ;;		On entry : 0/0
 11134 ;;		On exit  : 0/0
 11135 ;;		Unchanged: 0/0
 11136 ;; Data sizes:     COMMON   BANK0   BANK1   BANK3   BANK2
 11137 ;;      Params:         0       3       0       0       0
 11138 ;;      Locals:         0       0       0       0       0
 11139 ;;      Temps:          0       0       0       0       0
 11140 ;;      Totals:         0       3       0       0       0
 11141 ;;Total ram usage:        3 bytes
 11142 ;; Hardware stack levels used: 1
 11143 ;; Hardware stack levels required when called: 2
 11144 ;; This function calls:
 11145 ;;		_clcd_write
 11146 ;; This function is called by:
 11147 ;;		_display_dash_screen
 11148 ;;		_menu1
 11149 ;;		_menu2
 11150 ;;		_menu3
 11151 ;;		_set_time
 11152 ;;		_set_date
 11153 ;;		_set_event
 11154 ;;		_display_event
 11155 ;; This function uses a non-reentrant model
 11156 ;;
 11157                           
 11158                           
 11159                           ;psect for function _clcd_print
 11160  1CDE                     _clcd_print:
 11161  1CDE                     l4746:	
 11162                           ;incstack = 0
 11163                           ; Regs used in _clcd_print: [wreg-fsr0h+status,2+status,0+btemp+1+pclath+cstack]
 11164                           
 11165                           
 11166                           ;clcd.c: 62: void clcd_print(const char *str, unsigned char addr);clcd.c: 63: {;clcd.c: 
      +                          64:     clcd_write(addr, 0);
 11167  1CDE  01F4               	clrf	clcd_write@mode
 11168  1CDF  1283               	bcf	3,5	;RP0=0, select bank0
 11169  1CE0  1303               	bcf	3,6	;RP1=0, select bank0
 11170  1CE1  084C               	movf	clcd_print@addr,w
 11171  1CE2  160A  158A  25E4  160A  158A  	fcall	_clcd_write
 11172                           
 11173                           ;clcd.c: 66:     while (*str != '\0')
 11174  1CE7  2D00               	goto	l4752
 11175  1CE8                     l4748:
 11176                           
 11177                           ;clcd.c: 67:     {;clcd.c: 68:         clcd_write(*str, 1);
 11178  1CE8  01F4               	clrf	clcd_write@mode
 11179  1CE9  0AF4               	incf	clcd_write@mode,f
 11180  1CEA  084B               	movf	clcd_print@str+1,w
 11181  1CEB  00FF               	movwf	btemp+1
 11182  1CEC  084A               	movf	clcd_print@str,w
 11183  1CED  0084               	movwf	4
 11184  1CEE  160A  118A  2000  160A  158A  	fcall	stringtab
 11185  1CF3  160A  158A  25E4  160A  158A  	fcall	_clcd_write
 11186  1CF8                     l4750:
 11187                           
 11188                           ;clcd.c: 69:         str++;
 11189  1CF8  3001               	movlw	1
 11190  1CF9  1283               	bcf	3,5	;RP0=0, select bank0
 11191  1CFA  1303               	bcf	3,6	;RP1=0, select bank0
 11192  1CFB  07CA               	addwf	clcd_print@str,f
 11193  1CFC  1803               	skipnc
 11194  1CFD  0ACB               	incf	clcd_print@str+1,f
 11195  1CFE  3000               	movlw	0
 11196  1CFF  07CB               	addwf	clcd_print@str+1,f
 11197  1D00                     l4752:
 11198                           
 11199                           ;clcd.c: 66:     while (*str != '\0')
 11200  1D00  1283               	bcf	3,5	;RP0=0, select bank0
 11201  1D01  1303               	bcf	3,6	;RP1=0, select bank0
 11202  1D02  084B               	movf	clcd_print@str+1,w
 11203  1D03  00FF               	movwf	btemp+1
 11204  1D04  084A               	movf	clcd_print@str,w
 11205  1D05  0084               	movwf	4
 11206  1D06  160A  118A  2000  160A  158A  	fcall	stringtab
 11207  1D0B  3A00               	xorlw	0
 11208  1D0C  1D03               	skipz
 11209  1D0D  2D0F               	goto	u4801
 11210  1D0E  2D10               	goto	u4800
 11211  1D0F                     u4801:
 11212  1D0F  2CE8               	goto	l4748
 11213  1D10                     u4800:
 11214  1D10                     l32:
 11215  1D10  0008               	return
 11216  1D11                     __end_of_clcd_print:
 11217                           
 11218                           	psect	text36
 11219  1DE4                     __ptext36:	
 11220 ;; *************** function _clcd_write *****************
 11221 ;; Defined at:
 11222 ;;		line 4 in file "clcd.c"
 11223 ;; Parameters:    Size  Location     Type
 11224 ;;  byte            1    wreg     unsigned char 
 11225 ;;  mode            1    4[COMMON] unsigned char 
 11226 ;; Auto vars:     Size  Location     Type
 11227 ;;  byte            1    5[COMMON] unsigned char 
 11228 ;; Return value:  Size  Location     Type
 11229 ;;                  1    wreg      void 
 11230 ;; Registers used:
 11231 ;;		wreg, status,2, status,0
 11232 ;; Tracked objects:
 11233 ;;		On entry : 0/0
 11234 ;;		On exit  : 0/0
 11235 ;;		Unchanged: 0/0
 11236 ;; Data sizes:     COMMON   BANK0   BANK1   BANK3   BANK2
 11237 ;;      Params:         1       0       0       0       0
 11238 ;;      Locals:         1       0       0       0       0
 11239 ;;      Temps:          0       2       0       0       0
 11240 ;;      Totals:         2       2       0       0       0
 11241 ;;Total ram usage:        4 bytes
 11242 ;; Hardware stack levels used: 1
 11243 ;; Hardware stack levels required when called: 1
 11244 ;; This function calls:
 11245 ;;		Nothing
 11246 ;; This function is called by:
 11247 ;;		_init_display_controller
 11248 ;;		_clcd_putch
 11249 ;;		_clcd_print
 11250 ;;		_clear_screen
 11251 ;; This function uses a non-reentrant model
 11252 ;;
 11253                           
 11254                           
 11255                           ;psect for function _clcd_write
 11256  1DE4                     _clcd_write:
 11257                           
 11258                           ;incstack = 0
 11259                           ; Regs used in _clcd_write: [wreg+status,2+status,0]
 11260                           ;clcd_write@byte stored from wreg
 11261  1DE4  00F5               	movwf	clcd_write@byte
 11262  1DE5                     l4528:
 11263                           
 11264                           ;clcd.c: 4: void clcd_write(unsigned char byte, unsigned char mode);clcd.c: 5: {;clcd.c:
      +                           6:     RE2 =(__bit) mode;
 11265  1DE5  1874               	btfsc	clcd_write@mode,0
 11266  1DE6  2DE8               	goto	u4461
 11267  1DE7  2DEC               	goto	u4460
 11268  1DE8                     u4461:
 11269  1DE8  1283               	bcf	3,5	;RP0=0, select bank0
 11270  1DE9  1303               	bcf	3,6	;RP1=0, select bank0
 11271  1DEA  1509               	bsf	9,2	;volatile
 11272  1DEB  2DEF               	goto	u4474
 11273  1DEC                     u4460:
 11274  1DEC  1283               	bcf	3,5	;RP0=0, select bank0
 11275  1DED  1303               	bcf	3,6	;RP1=0, select bank0
 11276  1DEE  1109               	bcf	9,2	;volatile
 11277  1DEF                     u4474:
 11278  1DEF                     l4530:
 11279                           
 11280                           ;clcd.c: 8:     PORTD = byte & 0xF0;
 11281  1DEF  0875               	movf	clcd_write@byte,w
 11282  1DF0  39F0               	andlw	240
 11283  1DF1  0088               	movwf	8	;volatile
 11284  1DF2                     l4532:
 11285                           
 11286                           ;clcd.c: 9:     RE1 = 1;
 11287  1DF2  1489               	bsf	9,1	;volatile
 11288  1DF3                     l4534:
 11289                           
 11290                           ;clcd.c: 10:     _delay((unsigned long)((100)*(20000000/4000000.0)));
 11291  1DF3  30A5               	movlw	165
 11292  1DF4  1283               	bcf	3,5	;RP0=0, select bank0
 11293  1DF5  1303               	bcf	3,6	;RP1=0, select bank0
 11294  1DF6  00C8               	movwf	??_clcd_write
 11295  1DF7                     u6687:
 11296  1DF7  0BC8               	decfsz	??_clcd_write,f
 11297  1DF8  2DF7               	goto	u6687
 11298  1DF9  2DFA               	nop2
 11299  1DFA                     l4536:
 11300                           
 11301                           ;clcd.c: 11:     RE1 = 0;
 11302  1DFA  1283               	bcf	3,5	;RP0=0, select bank0
 11303  1DFB  1303               	bcf	3,6	;RP1=0, select bank0
 11304  1DFC  1089               	bcf	9,1	;volatile
 11305  1DFD                     l4538:
 11306                           
 11307                           ;clcd.c: 13:     PORTD = (byte & 0x0F) << (unsigned char) 4;
 11308  1DFD  0875               	movf	clcd_write@byte,w
 11309  1DFE  390F               	andlw	15
 11310  1DFF  00C8               	movwf	??_clcd_write
 11311  1E00  3003               	movlw	3
 11312  1E01                     u4485:
 11313  1E01  1003               	clrc
 11314  1E02  0DC8               	rlf	??_clcd_write,f
 11315  1E03  3EFF               	addlw	-1
 11316  1E04  1D03               	skipz
 11317  1E05  2E01               	goto	u4485
 11318  1E06  1003               	clrc
 11319  1E07  0D48               	rlf	??_clcd_write,w
 11320  1E08  0088               	movwf	8	;volatile
 11321  1E09                     l4540:
 11322                           
 11323                           ;clcd.c: 14:     RE1 = 1;
 11324  1E09  1489               	bsf	9,1	;volatile
 11325  1E0A                     l4542:
 11326                           
 11327                           ;clcd.c: 15:     _delay((unsigned long)((100)*(20000000/4000000.0)));
 11328  1E0A  30A5               	movlw	165
 11329  1E0B  1283               	bcf	3,5	;RP0=0, select bank0
 11330  1E0C  1303               	bcf	3,6	;RP1=0, select bank0
 11331  1E0D  00C8               	movwf	??_clcd_write
 11332  1E0E                     u6697:
 11333  1E0E  0BC8               	decfsz	??_clcd_write,f
 11334  1E0F  2E0E               	goto	u6697
 11335  1E10  2E11               	nop2
 11336  1E11                     l4544:
 11337                           
 11338                           ;clcd.c: 16:     RE1 = 0;
 11339  1E11  1283               	bcf	3,5	;RP0=0, select bank0
 11340  1E12  1303               	bcf	3,6	;RP1=0, select bank0
 11341  1E13  1089               	bcf	9,1	;volatile
 11342  1E14                     l4546:
 11343                           
 11344                           ;clcd.c: 18:     _delay((unsigned long)((4100)*(20000000/4000000.0)));
 11345  1E14  301B               	movlw	27
 11346  1E15  1283               	bcf	3,5	;RP0=0, select bank0
 11347  1E16  1303               	bcf	3,6	;RP1=0, select bank0
 11348  1E17  00C9               	movwf	??_clcd_write+1
 11349  1E18  309D               	movlw	157
 11350  1E19  00C8               	movwf	??_clcd_write
 11351  1E1A                     u6707:
 11352  1E1A  0BC8               	decfsz	??_clcd_write,f
 11353  1E1B  2E1A               	goto	u6707
 11354  1E1C  0BC9               	decfsz	??_clcd_write+1,f
 11355  1E1D  2E1A               	goto	u6707
 11356  1E1E  2E1F               	nop2
 11357  1E1F                     l17:
 11358  1E1F  0008               	return
 11359  1E20                     __end_of_clcd_write:
 11360                           
 11361                           	psect	text37
 11362  080C                     __ptext37:	
 11363 ;; *************** function _dec2bcd *****************
 11364 ;; Defined at:
 11365 ;;		line 1015 in file "digital_alarm_clock_def.c"
 11366 ;; Parameters:    Size  Location     Type
 11367 ;;  num             1    wreg     unsigned char 
 11368 ;; Auto vars:     Size  Location     Type
 11369 ;;  num             1   20[BANK0 ] unsigned char 
 11370 ;;  temp            1   19[BANK0 ] unsigned char 
 11371 ;;  tens            1   18[BANK0 ] unsigned char 
 11372 ;;  ones            1   17[BANK0 ] unsigned char 
 11373 ;; Return value:  Size  Location     Type
 11374 ;;                  1    wreg      unsigned char 
 11375 ;; Registers used:
 11376 ;;		wreg, status,2, status,0, pclath, cstack
 11377 ;; Tracked objects:
 11378 ;;		On entry : 0/0
 11379 ;;		On exit  : 0/0
 11380 ;;		Unchanged: 0/0
 11381 ;; Data sizes:     COMMON   BANK0   BANK1   BANK3   BANK2
 11382 ;;      Params:         0       0       0       0       0
 11383 ;;      Locals:         0       4       0       0       0
 11384 ;;      Temps:          0       3       0       0       0
 11385 ;;      Totals:         0       7       0       0       0
 11386 ;;Total ram usage:        7 bytes
 11387 ;; Hardware stack levels used: 1
 11388 ;; Hardware stack levels required when called: 2
 11389 ;; This function calls:
 11390 ;;		___awdiv
 11391 ;;		___awmod
 11392 ;; This function is called by:
 11393 ;;		_main
 11394 ;; This function uses a non-reentrant model
 11395 ;;
 11396                           
 11397                           
 11398                           ;psect for function _dec2bcd
 11399  080C                     _dec2bcd:
 11400                           
 11401                           ;incstack = 0
 11402                           ; Regs used in _dec2bcd: [wreg+status,2+status,0+pclath+cstack]
 11403                           ;dec2bcd@num stored from wreg
 11404  080C  1283               	bcf	3,5	;RP0=0, select bank0
 11405  080D  1303               	bcf	3,6	;RP1=0, select bank0
 11406  080E  00DC               	movwf	dec2bcd@num
 11407  080F                     l4930:
 11408                           
 11409                           ;digital_alarm_clock_def.c: 1018:     unsigned char tens = 0;
 11410  080F  01DA               	clrf	dec2bcd@tens
 11411                           
 11412                           ;digital_alarm_clock_def.c: 1019:     unsigned char temp = 0;
 11413  0810  01DB               	clrf	dec2bcd@temp
 11414  0811                     l4932:
 11415                           
 11416                           ;digital_alarm_clock_def.c: 1021:     ones = num % 10;
 11417  0811  300A               	movlw	10
 11418  0812  00D0               	movwf	___awmod@divisor
 11419  0813  3000               	movlw	0
 11420  0814  00D1               	movwf	___awmod@divisor+1
 11421  0815  085C               	movf	dec2bcd@num,w
 11422  0816  00D6               	movwf	??_dec2bcd
 11423  0817  01D7               	clrf	??_dec2bcd+1
 11424  0818  0856               	movf	??_dec2bcd,w
 11425  0819  00D2               	movwf	___awmod@dividend
 11426  081A  0857               	movf	??_dec2bcd+1,w
 11427  081B  00D3               	movwf	___awmod@dividend+1
 11428  081C  160A  158A  2670  120A  158A  	fcall	___awmod
 11429  0821  1283               	bcf	3,5	;RP0=0, select bank0
 11430  0822  1303               	bcf	3,6	;RP1=0, select bank0
 11431  0823  0850               	movf	?___awmod,w
 11432  0824  00D8               	movwf	??_dec2bcd+2
 11433  0825  0858               	movf	??_dec2bcd+2,w
 11434  0826  00D9               	movwf	dec2bcd@ones
 11435  0827                     l4934:
 11436                           
 11437                           ;digital_alarm_clock_def.c: 1022:     temp = num / 10;
 11438  0827  300A               	movlw	10
 11439  0828  00C8               	movwf	___awdiv@divisor
 11440  0829  3000               	movlw	0
 11441  082A  00C9               	movwf	___awdiv@divisor+1
 11442  082B  085C               	movf	dec2bcd@num,w
 11443  082C  00D6               	movwf	??_dec2bcd
 11444  082D  01D7               	clrf	??_dec2bcd+1
 11445  082E  0856               	movf	??_dec2bcd,w
 11446  082F  00CA               	movwf	___awdiv@dividend
 11447  0830  0857               	movf	??_dec2bcd+1,w
 11448  0831  00CB               	movwf	___awdiv@dividend+1
 11449  0832  160A  158A  2797  120A  158A  	fcall	___awdiv
 11450  0837  1283               	bcf	3,5	;RP0=0, select bank0
 11451  0838  1303               	bcf	3,6	;RP1=0, select bank0
 11452  0839  0848               	movf	?___awdiv,w
 11453  083A  00D8               	movwf	??_dec2bcd+2
 11454  083B  0858               	movf	??_dec2bcd+2,w
 11455  083C  00DB               	movwf	dec2bcd@temp
 11456  083D                     l4936:
 11457                           
 11458                           ;digital_alarm_clock_def.c: 1023:     tens = temp<<4;
 11459  083D  085B               	movf	dec2bcd@temp,w
 11460  083E  00D6               	movwf	??_dec2bcd
 11461  083F  3003               	movlw	3
 11462  0840                     u5055:
 11463  0840  1003               	clrc
 11464  0841  0DD6               	rlf	??_dec2bcd,f
 11465  0842  3EFF               	addlw	-1
 11466  0843  1D03               	skipz
 11467  0844  2840               	goto	u5055
 11468  0845  1003               	clrc
 11469  0846  0D56               	rlf	??_dec2bcd,w
 11470  0847  00D7               	movwf	??_dec2bcd+1
 11471  0848  0857               	movf	??_dec2bcd+1,w
 11472  0849  00DA               	movwf	dec2bcd@tens
 11473  084A                     l4938:
 11474                           
 11475                           ;digital_alarm_clock_def.c: 1025:     return (tens + ones);
 11476  084A  0859               	movf	dec2bcd@ones,w
 11477  084B  075A               	addwf	dec2bcd@tens,w
 11478  084C                     l640:
 11479  084C  0008               	return
 11480  084D                     __end_of_dec2bcd:
 11481                           
 11482                           	psect	text38
 11483  1E70                     __ptext38:	
 11484 ;; *************** function ___awmod *****************
 11485 ;; Defined at:
 11486 ;;		line 5 in file "C:\Program Files\Microchip\xc8\v2.32\pic\sources\c90\common\awmod.c"
 11487 ;; Parameters:    Size  Location     Type
 11488 ;;  divisor         2    8[BANK0 ] int 
 11489 ;;  dividend        2   10[BANK0 ] int 
 11490 ;; Auto vars:     Size  Location     Type
 11491 ;;  sign            1   13[BANK0 ] unsigned char 
 11492 ;;  counter         1   12[BANK0 ] unsigned char 
 11493 ;; Return value:  Size  Location     Type
 11494 ;;                  2    8[BANK0 ] int 
 11495 ;; Registers used:
 11496 ;;		wreg, status,2, status,0
 11497 ;; Tracked objects:
 11498 ;;		On entry : 0/0
 11499 ;;		On exit  : 0/0
 11500 ;;		Unchanged: 0/0
 11501 ;; Data sizes:     COMMON   BANK0   BANK1   BANK3   BANK2
 11502 ;;      Params:         0       4       0       0       0
 11503 ;;      Locals:         0       2       0       0       0
 11504 ;;      Temps:          1       0       0       0       0
 11505 ;;      Totals:         1       6       0       0       0
 11506 ;;Total ram usage:        7 bytes
 11507 ;; Hardware stack levels used: 1
 11508 ;; Hardware stack levels required when called: 1
 11509 ;; This function calls:
 11510 ;;		Nothing
 11511 ;; This function is called by:
 11512 ;;		_display_time
 11513 ;;		_set_time
 11514 ;;		_set_date
 11515 ;;		_set_event
 11516 ;;		_dec2bcd
 11517 ;; This function uses a non-reentrant model
 11518 ;;
 11519                           
 11520                           
 11521                           ;psect for function ___awmod
 11522  1E70                     ___awmod:
 11523  1E70                     l4698:	
 11524                           ;incstack = 0
 11525                           ; Regs used in ___awmod: [wreg+status,2+status,0]
 11526                           
 11527  1E70  1283               	bcf	3,5	;RP0=0, select bank0
 11528  1E71  1303               	bcf	3,6	;RP1=0, select bank0
 11529  1E72  01D5               	clrf	___awmod@sign
 11530  1E73                     l4700:
 11531  1E73  1FD3               	btfss	___awmod@dividend+1,7
 11532  1E74  2E76               	goto	u4711
 11533  1E75  2E77               	goto	u4710
 11534  1E76                     u4711:
 11535  1E76  2E7E               	goto	l4706
 11536  1E77                     u4710:
 11537  1E77                     l4702:
 11538  1E77  09D2               	comf	___awmod@dividend,f
 11539  1E78  09D3               	comf	___awmod@dividend+1,f
 11540  1E79  0AD2               	incf	___awmod@dividend,f
 11541  1E7A  1903               	skipnz
 11542  1E7B  0AD3               	incf	___awmod@dividend+1,f
 11543  1E7C                     l4704:
 11544  1E7C  01D5               	clrf	___awmod@sign
 11545  1E7D  0AD5               	incf	___awmod@sign,f
 11546  1E7E                     l4706:
 11547  1E7E  1FD1               	btfss	___awmod@divisor+1,7
 11548  1E7F  2E81               	goto	u4721
 11549  1E80  2E82               	goto	u4720
 11550  1E81                     u4721:
 11551  1E81  2E87               	goto	l4710
 11552  1E82                     u4720:
 11553  1E82                     l4708:
 11554  1E82  09D0               	comf	___awmod@divisor,f
 11555  1E83  09D1               	comf	___awmod@divisor+1,f
 11556  1E84  0AD0               	incf	___awmod@divisor,f
 11557  1E85  1903               	skipnz
 11558  1E86  0AD1               	incf	___awmod@divisor+1,f
 11559  1E87                     l4710:
 11560  1E87  0850               	movf	___awmod@divisor,w
 11561  1E88  0451               	iorwf	___awmod@divisor+1,w
 11562  1E89  1903               	btfsc	3,2
 11563  1E8A  2E8C               	goto	u4731
 11564  1E8B  2E8D               	goto	u4730
 11565  1E8C                     u4731:
 11566  1E8C  2EBC               	goto	l4728
 11567  1E8D                     u4730:
 11568  1E8D                     l4712:
 11569  1E8D  01D4               	clrf	___awmod@counter
 11570  1E8E  0AD4               	incf	___awmod@counter,f
 11571  1E8F  2E9B               	goto	l4718
 11572  1E90                     l4714:
 11573  1E90  3001               	movlw	1
 11574  1E91                     u4745:
 11575  1E91  1003               	clrc
 11576  1E92  0DD0               	rlf	___awmod@divisor,f
 11577  1E93  0DD1               	rlf	___awmod@divisor+1,f
 11578  1E94  3EFF               	addlw	-1
 11579  1E95  1D03               	skipz
 11580  1E96  2E91               	goto	u4745
 11581  1E97                     l4716:
 11582  1E97  3001               	movlw	1
 11583  1E98  00F5               	movwf	??___awmod
 11584  1E99  0875               	movf	??___awmod,w
 11585  1E9A  07D4               	addwf	___awmod@counter,f
 11586  1E9B                     l4718:
 11587  1E9B  1FD1               	btfss	___awmod@divisor+1,7
 11588  1E9C  2E9E               	goto	u4751
 11589  1E9D  2E9F               	goto	u4750
 11590  1E9E                     u4751:
 11591  1E9E  2E90               	goto	l4714
 11592  1E9F                     u4750:
 11593  1E9F                     l4720:
 11594  1E9F  0851               	movf	___awmod@divisor+1,w
 11595  1EA0  0253               	subwf	___awmod@dividend+1,w
 11596  1EA1  1D03               	skipz
 11597  1EA2  2EA5               	goto	u4765
 11598  1EA3  0850               	movf	___awmod@divisor,w
 11599  1EA4  0252               	subwf	___awmod@dividend,w
 11600  1EA5                     u4765:
 11601  1EA5  1C03               	skipc
 11602  1EA6  2EA8               	goto	u4761
 11603  1EA7  2EA9               	goto	u4760
 11604  1EA8                     u4761:
 11605  1EA8  2EAF               	goto	l4724
 11606  1EA9                     u4760:
 11607  1EA9                     l4722:
 11608  1EA9  0850               	movf	___awmod@divisor,w
 11609  1EAA  02D2               	subwf	___awmod@dividend,f
 11610  1EAB  0851               	movf	___awmod@divisor+1,w
 11611  1EAC  1C03               	skipc
 11612  1EAD  03D3               	decf	___awmod@dividend+1,f
 11613  1EAE  02D3               	subwf	___awmod@dividend+1,f
 11614  1EAF                     l4724:
 11615  1EAF  3001               	movlw	1
 11616  1EB0                     u4775:
 11617  1EB0  1003               	clrc
 11618  1EB1  0CD1               	rrf	___awmod@divisor+1,f
 11619  1EB2  0CD0               	rrf	___awmod@divisor,f
 11620  1EB3  3EFF               	addlw	-1
 11621  1EB4  1D03               	skipz
 11622  1EB5  2EB0               	goto	u4775
 11623  1EB6                     l4726:
 11624  1EB6  3001               	movlw	1
 11625  1EB7  02D4               	subwf	___awmod@counter,f
 11626  1EB8  1D03               	btfss	3,2
 11627  1EB9  2EBB               	goto	u4781
 11628  1EBA  2EBC               	goto	u4780
 11629  1EBB                     u4781:
 11630  1EBB  2E9F               	goto	l4720
 11631  1EBC                     u4780:
 11632  1EBC                     l4728:
 11633  1EBC  0855               	movf	___awmod@sign,w
 11634  1EBD  1903               	btfsc	3,2
 11635  1EBE  2EC0               	goto	u4791
 11636  1EBF  2EC1               	goto	u4790
 11637  1EC0                     u4791:
 11638  1EC0  2EC6               	goto	l4732
 11639  1EC1                     u4790:
 11640  1EC1                     l4730:
 11641  1EC1  09D2               	comf	___awmod@dividend,f
 11642  1EC2  09D3               	comf	___awmod@dividend+1,f
 11643  1EC3  0AD2               	incf	___awmod@dividend,f
 11644  1EC4  1903               	skipnz
 11645  1EC5  0AD3               	incf	___awmod@dividend+1,f
 11646  1EC6                     l4732:
 11647  1EC6  0853               	movf	___awmod@dividend+1,w
 11648  1EC7  00D1               	movwf	?___awmod+1
 11649  1EC8  0852               	movf	___awmod@dividend,w
 11650  1EC9  00D0               	movwf	?___awmod
 11651  1ECA                     l905:
 11652  1ECA  0008               	return
 11653  1ECB                     __end_of___awmod:
 11654                           
 11655                           	psect	text39
 11656  1F97                     __ptext39:	
 11657 ;; *************** function ___awdiv *****************
 11658 ;; Defined at:
 11659 ;;		line 5 in file "C:\Program Files\Microchip\xc8\v2.32\pic\sources\c90\common\awdiv.c"
 11660 ;; Parameters:    Size  Location     Type
 11661 ;;  divisor         2    0[BANK0 ] int 
 11662 ;;  dividend        2    2[BANK0 ] int 
 11663 ;; Auto vars:     Size  Location     Type
 11664 ;;  quotient        2    6[BANK0 ] int 
 11665 ;;  sign            1    5[BANK0 ] unsigned char 
 11666 ;;  counter         1    4[BANK0 ] unsigned char 
 11667 ;; Return value:  Size  Location     Type
 11668 ;;                  2    0[BANK0 ] int 
 11669 ;; Registers used:
 11670 ;;		wreg, status,2, status,0
 11671 ;; Tracked objects:
 11672 ;;		On entry : 0/0
 11673 ;;		On exit  : 0/0
 11674 ;;		Unchanged: 0/0
 11675 ;; Data sizes:     COMMON   BANK0   BANK1   BANK3   BANK2
 11676 ;;      Params:         0       4       0       0       0
 11677 ;;      Locals:         0       4       0       0       0
 11678 ;;      Temps:          1       0       0       0       0
 11679 ;;      Totals:         1       8       0       0       0
 11680 ;;Total ram usage:        9 bytes
 11681 ;; Hardware stack levels used: 1
 11682 ;; Hardware stack levels required when called: 1
 11683 ;; This function calls:
 11684 ;;		Nothing
 11685 ;; This function is called by:
 11686 ;;		_display_time
 11687 ;;		_set_time
 11688 ;;		_set_date
 11689 ;;		_set_event
 11690 ;;		_dec2bcd
 11691 ;; This function uses a non-reentrant model
 11692 ;;
 11693                           
 11694                           
 11695                           ;psect for function ___awdiv
 11696  1F97                     ___awdiv:
 11697  1F97                     l4654:	
 11698                           ;incstack = 0
 11699                           ; Regs used in ___awdiv: [wreg+status,2+status,0]
 11700                           
 11701  1F97  1283               	bcf	3,5	;RP0=0, select bank0
 11702  1F98  1303               	bcf	3,6	;RP1=0, select bank0
 11703  1F99  01CD               	clrf	___awdiv@sign
 11704  1F9A                     l4656:
 11705  1F9A  1FC9               	btfss	___awdiv@divisor+1,7
 11706  1F9B  2F9D               	goto	u4611
 11707  1F9C  2F9E               	goto	u4610
 11708  1F9D                     u4611:
 11709  1F9D  2FA5               	goto	l4662
 11710  1F9E                     u4610:
 11711  1F9E                     l4658:
 11712  1F9E  09C8               	comf	___awdiv@divisor,f
 11713  1F9F  09C9               	comf	___awdiv@divisor+1,f
 11714  1FA0  0AC8               	incf	___awdiv@divisor,f
 11715  1FA1  1903               	skipnz
 11716  1FA2  0AC9               	incf	___awdiv@divisor+1,f
 11717  1FA3                     l4660:
 11718  1FA3  01CD               	clrf	___awdiv@sign
 11719  1FA4  0ACD               	incf	___awdiv@sign,f
 11720  1FA5                     l4662:
 11721  1FA5  1FCB               	btfss	___awdiv@dividend+1,7
 11722  1FA6  2FA8               	goto	u4621
 11723  1FA7  2FA9               	goto	u4620
 11724  1FA8                     u4621:
 11725  1FA8  2FB2               	goto	l4668
 11726  1FA9                     u4620:
 11727  1FA9                     l4664:
 11728  1FA9  09CA               	comf	___awdiv@dividend,f
 11729  1FAA  09CB               	comf	___awdiv@dividend+1,f
 11730  1FAB  0ACA               	incf	___awdiv@dividend,f
 11731  1FAC  1903               	skipnz
 11732  1FAD  0ACB               	incf	___awdiv@dividend+1,f
 11733  1FAE                     l4666:
 11734  1FAE  3001               	movlw	1
 11735  1FAF  00F4               	movwf	??___awdiv
 11736  1FB0  0874               	movf	??___awdiv,w
 11737  1FB1  06CD               	xorwf	___awdiv@sign,f
 11738  1FB2                     l4668:
 11739  1FB2  01CE               	clrf	___awdiv@quotient
 11740  1FB3  01CF               	clrf	___awdiv@quotient+1
 11741  1FB4                     l4670:
 11742  1FB4  0848               	movf	___awdiv@divisor,w
 11743  1FB5  0449               	iorwf	___awdiv@divisor+1,w
 11744  1FB6  1903               	btfsc	3,2
 11745  1FB7  2FB9               	goto	u4631
 11746  1FB8  2FBA               	goto	u4630
 11747  1FB9                     u4631:
 11748  1FB9  2FF1               	goto	l4690
 11749  1FBA                     u4630:
 11750  1FBA                     l4672:
 11751  1FBA  01CC               	clrf	___awdiv@counter
 11752  1FBB  0ACC               	incf	___awdiv@counter,f
 11753  1FBC  2FC8               	goto	l4678
 11754  1FBD                     l4674:
 11755  1FBD  3001               	movlw	1
 11756  1FBE                     u4645:
 11757  1FBE  1003               	clrc
 11758  1FBF  0DC8               	rlf	___awdiv@divisor,f
 11759  1FC0  0DC9               	rlf	___awdiv@divisor+1,f
 11760  1FC1  3EFF               	addlw	-1
 11761  1FC2  1D03               	skipz
 11762  1FC3  2FBE               	goto	u4645
 11763  1FC4                     l4676:
 11764  1FC4  3001               	movlw	1
 11765  1FC5  00F4               	movwf	??___awdiv
 11766  1FC6  0874               	movf	??___awdiv,w
 11767  1FC7  07CC               	addwf	___awdiv@counter,f
 11768  1FC8                     l4678:
 11769  1FC8  1FC9               	btfss	___awdiv@divisor+1,7
 11770  1FC9  2FCB               	goto	u4651
 11771  1FCA  2FCC               	goto	u4650
 11772  1FCB                     u4651:
 11773  1FCB  2FBD               	goto	l4674
 11774  1FCC                     u4650:
 11775  1FCC                     l4680:
 11776  1FCC  3001               	movlw	1
 11777  1FCD                     u4665:
 11778  1FCD  1003               	clrc
 11779  1FCE  0DCE               	rlf	___awdiv@quotient,f
 11780  1FCF  0DCF               	rlf	___awdiv@quotient+1,f
 11781  1FD0  3EFF               	addlw	-1
 11782  1FD1  1D03               	skipz
 11783  1FD2  2FCD               	goto	u4665
 11784  1FD3  0849               	movf	___awdiv@divisor+1,w
 11785  1FD4  024B               	subwf	___awdiv@dividend+1,w
 11786  1FD5  1D03               	skipz
 11787  1FD6  2FD9               	goto	u4675
 11788  1FD7  0848               	movf	___awdiv@divisor,w
 11789  1FD8  024A               	subwf	___awdiv@dividend,w
 11790  1FD9                     u4675:
 11791  1FD9  1C03               	skipc
 11792  1FDA  2FDC               	goto	u4671
 11793  1FDB  2FDD               	goto	u4670
 11794  1FDC                     u4671:
 11795  1FDC  2FE4               	goto	l4686
 11796  1FDD                     u4670:
 11797  1FDD                     l4682:
 11798  1FDD  0848               	movf	___awdiv@divisor,w
 11799  1FDE  02CA               	subwf	___awdiv@dividend,f
 11800  1FDF  0849               	movf	___awdiv@divisor+1,w
 11801  1FE0  1C03               	skipc
 11802  1FE1  03CB               	decf	___awdiv@dividend+1,f
 11803  1FE2  02CB               	subwf	___awdiv@dividend+1,f
 11804  1FE3                     l4684:
 11805  1FE3  144E               	bsf	___awdiv@quotient,0
 11806  1FE4                     l4686:
 11807  1FE4  3001               	movlw	1
 11808  1FE5                     u4685:
 11809  1FE5  1003               	clrc
 11810  1FE6  0CC9               	rrf	___awdiv@divisor+1,f
 11811  1FE7  0CC8               	rrf	___awdiv@divisor,f
 11812  1FE8  3EFF               	addlw	-1
 11813  1FE9  1D03               	skipz
 11814  1FEA  2FE5               	goto	u4685
 11815  1FEB                     l4688:
 11816  1FEB  3001               	movlw	1
 11817  1FEC  02CC               	subwf	___awdiv@counter,f
 11818  1FED  1D03               	btfss	3,2
 11819  1FEE  2FF0               	goto	u4691
 11820  1FEF  2FF1               	goto	u4690
 11821  1FF0                     u4691:
 11822  1FF0  2FCC               	goto	l4680
 11823  1FF1                     u4690:
 11824  1FF1                     l4690:
 11825  1FF1  084D               	movf	___awdiv@sign,w
 11826  1FF2  1903               	btfsc	3,2
 11827  1FF3  2FF5               	goto	u4701
 11828  1FF4  2FF6               	goto	u4700
 11829  1FF5                     u4701:
 11830  1FF5  2FFB               	goto	l4694
 11831  1FF6                     u4700:
 11832  1FF6                     l4692:
 11833  1FF6  09CE               	comf	___awdiv@quotient,f
 11834  1FF7  09CF               	comf	___awdiv@quotient+1,f
 11835  1FF8  0ACE               	incf	___awdiv@quotient,f
 11836  1FF9  1903               	skipnz
 11837  1FFA  0ACF               	incf	___awdiv@quotient+1,f
 11838  1FFB                     l4694:
 11839  1FFB  084F               	movf	___awdiv@quotient+1,w
 11840  1FFC  00C9               	movwf	?___awdiv+1
 11841  1FFD  084E               	movf	___awdiv@quotient,w
 11842  1FFE  00C8               	movwf	?___awdiv
 11843  1FFF                     l892:
 11844  1FFF  0008               	return
 11845  2000                     __end_of___awdiv:
 11846                           
 11847                           	psect	text40
 11848  1B9E                     __ptext40:	
 11849 ;; *************** function _alarm_event *****************
 11850 ;; Defined at:
 11851 ;;		line 914 in file "digital_alarm_clock_def.c"
 11852 ;; Parameters:    Size  Location     Type
 11853 ;;		None
 11854 ;; Auto vars:     Size  Location     Type
 11855 ;;		None
 11856 ;; Return value:  Size  Location     Type
 11857 ;;                  1    wreg      void 
 11858 ;; Registers used:
 11859 ;;		wreg, fsr0l, fsr0h, status,2, status,0, pclath, cstack
 11860 ;; Tracked objects:
 11861 ;;		On entry : 0/0
 11862 ;;		On exit  : 0/0
 11863 ;;		Unchanged: 0/0
 11864 ;; Data sizes:     COMMON   BANK0   BANK1   BANK3   BANK2
 11865 ;;      Params:         0       0       0       0       0
 11866 ;;      Locals:         0       0       0       0       0
 11867 ;;      Temps:          0       1       0       0       0
 11868 ;;      Totals:         0       1       0       0       0
 11869 ;;Total ram usage:        1 bytes
 11870 ;; Hardware stack levels used: 1
 11871 ;; Hardware stack levels required when called: 5
 11872 ;; This function calls:
 11873 ;;		_byte_write_EEPROM
 11874 ;;		_str_write_EEPROM
 11875 ;; This function is called by:
 11876 ;;		_main
 11877 ;; This function uses a non-reentrant model
 11878 ;;
 11879                           
 11880                           
 11881                           ;psect for function _alarm_event
 11882  1B9E                     _alarm_event:
 11883  1B9E                     l4942:	
 11884                           ;incstack = 0
 11885                           ; Regs used in _alarm_event: [wreg-fsr0h+status,2+status,0+pclath+cstack]
 11886                           
 11887                           
 11888                           ;digital_alarm_clock_def.c: 916:     byte_write_EEPROM(0x00, '1');
 11889  1B9E  3031               	movlw	49
 11890  1B9F  1283               	bcf	3,5	;RP0=0, select bank0
 11891  1BA0  1303               	bcf	3,6	;RP1=0, select bank0
 11892  1BA1  00CC               	movwf	??_alarm_event
 11893  1BA2  084C               	movf	??_alarm_event,w
 11894  1BA3  00F5               	movwf	byte_write_EEPROM@data
 11895  1BA4  3000               	movlw	0
 11896  1BA5  160A  158A  23D2  160A  158A  	fcall	_byte_write_EEPROM
 11897  1BAA                     l4944:
 11898                           
 11899                           ;digital_alarm_clock_def.c: 917:     str_write_EEPROM(0x01, new_event);
 11900  1BAA  30CD               	movlw	(low (_new_event| 0))& (0+255)
 11901  1BAB  1283               	bcf	3,5	;RP0=0, select bank0
 11902  1BAC  1303               	bcf	3,6	;RP1=0, select bank0
 11903  1BAD  00CC               	movwf	??_alarm_event
 11904  1BAE  084C               	movf	??_alarm_event,w
 11905  1BAF  00C9               	movwf	str_write_EEPROM@data
 11906  1BB0  3001               	movlw	1
 11907  1BB1  160A  158A  2416  160A  158A  	fcall	_str_write_EEPROM
 11908  1BB6                     l610:
 11909  1BB6  0008               	return
 11910  1BB7                     __end_of_alarm_event:
 11911                           
 11912                           	psect	text41
 11913  1C16                     __ptext41:	
 11914 ;; *************** function _str_write_EEPROM *****************
 11915 ;; Defined at:
 11916 ;;		line 60 in file "EEPROM.c"
 11917 ;; Parameters:    Size  Location     Type
 11918 ;;  addr            1    wreg     unsigned char 
 11919 ;;  data            1    1[BANK0 ] PTR unsigned char 
 11920 ;;		 -> new_event(10), 
 11921 ;; Auto vars:     Size  Location     Type
 11922 ;;  addr            1    3[BANK0 ] unsigned char 
 11923 ;; Return value:  Size  Location     Type
 11924 ;;                  1    wreg      void 
 11925 ;; Registers used:
 11926 ;;		wreg, fsr0l, fsr0h, status,2, status,0, pclath, cstack
 11927 ;; Tracked objects:
 11928 ;;		On entry : 0/0
 11929 ;;		On exit  : 0/0
 11930 ;;		Unchanged: 0/0
 11931 ;; Data sizes:     COMMON   BANK0   BANK1   BANK3   BANK2
 11932 ;;      Params:         0       1       0       0       0
 11933 ;;      Locals:         0       1       0       0       0
 11934 ;;      Temps:          0       1       0       0       0
 11935 ;;      Totals:         0       3       0       0       0
 11936 ;;Total ram usage:        3 bytes
 11937 ;; Hardware stack levels used: 1
 11938 ;; Hardware stack levels required when called: 4
 11939 ;; This function calls:
 11940 ;;		_byte_write_EEPROM
 11941 ;; This function is called by:
 11942 ;;		_alarm_event
 11943 ;; This function uses a non-reentrant model
 11944 ;;
 11945                           
 11946                           
 11947                           ;psect for function _str_write_EEPROM
 11948  1C16                     _str_write_EEPROM:
 11949                           
 11950                           ;incstack = 0
 11951                           ; Regs used in _str_write_EEPROM: [wreg-fsr0h+status,2+status,0+pclath+cstack]
 11952                           ;str_write_EEPROM@addr stored from wreg
 11953  1C16  1283               	bcf	3,5	;RP0=0, select bank0
 11954  1C17  1303               	bcf	3,6	;RP1=0, select bank0
 11955  1C18  00CB               	movwf	str_write_EEPROM@addr
 11956  1C19                     l4762:
 11957                           
 11958                           ;EEPROM.c: 60: void str_write_EEPROM(unsigned char addr, char *data);EEPROM.c: 61: {;EEP
      +                          ROM.c: 62:     while(*data != 0)
 11959  1C19  2C30               	goto	l4770
 11960  1C1A                     l4764:
 11961                           
 11962                           ;EEPROM.c: 63:     {;EEPROM.c: 64:         byte_write_EEPROM(addr, *data);
 11963  1C1A  0849               	movf	str_write_EEPROM@data,w
 11964  1C1B  0084               	movwf	4
 11965  1C1C  0800               	movf	0,w
 11966  1C1D  00CA               	movwf	??_str_write_EEPROM
 11967  1C1E  084A               	movf	??_str_write_EEPROM,w
 11968  1C1F  00F5               	movwf	byte_write_EEPROM@data
 11969  1C20  084B               	movf	str_write_EEPROM@addr,w
 11970  1C21  160A  158A  23D2  160A  158A  	fcall	_byte_write_EEPROM
 11971  1C26                     l4766:
 11972                           
 11973                           ;EEPROM.c: 65:         data++;
 11974  1C26  3001               	movlw	1
 11975  1C27  1283               	bcf	3,5	;RP0=0, select bank0
 11976  1C28  1303               	bcf	3,6	;RP1=0, select bank0
 11977  1C29  00CA               	movwf	??_str_write_EEPROM
 11978  1C2A  084A               	movf	??_str_write_EEPROM,w
 11979  1C2B  07C9               	addwf	str_write_EEPROM@data,f
 11980  1C2C                     l4768:
 11981                           
 11982                           ;EEPROM.c: 66:         addr++;
 11983  1C2C  3001               	movlw	1
 11984  1C2D  00CA               	movwf	??_str_write_EEPROM
 11985  1C2E  084A               	movf	??_str_write_EEPROM,w
 11986  1C2F  07CB               	addwf	str_write_EEPROM@addr,f
 11987  1C30                     l4770:
 11988                           
 11989                           ;EEPROM.c: 62:     while(*data != 0)
 11990  1C30  0849               	movf	str_write_EEPROM@data,w
 11991  1C31  0084               	movwf	4
 11992  1C32  1383               	bcf	3,7	;select IRP bank0
 11993  1C33  0800               	movf	0,w
 11994  1C34  1D03               	btfss	3,2
 11995  1C35  2C37               	goto	u4811
 11996  1C36  2C38               	goto	u4810
 11997  1C37                     u4811:
 11998  1C37  2C1A               	goto	l4764
 11999  1C38                     u4810:
 12000  1C38                     l94:
 12001  1C38  0008               	return
 12002  1C39                     __end_of_str_write_EEPROM:
 12003                           
 12004                           	psect	text42
 12005  1BD2                     __ptext42:	
 12006 ;; *************** function _byte_write_EEPROM *****************
 12007 ;; Defined at:
 12008 ;;		line 46 in file "EEPROM.c"
 12009 ;; Parameters:    Size  Location     Type
 12010 ;;  addr            1    wreg     unsigned char 
 12011 ;;  data            1    5[COMMON] unsigned char 
 12012 ;; Auto vars:     Size  Location     Type
 12013 ;;  addr            1    0[BANK0 ] unsigned char 
 12014 ;; Return value:  Size  Location     Type
 12015 ;;                  1    wreg      void 
 12016 ;; Registers used:
 12017 ;;		wreg, status,2, status,0, pclath, cstack
 12018 ;; Tracked objects:
 12019 ;;		On entry : 0/0
 12020 ;;		On exit  : 0/0
 12021 ;;		Unchanged: 0/0
 12022 ;; Data sizes:     COMMON   BANK0   BANK1   BANK3   BANK2
 12023 ;;      Params:         1       0       0       0       0
 12024 ;;      Locals:         0       1       0       0       0
 12025 ;;      Temps:          0       0       0       0       0
 12026 ;;      Totals:         1       1       0       0       0
 12027 ;;Total ram usage:        2 bytes
 12028 ;; Hardware stack levels used: 1
 12029 ;; Hardware stack levels required when called: 3
 12030 ;; This function calls:
 12031 ;;		_i2c_start
 12032 ;;		_i2c_stop
 12033 ;;		_i2c_write
 12034 ;; This function is called by:
 12035 ;;		_str_write_EEPROM
 12036 ;;		_alarm_event
 12037 ;;		_ring_alarm
 12038 ;; This function uses a non-reentrant model
 12039 ;;
 12040                           
 12041                           
 12042                           ;psect for function _byte_write_EEPROM
 12043  1BD2                     _byte_write_EEPROM:
 12044                           
 12045                           ;incstack = 0
 12046                           ; Regs used in _byte_write_EEPROM: [wreg+status,2+status,0+pclath+cstack]
 12047                           ;byte_write_EEPROM@addr stored from wreg
 12048  1BD2  1283               	bcf	3,5	;RP0=0, select bank0
 12049  1BD3  1303               	bcf	3,6	;RP1=0, select bank0
 12050  1BD4  00C8               	movwf	byte_write_EEPROM@addr
 12051  1BD5                     l4586:
 12052                           
 12053                           ;EEPROM.c: 46: void byte_write_EEPROM(unsigned char addr, unsigned char data);EEPROM.c: 
      +                          47: {;EEPROM.c: 49:     i2c_start();
 12054  1BD5  160A  158A  233A  160A  158A  	fcall	_i2c_start
 12055                           
 12056                           ;EEPROM.c: 51:     i2c_write(0b10100000);
 12057  1BDA  30A0               	movlw	160
 12058  1BDB  160A  158A  2356  160A  158A  	fcall	_i2c_write
 12059                           
 12060                           ;EEPROM.c: 53:     i2c_write(addr);
 12061  1BE0  1283               	bcf	3,5	;RP0=0, select bank0
 12062  1BE1  1303               	bcf	3,6	;RP1=0, select bank0
 12063  1BE2  0848               	movf	byte_write_EEPROM@addr,w
 12064  1BE3  160A  158A  2356  160A  158A  	fcall	_i2c_write
 12065                           
 12066                           ;EEPROM.c: 55:     i2c_write(data);
 12067  1BE8  0875               	movf	byte_write_EEPROM@data,w
 12068  1BE9  160A  158A  2356  160A  158A  	fcall	_i2c_write
 12069                           
 12070                           ;EEPROM.c: 57:     i2c_stop();
 12071  1BEE  160A  158A  2343  160A  158A  	fcall	_i2c_stop
 12072  1BF3                     l88:
 12073  1BF3  0008               	return
 12074  1BF4                     __end_of_byte_write_EEPROM:
 12075                           
 12076                           	psect	text43
 12077  1B56                     __ptext43:	
 12078 ;; *************** function _i2c_write *****************
 12079 ;; Defined at:
 12080 ;;		line 65 in file "i2c.c"
 12081 ;; Parameters:    Size  Location     Type
 12082 ;;  data            1    wreg     unsigned char 
 12083 ;; Auto vars:     Size  Location     Type
 12084 ;;  data            1    4[COMMON] unsigned char 
 12085 ;; Return value:  Size  Location     Type
 12086 ;;                  2   57[None  ] int 
 12087 ;; Registers used:
 12088 ;;		wreg, status,2, status,0, pclath, cstack
 12089 ;; Tracked objects:
 12090 ;;		On entry : 0/0
 12091 ;;		On exit  : 0/0
 12092 ;;		Unchanged: 0/0
 12093 ;; Data sizes:     COMMON   BANK0   BANK1   BANK3   BANK2
 12094 ;;      Params:         0       0       0       0       0
 12095 ;;      Locals:         1       0       0       0       0
 12096 ;;      Temps:          0       0       0       0       0
 12097 ;;      Totals:         1       0       0       0       0
 12098 ;;Total ram usage:        1 bytes
 12099 ;; Hardware stack levels used: 1
 12100 ;; Hardware stack levels required when called: 2
 12101 ;; This function calls:
 12102 ;;		_i2c_wait_for_idle
 12103 ;; This function is called by:
 12104 ;;		_read_ds1307
 12105 ;;		_write_ds1307
 12106 ;;		_read_EEPROM
 12107 ;;		_byte_write_EEPROM
 12108 ;; This function uses a non-reentrant model
 12109 ;;
 12110                           
 12111                           
 12112                           ;psect for function _i2c_write
 12113  1B56                     _i2c_write:
 12114                           
 12115                           ;incstack = 0
 12116                           ; Regs used in _i2c_write: [wreg+status,2+status,0+pclath+cstack]
 12117                           ;i2c_write@data stored from wreg
 12118  1B56  00F4               	movwf	i2c_write@data
 12119  1B57                     l4504:
 12120                           
 12121                           ;i2c.c: 65: int i2c_write(unsigned char data);i2c.c: 66: {;i2c.c: 67:     i2c_wait_for_i
      +                          dle();
 12122  1B57  160A  158A  236C  160A  158A  	fcall	_i2c_wait_for_idle
 12123  1B5C                     l4506:
 12124                           
 12125                           ;i2c.c: 68:     SSPBUF = data;
 12126  1B5C  0874               	movf	i2c_write@data,w
 12127  1B5D  1283               	bcf	3,5	;RP0=0, select bank0
 12128  1B5E  1303               	bcf	3,6	;RP1=0, select bank0
 12129  1B5F  0093               	movwf	19	;volatile
 12130  1B60                     l4508:
 12131  1B60                     l146:	
 12132                           ;i2c.c: 70:     return !ACKSTAT;;	Return value of _i2c_write is never used
 12133                           
 12134  1B60  0008               	return
 12135  1B61                     __end_of_i2c_write:
 12136                           
 12137                           	psect	text44
 12138  1B43                     __ptext44:	
 12139 ;; *************** function _i2c_stop *****************
 12140 ;; Defined at:
 12141 ;;		line 35 in file "i2c.c"
 12142 ;; Parameters:    Size  Location     Type
 12143 ;;		None
 12144 ;; Auto vars:     Size  Location     Type
 12145 ;;		None
 12146 ;; Return value:  Size  Location     Type
 12147 ;;                  1    wreg      void 
 12148 ;; Registers used:
 12149 ;;		wreg, status,2, status,0, pclath, cstack
 12150 ;; Tracked objects:
 12151 ;;		On entry : 0/0
 12152 ;;		On exit  : 0/0
 12153 ;;		Unchanged: 0/0
 12154 ;; Data sizes:     COMMON   BANK0   BANK1   BANK3   BANK2
 12155 ;;      Params:         0       0       0       0       0
 12156 ;;      Locals:         0       0       0       0       0
 12157 ;;      Temps:          0       0       0       0       0
 12158 ;;      Totals:         0       0       0       0       0
 12159 ;;Total ram usage:        0 bytes
 12160 ;; Hardware stack levels used: 1
 12161 ;; Hardware stack levels required when called: 2
 12162 ;; This function calls:
 12163 ;;		_i2c_wait_for_idle
 12164 ;; This function is called by:
 12165 ;;		_read_ds1307
 12166 ;;		_write_ds1307
 12167 ;;		_read_EEPROM
 12168 ;;		_byte_write_EEPROM
 12169 ;;		_i2c_rep_start
 12170 ;; This function uses a non-reentrant model
 12171 ;;
 12172                           
 12173                           
 12174                           ;psect for function _i2c_stop
 12175  1B43                     _i2c_stop:
 12176  1B43                     l4500:	
 12177                           ;incstack = 0
 12178                           ; Regs used in _i2c_stop: [wreg+status,2+status,0+pclath+cstack]
 12179                           
 12180                           
 12181                           ;i2c.c: 37:     i2c_wait_for_idle();
 12182  1B43  160A  158A  236C  160A  158A  	fcall	_i2c_wait_for_idle
 12183  1B48                     l4502:
 12184                           
 12185                           ;i2c.c: 38:     PEN = 1;
 12186  1B48  1683               	bsf	3,5	;RP0=1, select bank1
 12187  1B49  1303               	bcf	3,6	;RP1=0, select bank1
 12188  1B4A  1511               	bsf	17,2	;volatile
 12189  1B4B                     l138:
 12190  1B4B  0008               	return
 12191  1B4C                     __end_of_i2c_stop:
 12192                           
 12193                           	psect	text45
 12194  1B3A                     __ptext45:	
 12195 ;; *************** function _i2c_start *****************
 12196 ;; Defined at:
 12197 ;;		line 22 in file "i2c.c"
 12198 ;; Parameters:    Size  Location     Type
 12199 ;;		None
 12200 ;; Auto vars:     Size  Location     Type
 12201 ;;		None
 12202 ;; Return value:  Size  Location     Type
 12203 ;;                  1    wreg      void 
 12204 ;; Registers used:
 12205 ;;		wreg, status,2, status,0, pclath, cstack
 12206 ;; Tracked objects:
 12207 ;;		On entry : 0/0
 12208 ;;		On exit  : 0/0
 12209 ;;		Unchanged: 0/0
 12210 ;; Data sizes:     COMMON   BANK0   BANK1   BANK3   BANK2
 12211 ;;      Params:         0       0       0       0       0
 12212 ;;      Locals:         0       0       0       0       0
 12213 ;;      Temps:          0       0       0       0       0
 12214 ;;      Totals:         0       0       0       0       0
 12215 ;;Total ram usage:        0 bytes
 12216 ;; Hardware stack levels used: 1
 12217 ;; Hardware stack levels required when called: 2
 12218 ;; This function calls:
 12219 ;;		_i2c_wait_for_idle
 12220 ;; This function is called by:
 12221 ;;		_read_ds1307
 12222 ;;		_write_ds1307
 12223 ;;		_read_EEPROM
 12224 ;;		_byte_write_EEPROM
 12225 ;;		_i2c_rep_start
 12226 ;; This function uses a non-reentrant model
 12227 ;;
 12228                           
 12229                           
 12230                           ;psect for function _i2c_start
 12231  1B3A                     _i2c_start:
 12232  1B3A                     l4496:	
 12233                           ;incstack = 0
 12234                           ; Regs used in _i2c_start: [wreg+status,2+status,0+pclath+cstack]
 12235                           
 12236                           
 12237                           ;i2c.c: 24:     i2c_wait_for_idle();
 12238  1B3A  160A  158A  236C  160A  158A  	fcall	_i2c_wait_for_idle
 12239  1B3F                     l4498:
 12240                           
 12241                           ;i2c.c: 25:     SEN = 1;
 12242  1B3F  1683               	bsf	3,5	;RP0=1, select bank1
 12243  1B40  1303               	bcf	3,6	;RP1=0, select bank1
 12244  1B41  1411               	bsf	17,0	;volatile
 12245  1B42                     l132:
 12246  1B42  0008               	return
 12247  1B43                     __end_of_i2c_start:
 12248                           
 12249                           	psect	text46
 12250  1B6C                     __ptext46:	
 12251 ;; *************** function _i2c_wait_for_idle *****************
 12252 ;; Defined at:
 12253 ;;		line 16 in file "i2c.c"
 12254 ;; Parameters:    Size  Location     Type
 12255 ;;		None
 12256 ;; Auto vars:     Size  Location     Type
 12257 ;;		None
 12258 ;; Return value:  Size  Location     Type
 12259 ;;                  1    wreg      void 
 12260 ;; Registers used:
 12261 ;;		wreg, status,2
 12262 ;; Tracked objects:
 12263 ;;		On entry : 0/0
 12264 ;;		On exit  : 0/0
 12265 ;;		Unchanged: 0/0
 12266 ;; Data sizes:     COMMON   BANK0   BANK1   BANK3   BANK2
 12267 ;;      Params:         0       0       0       0       0
 12268 ;;      Locals:         0       0       0       0       0
 12269 ;;      Temps:          0       0       0       0       0
 12270 ;;      Totals:         0       0       0       0       0
 12271 ;;Total ram usage:        0 bytes
 12272 ;; Hardware stack levels used: 1
 12273 ;; Hardware stack levels required when called: 1
 12274 ;; This function calls:
 12275 ;;		Nothing
 12276 ;; This function is called by:
 12277 ;;		_i2c_start
 12278 ;;		_i2c_stop
 12279 ;;		_i2c_read
 12280 ;;		_i2c_write
 12281 ;; This function uses a non-reentrant model
 12282 ;;
 12283                           
 12284                           
 12285                           ;psect for function _i2c_wait_for_idle
 12286  1B6C                     _i2c_wait_for_idle:
 12287  1B6C                     l4492:	
 12288                           ;incstack = 0
 12289                           ; Regs used in _i2c_wait_for_idle: [wreg+status,2]
 12290                           
 12291  1B6C                     l126:	
 12292                           ;i2c.c: 19:     while (R_nW || (SSPCON2 & 0x1F));
 12293                           
 12294  1B6C  1683               	bsf	3,5	;RP0=1, select bank1
 12295  1B6D  1303               	bcf	3,6	;RP1=0, select bank1
 12296  1B6E  1914               	btfsc	20,2	;volatile
 12297  1B6F  2B71               	goto	u4431
 12298  1B70  2B72               	goto	u4430
 12299  1B71                     u4431:
 12300  1B71  2B6C               	goto	l126
 12301  1B72                     u4430:
 12302  1B72                     l4494:
 12303  1B72  0811               	movf	17,w	;volatile
 12304  1B73  391F               	andlw	31
 12305  1B74  1D03               	btfss	3,2
 12306  1B75  2B77               	goto	u4441
 12307  1B76  2B78               	goto	u4440
 12308  1B77                     u4441:
 12309  1B77  2B6C               	goto	l126
 12310  1B78                     u4440:
 12311  1B78                     l129:
 12312  1B78  0008               	return
 12313  1B79                     __end_of_i2c_wait_for_idle:
 12314                           
 12315                           	psect	text47
 12316  1ECB                     __ptext47:	
 12317 ;; *************** function _isr *****************
 12318 ;; Defined at:
 12319 ;;		line 7 in file "isr.c"
 12320 ;; Parameters:    Size  Location     Type
 12321 ;;		None
 12322 ;; Auto vars:     Size  Location     Type
 12323 ;;		None
 12324 ;; Return value:  Size  Location     Type
 12325 ;;                  1    wreg      void 
 12326 ;; Registers used:
 12327 ;;		wreg, status,2, status,0, btemp+1
 12328 ;; Tracked objects:
 12329 ;;		On entry : 0/0
 12330 ;;		On exit  : 0/0
 12331 ;;		Unchanged: 0/0
 12332 ;; Data sizes:     COMMON   BANK0   BANK1   BANK3   BANK2
 12333 ;;      Params:         0       0       0       0       0
 12334 ;;      Locals:         0       0       0       0       0
 12335 ;;      Temps:          4       0       0       0       0
 12336 ;;      Totals:         4       0       0       0       0
 12337 ;;Total ram usage:        4 bytes
 12338 ;; Hardware stack levels used: 1
 12339 ;; This function calls:
 12340 ;;		Nothing
 12341 ;; This function is called by:
 12342 ;;		Interrupt level 1
 12343 ;; This function uses a non-reentrant model
 12344 ;;
 12345                           
 12346                           
 12347                           ;psect for function _isr
 12348  1ECB                     _isr:
 12349  1ECB                     i1l4076:
 12350                           
 12351                           ;isr.c: 9:     static unsigned int count = 0;;isr.c: 11:     if (TMR2IF == 1)
 12352  1ECB  1C8C               	btfss	12,1	;volatile
 12353  1ECC  2ECE               	goto	u397_21
 12354  1ECD  2ECF               	goto	u397_20
 12355  1ECE                     u397_21:
 12356  1ECE  2F26               	goto	i1l171
 12357  1ECF                     u397_20:
 12358  1ECF                     i1l4078:
 12359                           
 12360                           ;isr.c: 12:     {;isr.c: 13:         if (++count == 1250)
 12361  1ECF  3001               	movlw	1
 12362  1ED0  1683               	bsf	3,5	;RP0=1, select bank1
 12363  1ED1  1303               	bcf	3,6	;RP1=0, select bank1
 12364  1ED2  07BD               	addwf	isr@count^(0+128),f
 12365  1ED3  1803               	skipnc
 12366  1ED4  0ABE               	incf	(isr@count+1)^(0+128),f
 12367  1ED5  3000               	movlw	0
 12368  1ED6  07BE               	addwf	(isr@count+1)^(0+128),f
 12369  1ED7  30E2               	movlw	226
 12370  1ED8  063D               	xorwf	isr@count^(0+128),w
 12371  1ED9  3004               	movlw	4
 12372  1EDA  1903               	skipnz
 12373  1EDB  063E               	xorwf	(isr@count+1)^(0+128),w
 12374  1EDC  1D03               	btfss	3,2
 12375  1EDD  2EDF               	goto	u398_21
 12376  1EDE  2EE0               	goto	u398_20
 12377  1EDF                     u398_21:
 12378  1EDF  2F23               	goto	i1l4102
 12379  1EE0                     u398_20:
 12380  1EE0                     i1l4080:
 12381                           
 12382                           ;isr.c: 14:         {;isr.c: 15:             count = 0;
 12383  1EE0  01BD               	clrf	isr@count^(0+128)
 12384  1EE1  01BE               	clrf	(isr@count+1)^(0+128)
 12385  1EE2                     i1l4082:
 12386                           
 12387                           ;isr.c: 16:             if(sec > 0)
 12388  1EE2  1283               	bcf	3,5	;RP0=0, select bank0
 12389  1EE3  1303               	bcf	3,6	;RP1=0, select bank0
 12390  1EE4  083E               	movf	_sec,w
 12391  1EE5  1903               	btfsc	3,2
 12392  1EE6  2EE8               	goto	u399_21
 12393  1EE7  2EE9               	goto	u399_20
 12394  1EE8                     u399_21:
 12395  1EE8  2EEB               	goto	i1l165
 12396  1EE9                     u399_20:
 12397  1EE9                     i1l4084:
 12398                           
 12399                           ;isr.c: 17:                 sec--;
 12400  1EE9  3001               	movlw	1
 12401  1EEA  02BE               	subwf	_sec,f
 12402  1EEB                     i1l165:
 12403                           
 12404                           ;isr.c: 18:             if(dur_sec > 0)
 12405  1EEB  083D               	movf	_dur_sec,w
 12406  1EEC  1903               	btfsc	3,2
 12407  1EED  2EEF               	goto	u400_21
 12408  1EEE  2EF0               	goto	u400_20
 12409  1EEF                     u400_21:
 12410  1EEF  2EF2               	goto	i1l166
 12411  1EF0                     u400_20:
 12412  1EF0                     i1l4086:
 12413                           
 12414                           ;isr.c: 19:                 dur_sec--;
 12415  1EF0  3001               	movlw	1
 12416  1EF1  02BD               	subwf	_dur_sec,f
 12417  1EF2                     i1l166:
 12418                           
 12419                           ;isr.c: 20:             if(sec == 0 && return_time > 0)
 12420  1EF2  083E               	movf	_sec,w
 12421  1EF3  1D03               	btfss	3,2
 12422  1EF4  2EF6               	goto	u401_21
 12423  1EF5  2EF7               	goto	u401_20
 12424  1EF6                     u401_21:
 12425  1EF6  2F0A               	goto	i1l4092
 12426  1EF7                     u401_20:
 12427  1EF7                     i1l4088:
 12428  1EF7  0877               	movf	_return_time+1,w
 12429  1EF8  3A80               	xorlw	128
 12430  1EF9  00FF               	movwf	btemp+1
 12431  1EFA  3080               	movlw	128
 12432  1EFB  027F               	subwf	btemp+1,w
 12433  1EFC  1D03               	skipz
 12434  1EFD  2F00               	goto	u402_25
 12435  1EFE  3001               	movlw	1
 12436  1EFF  0276               	subwf	_return_time,w
 12437  1F00                     u402_25:
 12438  1F00  1C03               	skipc
 12439  1F01  2F03               	goto	u402_21
 12440  1F02  2F04               	goto	u402_20
 12441  1F03                     u402_21:
 12442  1F03  2F0A               	goto	i1l4092
 12443  1F04                     u402_20:
 12444  1F04                     i1l4090:
 12445                           
 12446                           ;isr.c: 21:                 return_time--;
 12447  1F04  30FF               	movlw	255
 12448  1F05  07F6               	addwf	_return_time,f
 12449  1F06  1803               	skipnc
 12450  1F07  0AF7               	incf	_return_time+1,f
 12451  1F08  30FF               	movlw	255
 12452  1F09  07F7               	addwf	_return_time+1,f
 12453  1F0A                     i1l4092:
 12454                           
 12455                           ;isr.c: 22:             if(min > 0 && dur_sec == 0)
 12456  1F0A  0879               	movf	_min,w
 12457  1F0B  1903               	btfsc	3,2
 12458  1F0C  2F0E               	goto	u403_21
 12459  1F0D  2F0F               	goto	u403_20
 12460  1F0E                     u403_21:
 12461  1F0E  2F23               	goto	i1l4102
 12462  1F0F                     u403_20:
 12463  1F0F                     i1l4094:
 12464  1F0F  1283               	bcf	3,5	;RP0=0, select bank0
 12465  1F10  1303               	bcf	3,6	;RP1=0, select bank0
 12466  1F11  083D               	movf	_dur_sec,w
 12467  1F12  1D03               	btfss	3,2
 12468  1F13  2F15               	goto	u404_21
 12469  1F14  2F16               	goto	u404_20
 12470  1F15                     u404_21:
 12471  1F15  2F23               	goto	i1l4102
 12472  1F16                     u404_20:
 12473  1F16                     i1l4096:
 12474                           
 12475                           ;isr.c: 23:             {;isr.c: 24:                 min--;
 12476  1F16  3001               	movlw	1
 12477  1F17  02F9               	subwf	_min,f
 12478                           
 12479                           ;isr.c: 25:                 if(min > 0)
 12480  1F18  0879               	movf	_min,w
 12481  1F19  1903               	btfsc	3,2
 12482  1F1A  2F1C               	goto	u405_21
 12483  1F1B  2F1D               	goto	u405_20
 12484  1F1C                     u405_21:
 12485  1F1C  2F22               	goto	i1l4100
 12486  1F1D                     u405_20:
 12487  1F1D                     i1l4098:
 12488                           
 12489                           ;isr.c: 26:                     dur_sec = 60;
 12490  1F1D  303C               	movlw	60
 12491  1F1E  00F0               	movwf	??_isr
 12492  1F1F  0870               	movf	??_isr,w
 12493  1F20  00BD               	movwf	_dur_sec
 12494  1F21  2F23               	goto	i1l4102
 12495  1F22                     i1l4100:
 12496                           
 12497                           ;isr.c: 28:                     dur_sec = 0;
 12498  1F22  01BD               	clrf	_dur_sec
 12499  1F23                     i1l4102:
 12500                           
 12501                           ;isr.c: 32:         TMR2IF = 0;
 12502  1F23  1283               	bcf	3,5	;RP0=0, select bank0
 12503  1F24  1303               	bcf	3,6	;RP1=0, select bank0
 12504  1F25  108C               	bcf	12,1	;volatile
 12505  1F26                     i1l171:
 12506  1F26  0873               	movf	??_isr+3,w
 12507  1F27  00FF               	movwf	btemp+1
 12508  1F28  0872               	movf	??_isr+2,w
 12509  1F29  008A               	movwf	10
 12510  1F2A  0E71               	swapf	??_isr+1,w
 12511  1F2B  0083               	movwf	3
 12512  1F2C  0EFE               	swapf	btemp,f
 12513  1F2D  0E7E               	swapf	btemp,w
 12514  1F2E  0009               	retfie
 12515  1F2F                     __end_of_isr:
 12516  007E                     btemp	set	126	;btemp
 12517  007E                     wtemp0	set	126
 12518                           
 12519                           	psect	intentry
 12520  0004                     __pintentry:	
 12521                           ;incstack = 0
 12522                           ; Regs used in _isr: [wreg+status,2+status,0+btemp+1]
 12523                           
 12524  0004                     interrupt_function:
 12525  007E                     saved_w	set	btemp
 12526  0004  00FE               	movwf	btemp
 12527  0005  0E03               	swapf	3,w
 12528  0006  00F1               	movwf	??_isr+1
 12529  0007  080A               	movf	10,w
 12530  0008  00F2               	movwf	??_isr+2
 12531  0009  1283               	bcf	3,5	;RP0=0, select bank0
 12532  000A  1303               	bcf	3,6	;RP1=0, select bank0
 12533  000B  087F               	movf	btemp+1,w
 12534  000C  00F3               	movwf	??_isr+3
 12535  000D  160A  158A  2ECB   	ljmp	_isr
 12536                           
 12537                           	psect	config
 12538                           
 12539                           ;Config register CONFIG @ 0x2007
 12540                           ;	Oscillator Selection bits
 12541                           ;	FOSC = 0x3, unprogrammed default
 12542                           ;	Watchdog Timer Enable bit
 12543                           ;	WDTE = OFF, WDT disabled
 12544                           ;	Power-up Timer Enable bit
 12545                           ;	PWRTE = 0x1, unprogrammed default
 12546                           ;	Brown-out Reset Enable bit
 12547                           ;	BOREN = 0x1, unprogrammed default
 12548                           ;	Low-Voltage (Single-Supply) In-Circuit Serial Programming Enable bit
 12549                           ;	LVP = 0x1, unprogrammed default
 12550                           ;	Data EEPROM Memory Code Protection bit
 12551                           ;	CPD = 0x1, unprogrammed default
 12552                           ;	Flash Program Memory Write Enable bits
 12553                           ;	WRT = 0x3, unprogrammed default
 12554                           ;	In-Circuit Debugger Mode bit
 12555                           ;	DEBUG = 0x1, unprogrammed default
 12556                           ;	Flash Program Memory Code Protection bit
 12557                           ;	CP = 0x1, unprogrammed default
 12558  2007                     	org	8199
 12559  2007  3FFB               	dw	16379

Data Sizes:
    Strings     143
    Constant    4
    Data        7
    BSS         102
    Persistent  0
    Stack       0

Auto Spaces:
    Space          Size  Autos    Used
    COMMON           14      6      10
    BANK0            80     27      67
    BANK1            80      0      65
    BANK3            96     17      17
    BANK2            96      0       0

Pointer List with Targets:

    strncmp@s2	PTR const unsigned char  size(2) Largest target is 9
		 -> STR_19(CODE[3]), time(BANK0[9]), 

    strncmp@s1	PTR const unsigned char  size(1) Largest target is 10
		 -> new_event(BANK1[10]), second_time(BANK1[3]), 

    menu_3	PTR unsigned char [2] size(1) Largest target is 9
		 -> STR_6(CODE[9]), STR_5(CODE[9]), 

    menu_2	PTR unsigned char [2] size(1) Largest target is 11
		 -> STR_4(CODE[11]), STR_3(CODE[10]), 

    menu_1	PTR unsigned char [2] size(1) Largest target is 15
		 -> STR_2(CODE[14]), STR_1(CODE[15]), 

    str_write_EEPROM@data	PTR unsigned char  size(1) Largest target is 10
		 -> new_event(BANK1[10]), 

    clcd_print@str	PTR const unsigned char  size(2) Largest target is 17
		 -> STR_18(CODE[7]), STR_17(CODE[7]), STR_16(CODE[7]), STR_15(CODE[7]), 
		 -> STR_14(CODE[17]), STR_13(CODE[17]), STR_12(CODE[7]), STR_11(CODE[7]), 
		 -> STR_10(CODE[7]), STR_9(CODE[7]), STR_8(CODE[7]), STR_7(CODE[7]), 
		 -> new_event(BANK1[10]), date(BANK1[10]), time(BANK0[9]), STR_6(CODE[9]), 
		 -> STR_5(CODE[9]), STR_4(CODE[11]), STR_3(CODE[10]), STR_2(CODE[14]), 
		 -> STR_1(CODE[15]), 


Critical Paths under _main in COMMON

    _main->_read_digital_keypad
    _set_time->___awmod
    _set_event->___awmod
    _set_date->___awmod
    _init_i2c->___lldiv
    _init_ds1307->_read_ds1307
    _init_display_controller->_clcd_write
    _display_event->_read_EEPROM
    _display_dash_screen->_read_EEPROM
    _ring_alarm->_byte_write_EEPROM
    _ring_alarm->_read_EEPROM
    _ring_alarm->_strncmp
    _read_EEPROM->_i2c_read
    _read_EEPROM->_i2c_write
    _display_time->___awmod
    _get_time->_read_ds1307
    ___bmul->_read_EEPROM
    _get_date->_read_ds1307
    _read_ds1307->_i2c_read
    _read_ds1307->_i2c_write
    _clear_screen->_clcd_write
    _clcd_putch->_clcd_write
    _clcd_putch->_read_EEPROM
    _clcd_print->_clcd_write
    _dec2bcd->___awmod
    ___awmod->___awdiv
    _alarm_event->_byte_write_EEPROM
    _str_write_EEPROM->_byte_write_EEPROM
    _byte_write_EEPROM->_i2c_write

Critical Paths under _isr in COMMON

    None.

Critical Paths under _main in BANK0

    _set_time->___awmod
    _set_event->___awmod
    _set_date->___awmod
    _menu3->_clcd_putch
    _menu2->_clcd_putch
    _menu1->_clcd_putch
    _init_config->_init_ds1307
    _init_i2c->___lldiv
    _init_ds1307->_write_ds1307
    _write_ds1307->_dec2bcd
    _init_clcd->_init_display_controller
    _init_display_controller->_clcd_write
    _display_event->_clcd_putch
    _display_dash_screen->_display_time
    _ring_alarm->___bmul
    _read_EEPROM->_i2c_read
    _display_time->___awmod
    _get_time->_read_ds1307
    ___bmul->_read_EEPROM
    _display_date->_get_date
    _get_date->_read_ds1307
    _read_ds1307->_i2c_read
    _clear_screen->_clcd_write
    _clcd_putch->_read_EEPROM
    _clcd_print->_clcd_write
    _dec2bcd->___awmod
    ___awmod->___awdiv
    _alarm_event->_str_write_EEPROM
    _str_write_EEPROM->_byte_write_EEPROM

Critical Paths under _isr in BANK0

    None.

Critical Paths under _main in BANK1

    None.

Critical Paths under _isr in BANK1

    None.

Critical Paths under _main in BANK3

    None.

Critical Paths under _isr in BANK3

    None.

Critical Paths under _main in BANK2

    None.

Critical Paths under _isr in BANK2

    None.

Call Graph Tables:

 ---------------------------------------------------------------------------------
 (Depth) Function   	        Calls       Base Space   Used Autos Params    Refs
 ---------------------------------------------------------------------------------
 (0) _main                                                19    19      0  210985
                                             25 BANK0      2     2      0
                                              0 BANK3     17    17      0
                        _alarm_event
                       _clear_screen
                            _dec2bcd
                _display_dash_screen
                      _display_event
                        _init_config
                              _menu1
                              _menu2
                              _menu3
                _read_digital_keypad
                           _set_date
                          _set_event
                           _set_time
                       _write_ds1307
 ---------------------------------------------------------------------------------
 (1) _set_time                                             5     4      1   30148
                                             14 BANK0      5     4      1
                            ___awdiv
                            ___awmod
                             ___bmul
                         _clcd_print
                         _clcd_putch
                       _clear_screen
                           _get_time
 ---------------------------------------------------------------------------------
 (1) _set_event                                            5     4      1   30148
                                             14 BANK0      5     4      1
                            ___awdiv
                            ___awmod
                             ___bmul
                         _clcd_print
                         _clcd_putch
                       _clear_screen
                           _get_time
 ---------------------------------------------------------------------------------
 (1) _set_date                                             5     4      1   30148
                                             14 BANK0      5     4      1
                            ___awdiv
                            ___awmod
                             ___bmul
                         _clcd_print
                         _clcd_putch
                       _clear_screen
                           _get_date
 ---------------------------------------------------------------------------------
 (1) _read_digital_keypad                                  2     2      0      31
                                              4 COMMON     2     2      0
 ---------------------------------------------------------------------------------
 (1) _menu3                                                3     2      1   17183
                                              6 BANK0      3     2      1
                         _clcd_print
                         _clcd_putch
                       _clear_screen
 ---------------------------------------------------------------------------------
 (1) _menu2                                                3     2      1   17183
                                              6 BANK0      3     2      1
                         _clcd_print
                         _clcd_putch
                       _clear_screen
 ---------------------------------------------------------------------------------
 (1) _menu1                                                3     2      1   17183
                                              6 BANK0      3     2      1
                         _clcd_print
                         _clcd_putch
                       _clear_screen
 ---------------------------------------------------------------------------------
 (1) _init_config                                          0     0      0    2667
                        _init_buzzer
                          _init_clcd
                _init_digital_keypad
                        _init_ds1307
                           _init_i2c
                        _init_timer2
 ---------------------------------------------------------------------------------
 (2) _init_timer2                                          0     0      0       0
 ---------------------------------------------------------------------------------
 (2) _init_i2c                                             8     4      4     542
                                             13 BANK0      8     4      4
                            ___lldiv
 ---------------------------------------------------------------------------------
 (3) ___lldiv                                             14     6      8     421
                                              4 COMMON     1     1      0
                                              0 BANK0     13     5      8
 ---------------------------------------------------------------------------------
 (2) _init_ds1307                                          2     2      0     952
                                             23 BANK0      2     2      0
                        _read_ds1307
                       _write_ds1307
 ---------------------------------------------------------------------------------
 (1) _write_ds1307                                         2     1      1     723
                                             21 BANK0      2     1      1
                            _dec2bcd (ARG)
                          _i2c_start
                           _i2c_stop
                          _i2c_write
 ---------------------------------------------------------------------------------
 (2) _init_digital_keypad                                  0     0      0       0
 ---------------------------------------------------------------------------------
 (2) _init_clcd                                            0     0      0    1173
            _init_display_controller
 ---------------------------------------------------------------------------------
 (3) _init_display_controller                              2     2      0    1173
                                              2 BANK0      2     2      0
                         _clcd_write
 ---------------------------------------------------------------------------------
 (2) _init_buzzer                                          0     0      0       0
 ---------------------------------------------------------------------------------
 (1) _display_event                                        2     2      0   17189
                                              6 BANK0      2     2      0
                         _clcd_print
                         _clcd_putch
                       _clear_screen
                        _read_EEPROM
 ---------------------------------------------------------------------------------
 (1) _display_dash_screen                                  2     2      0   32589
                                             17 BANK0      2     2      0
                         _clcd_print
                         _clcd_putch
                       _clear_screen
                       _display_date
                       _display_time
                        _read_EEPROM
                         _ring_alarm
 ---------------------------------------------------------------------------------
 (2) _ring_alarm                                           3     3      0    2274
                                              8 BANK0      3     3      0
                             ___bmul
                              _alarm
                  _byte_write_EEPROM
                        _read_EEPROM
                         _stop_alarm
                            _strncmp
 ---------------------------------------------------------------------------------
 (4) _strncmp                                              7     3      4     624
                                              4 COMMON     2     2      0
                                              0 BANK0      5     1      4
 ---------------------------------------------------------------------------------
 (3) _stop_alarm                                           0     0      0       0
 ---------------------------------------------------------------------------------
 (2) _read_EEPROM                                          3     3      0     161
                                              5 COMMON     1     1      0
                                              2 BANK0      2     2      0
                           _i2c_read
                      _i2c_rep_start
                          _i2c_start
                           _i2c_stop
                          _i2c_write
 ---------------------------------------------------------------------------------
 (3) _alarm                                                0     0      0       0
 ---------------------------------------------------------------------------------
 (2) _display_time                                         3     3      0   12965
                                             14 BANK0      3     3      0
                            ___awdiv
                            ___awmod
                             ___bmul
                           _get_time
 ---------------------------------------------------------------------------------
 (2) _get_time                                             1     1      0     161
                                              4 BANK0      1     1      0
                        _read_ds1307
 ---------------------------------------------------------------------------------
 (2) ___bmul                                               4     3      1    1126
                                              4 BANK0      4     3      1
                        _read_EEPROM (ARG)
 ---------------------------------------------------------------------------------
 (2) _display_date                                         2     2      0     161
                                              5 BANK0      2     2      0
                           _get_date
 ---------------------------------------------------------------------------------
 (2) _get_date                                             1     1      0     161
                                              4 BANK0      1     1      0
                        _read_ds1307
 ---------------------------------------------------------------------------------
 (3) _read_ds1307                                          3     3      0     161
                                              5 COMMON     1     1      0
                                              2 BANK0      2     2      0
                           _i2c_read
                      _i2c_rep_start
                          _i2c_start
                           _i2c_stop
                          _i2c_write
 ---------------------------------------------------------------------------------
 (4) _i2c_rep_start                                        0     0      0       0
                          _i2c_start
                           _i2c_stop
 ---------------------------------------------------------------------------------
 (4) _i2c_read                                             3     3      0      65
                                              4 COMMON     1     1      0
                                              0 BANK0      2     2      0
                  _i2c_wait_for_idle
 ---------------------------------------------------------------------------------
 (2) _clear_screen                                         2     2      0    1173
                                              2 BANK0      2     2      0
                         _clcd_write
 ---------------------------------------------------------------------------------
 (2) _clcd_putch                                           2     1      1   10235
                                              4 BANK0      2     1      1
                         _clcd_write
                        _read_EEPROM (ARG)
 ---------------------------------------------------------------------------------
 (2) _clcd_print                                           3     0      3    5589
                                              2 BANK0      3     0      3
                         _clcd_write
 ---------------------------------------------------------------------------------
 (3) _clcd_write                                           4     3      1    1173
                                              4 COMMON     2     1      1
                                              0 BANK0      2     2      0
 ---------------------------------------------------------------------------------
 (1) _dec2bcd                                              7     7      0   11851
                                             14 BANK0      7     7      0
                            ___awdiv
                            ___awmod
 ---------------------------------------------------------------------------------
 (2) ___awmod                                              7     3      4    7453
                                              5 COMMON     1     1      0
                                              8 BANK0      6     2      4
                            ___awdiv (ARG)
 ---------------------------------------------------------------------------------
 (2) ___awdiv                                              9     5      4    4225
                                              4 COMMON     1     1      0
                                              0 BANK0      8     4      4
 ---------------------------------------------------------------------------------
 (1) _alarm_event                                          1     1      0     915
                                              4 BANK0      1     1      0
                  _byte_write_EEPROM
                   _str_write_EEPROM
 ---------------------------------------------------------------------------------
 (2) _str_write_EEPROM                                     3     2      1     552
                                              1 BANK0      3     2      1
                  _byte_write_EEPROM
 ---------------------------------------------------------------------------------
 (3) _byte_write_EEPROM                                    2     1      1     363
                                              5 COMMON     1     0      1
                                              0 BANK0      1     1      0
                          _i2c_start
                           _i2c_stop
                          _i2c_write
 ---------------------------------------------------------------------------------
 (2) _i2c_write                                            1     1      0      31
                                              4 COMMON     1     1      0
                  _i2c_wait_for_idle
 ---------------------------------------------------------------------------------
 (2) _i2c_stop                                             0     0      0       0
                  _i2c_wait_for_idle
 ---------------------------------------------------------------------------------
 (2) _i2c_start                                            0     0      0       0
                  _i2c_wait_for_idle
 ---------------------------------------------------------------------------------
 (3) _i2c_wait_for_idle                                    0     0      0       0
 ---------------------------------------------------------------------------------
 Estimated maximum stack depth 4
 ---------------------------------------------------------------------------------
 (Depth) Function   	        Calls       Base Space   Used Autos Params    Refs
 ---------------------------------------------------------------------------------
 (8) _isr                                                  4     4      0       0
                                              0 COMMON     4     4      0
 ---------------------------------------------------------------------------------
 Estimated maximum stack depth 8
 ---------------------------------------------------------------------------------

 Call Graph Graphs:

 _main (ROOT)
   _alarm_event
     _byte_write_EEPROM
       _i2c_start
         _i2c_wait_for_idle
       _i2c_stop
         _i2c_wait_for_idle
       _i2c_write
         _i2c_wait_for_idle
     _str_write_EEPROM
       _byte_write_EEPROM
   _clear_screen
     _clcd_write
   _dec2bcd
     ___awdiv
     ___awmod
       ___awdiv (ARG)
   _display_dash_screen
     _clcd_print
       _clcd_write
     _clcd_putch
       _clcd_write
       _read_EEPROM (ARG)
         _i2c_read
           _i2c_wait_for_idle
         _i2c_rep_start
           _i2c_start
           _i2c_stop
         _i2c_start
         _i2c_stop
         _i2c_write
     _clear_screen
     _display_date
       _get_date
         _read_ds1307
           _i2c_read
           _i2c_rep_start
           _i2c_start
           _i2c_stop
           _i2c_write
     _display_time
       ___awdiv
       ___awmod
       ___bmul
         _read_EEPROM (ARG)
       _get_time
         _read_ds1307
     _read_EEPROM
     _ring_alarm
       ___bmul
       _alarm
       _byte_write_EEPROM
       _read_EEPROM
       _stop_alarm
       _strncmp
   _display_event
     _clcd_print
     _clcd_putch
     _clear_screen
     _read_EEPROM
   _init_config
     _init_buzzer
     _init_clcd
       _init_display_controller
         _clcd_write
     _init_digital_keypad
     _init_ds1307
       _read_ds1307
       _write_ds1307
         _dec2bcd (ARG)
         _i2c_start (ARG)
         _i2c_stop (ARG)
         _i2c_write (ARG)
     _init_i2c
       ___lldiv
     _init_timer2
   _menu1
     _clcd_print
     _clcd_putch
     _clear_screen
   _menu2
     _clcd_print
     _clcd_putch
     _clear_screen
   _menu3
     _clcd_print
     _clcd_putch
     _clear_screen
   _read_digital_keypad
   _set_date
     ___awdiv
     ___awmod
     ___bmul
     _clcd_print
     _clcd_putch
     _clear_screen
     _get_date
   _set_event
     ___awdiv
     ___awmod
     ___bmul
     _clcd_print
     _clcd_putch
     _clear_screen
     _get_time
   _set_time
     ___awdiv
     ___awmod
     ___bmul
     _clcd_print
     _clcd_putch
     _clear_screen
     _get_time
   _write_ds1307

 _isr (ROOT)

 Address spaces:
Name               Size   Autos  Total    Cost      Usage
BANK3               60     11      11       9       17.7%
BITBANK3            60      0       0       8        0.0%
SFR3                 0      0       0       4        0.0%
BITSFR3              0      0       0       4        0.0%
BANK2               60      0       0      11        0.0%
BITBANK2            60      0       0      10        0.0%
SFR2                 0      0       0       5        0.0%
BITSFR2              0      0       0       5        0.0%
BANK1               50      0      41       7       81.2%
BITBANK1            50      0       0       6        0.0%
SFR1                 0      0       0       2        0.0%
BITSFR1              0      0       0       2        0.0%
BANK0               50     1B      43       5       83.8%
BITBANK0            50      0       0       4        0.0%
SFR0                 0      0       0       1        0.0%
BITSFR0              0      0       0       1        0.0%
COMMON               E      6       A       1       71.4%
BITCOMMON            E      0       0       0        0.0%
CODE                 0      0       0       0        0.0%
DATA                 0      0      9F      12        0.0%
ABS                  0      0      9F       3        0.0%
NULL                 0      0       0       0        0.0%
STACK                0      0       0       2        0.0%
EEDATA             100      0       0       0        0.0%


Microchip Technology PIC Macro Assembler V2.32 build 20210201212658 
Symbol Table                                                                                   Sat Mar 25 07:48:42 2023

                               pc 0002                    ___bmul@product 004E                    clcd_print@addr 004C  
__size_of_init_display_controller 0071                                l20 112A                                l23 080B  
                              l32 1D10                                l17 1E1F                                l26 07FE  
                              l45 1CDD                                l39 1B2A                                l72 1C5C  
                              l66 1BD1                                l69 1D79                                l85 1DE3  
                              l94 1C38                                l88 1BF3                                _PM 0078  
                    ___awdiv@sign 004D                                fsr 0004             byte_write_EEPROM@addr 0048  
           byte_write_EEPROM@data 0075                     ?_display_date 0070                               l123 1D44  
                             l132 1B42                               l141 1C7C                               l126 1B6C  
                             l142 1C7F                               l143 1C83                               l135 1B6B  
                             l129 1B78                               l138 1B4B                               l146 1B60  
                             l402 0772                               l245 1CAE                               l182 1B55  
                             l422 1272                               l270 0D7E                               l409 11CE  
                             l505 0A6F                               l610 1BB6                               l435 1316  
                             l531 0C32                               l460 163C                               l292 0F3B  
                             l382 1DAE                               l294 0F6A                               l615 1503  
                             l607 05E8                               l640 084C                               l392 07E9  
                             l296 0F89                               l625 13C4                               l529 0BAB  
                             l297 0F9B                               l289 0F0D                               l650 1B18  
                             l634 13C4                               l298 0FAD                               l379 1C15  
                             l299 0FBF                               l484 1778                               l637 1B8A  
                             l389 0904                               l653 1B1E                               l486 17FF  
                             l647 1B24                               l559 013F                               l905 1ECA  
                             l765 10B9                               l775 1F96                               l892 1FFF  
                             _GIE 005F                               _RE1 0049                               _RE2 004A  
                             _PR2 0092                               _PEN 048A                               _SEN 0488  
                   ?_display_time 0070                               _day 0039                               _min 0079  
                             _log 00A0                               _sec 003E                               _isr 1ECB  
                  clcd_putch@addr 004C                               fsr0 0004                    clcd_putch@data 004D  
                             indf 0000                      ___awmod@sign 0055         __size_of_str_write_EEPROM 0023  
           ??_read_digital_keypad 0074                              l1195 1E6F                              l5000 0766  
                            l5002 076D                              l5010 113A                              l5020 114C  
                            l5012 113E                              l5004 112E                              l5100 1276  
                            l5030 1166                              l5022 1152                              l5006 1134  
                            l5014 1144                              l5102 127C                              l5110 128C  
                            l5040 118A                              l5032 116B                              l5024 1157  
                            l5016 114A                              l5008 1135                              l5120 129F  
                            l5112 1292                              l5104 127D                              l5200 15F2  
                            l5042 118F                              l5026 115B                              l5122 12A3  
                            l5106 1282                              l5210 1618                              l5202 1603  
                            l4500 1B43                              l5044 11A5                              l5036 116E  
                            l5028 1160                              l5060 11E2                              l5052 11D2  
                            l5140 12ED                              l5132 12B6                              l5124 12A8  
                            l5116 1294                              l5108 1286                              l5300 092D  
                            l5220 162B                              l5212 161A                              l5204 1609  
                            l4502 1B48                              l5046 11B8                              l5038 1173  
                            l5070 11F6                              l5054 11D8                              l5062 11E8  
                            l5142 1300                              l5134 12BB                              l5126 12AE  
                            l5118 129A                              l5310 096C                              l5302 0932  
                            l5230 1643                              l5222 1630                              l5214 161F  
                            l5206 160E                              l5150 150D                              l4504 1B57  
                            l4520 1C73                              l4512 1B61                              l5048 11CB  
                            l5080 120F                              l5072 11FB                              l5064 11EE  
                            l5056 11D9                              l5144 1313                              l5136 12D2  
                            l5128 12B3                              l5400 0B3F                              l5320 09A5  
                            l5312 097E                              l5304 0946                              l5240 1654  
                            l5232 1648                              l5224 1634                              l5216 1623  
                            l5208 1612                              l5160 1518                              l5152 1511  
                            l4506 1B5C                              l4530 1DEF                              l4522 1C78  
                            l4514 1C60                              l4602 1E55                              l5090 1233  
                            l5074 11FF                              l5058 11DE                              l5138 12D7  
                            l5410 0B9D                              l5330 09E7                              l5322 09B1  
                            l5314 0988                              l5306 0950                              l5250 1665  
                            l5242 1657                              l5234 1649                              l5226 163A  
                            l5218 1629                              l5170 1547                              l5162 151D  
                            l5154 1513                              l4508 1B60                              l4700 1E73  
                            l4540 1E09                              l4532 1DF2                              l4524 1C80  
                            l4516 1C65                              l4620 10AB                              l4612 1B13  
                            l4604 1E59                              l5092 1249                              l5084 1212  
                            l5076 1204                              l5068 11F0                              l5404 0B4D  
                            l5340 0A3C                              l5332 09F5                              l5324 09BF  
                            l5316 0989                              l5308 0962                              l5500 0161  
                            l5420 003C                              l5260 16C3                              l5252 166A  
                            l5244 165C                              l5236 164D                              l5228 163D  
                            l5180 1570                              l5172 1555                              l5164 152C  
                            l5156 1514                              l5148 1507                              l4710 1E87  
                            l4702 1E77                              l4542 1E0A                              l4534 1DF3  
                            l4518 1C6D                              l4550 1D76                              l4622 10AF  
                            l4614 1B19                              l4606 1E5F                              l4630 1F2F  
                            l5094 125C                              l5086 1217                              l5078 120A  
                            l5414 0C17                              l5406 0B54                              l5350 0A52  
                            l5342 0A41                              l5334 0A0C                              l5326 09CD  
                            l5318 0997                              l5510 0177                              l5502 0166  
                            l5430 004A                              l5422 0042                              l5270 1721  
                            l5262 16C8                              l5254 16AE                              l5246 165E  
                            l5238 1652                              l5190 15AA                              l5182 157A  
                            l5174 155B                              l5166 1531                              l5158 1515  
                            l4720 1E9F                              l4712 1E8D                              l4704 1E7C  
                            l4544 1E11                              l4536 1DFA                              l4528 1DE5  
                            l4624 10B1                              l4616 10A6                              l4800 0884  
                            l4608 1E6D                              l4560 10DE                              l4640 1F5E  
                            l4632 1F41                              l5096 126F                              l5088 122E  
                            l5416 0C25                              l5408 0B59                              l5360 0A67  
                            l5352 0A56                              l5344 0A45                              l5336 0A21  
                            l5328 09D9                              l5600 0492                              l5520 018E  
                            l5512 017B                              l5504 016A                              l5440 0063  
                            l5432 004B                              l5424 0046                              l5280 17F2  
                            l5272 1726                              l5264 170C                              l5248 1660  
                            l5192 15B6                              l5184 1586                              l5176 1569  
                            l5168 1541                              l4730 1EC1                              l4722 1EA9  
                            l4714 1E90                              l4706 1E7E                              l4546 1E14  
                            l4538 1DFD                              l4626 10B8                              l4618 10A7  
                            l4810 08BA                              l4802 089B                              l4570 1104  
                            l4562 10E5                              l4554 10BA                              l4642 1F70  
                            l4634 1F44                              l4650 1F8E                              l5418 0C26  
                            l5370 0A7D                              l5362 0A6D                              l5354 0A5C  
                            l5346 0A4B                              l5290 0914                              l5338 0A36  
                            l5610 0521                              l5602 04A9                              l5530 01A1  
                            l5522 0191                              l5514 0181                              l5506 0170  
                            l5450 009E                              l5442 0072                              l5434 004C  
                            l5426 0047                              l5282 17F3                              l5274 176A  
                            l5258 16BC                              l5194 15C2                              l5186 1592  
                            l5178 156F                              l6090 0CDE                              l4492 1B6C  
                            l4660 1FA3                              l4732 1EC6                              l4724 1EAF  
                            l4716 1E97                              l4708 1E82                              l4548 1D48  
                            l4820 08E0                              l4812 08C8                              l4804 08B2  
                            l4580 1DB2                              l4572 110B                              l4564 10EC  
                            l4556 10C5                              l4740 0805                              l4644 1F7E  
                            l4636 1F51                              l5380 0A8F                              l5372 0A80  
                            l5356 0A5E                              l5348 0A4D                              l5364 0A70  
                            l5292 0915                              l5284 0908                              l5620 0560  
                            l5612 0530                              l5604 0508                              l5540 01B6  
                            l5532 01A6                              l5524 0195                              l5508 0172  
                            l5516 0183                              l5452 00A4                              l5460 00DA  
                            l5444 0077                              l5436 004F                              l5428 0048  
                            l5268 171A                              l5196 15CE                              l5188 159E  
                            l6092 0D2A                              l4494 1B72                              l4670 1FB4  
                            l4662 1FA5                              l4654 1F97                              l4726 1EB6  
                            l4718 1E9B                              l4750 1CF8                              l4590 1D7A  
                            l4830 0773                              l4822 08E8                              l4814 08CE  
                            l4806 08B5                              l4582 1DE0                              l4574 111C  
                            l4566 10EF                              l4558 10CC                              l4742 0806  
                            l4646 1F7F                              l4638 1F55                              l5390 0AE1  
                            l5382 0A90                              l5374 0A85                              l5366 0A76  
                            l5358 0A63                              l5294 0916                              l5286 090E  
                            l5630 0591                              l5622 0561                              l5606 050F  
                            l5614 053B                              l5550 01C9                              l5542 01B9  
                            l5534 01A7                              l5526 019A                              l5518 0189  
                            l5470 00FD                              l5462 00DB                              l5454 00A9  
                            l5446 0087                              l5438 0054                              l5278 17E4  
                            l5198 15E1                              l6094 0D76                              l5710 0C49  
                            l5702 0C33                              l4496 1B3A                              l4680 1FCC  
                            l4672 1FBA                              l4664 1FA9                              l4656 1F9A  
                            l4728 1EBC                              l4752 1D00                              l4744 07ED  
                            l4840 07B0                              l4832 0778                              l4824 08E9  
                            l4816 08D2                              l4808 08B6                              l4592 1E23  
                            l4576 1123                              l4568 10F6                              l4736 0801  
                            l4760 1BC7                              l4648 1F88                              l4920 1CDC  
                            l4904 1CBA                              l5376 0A87                              l5368 0A7B  
                            l5384 0A93                              l5296 0919                              l5288 0912  
                            l5640 05CD                              l5632 059D                              l5624 056D  
                            l5616 0548                              l5608 0514                              l5560 01FE  
                            l5552 01CE                              l5544 01BE                              l5536 01AD  
                            l5528 019C                              l5480 012E                              l5472 0105  
                            l5464 00E9                              l5456 00C0                              l5448 008D  
                            l6096 0FDA                              l5800 0D98                              l5720 0C61  
                            l5712 0C4B                              l5704 0C43                              l4498 1B3F  
                            l4586 1BD5                              l4770 1C30                              l4762 1C19  
                            l4682 1FDD                              l4674 1FBD                              l4690 1FF1  
                            l4666 1FAE                              l4658 1F9E                              l4930 080F  
                            l4746 1CDE                              l4850 07DF                              l4842 07BA  
                            l4834 078C                              l4826 08F9                              l4818 08D7  
                            l4594 1E24                              l5650 13D2                              l4738 0804  
                            l4754 1B25                              l4578 1C3C                              l4906 1CC5  
                            l5394 0AEF                              l5386 0A98                              l5378 0A8A  
                            l5298 091E                              l5642 05DB                              l5634 05A9  
                            l5626 0579                              l5618 0556                              l5570 0246  
                            l5554 01D3                              l5562 020D                              l5546 01C0  
                            l5538 01B2                              l5490 0145                              l5482 0133  
                            l5474 0106                              l5466 00EF                              l5458 00D7  
                            l5810 0DB1                              l5802 0D9A                              l5730 0C84  
                            l5722 0C6E                              l5714 0C4D                              l5706 0C45  
                            l4764 1C1A                              l4692 1FF6                              l4684 1FE3  
                            l4676 1FC4                              l4668 1FB2                              l4932 0811  
                            l4748 1CE8                              l4844 07C2                              l4836 0796  
                            l4588 1BF4                              l4828 0903                              l4596 1E2C  
                            l4860 1368                              l4852 1317                              l5660 1417  
                            l5652 13D7                              l4756 1BB7                              l4772 1D11  
                            l4780 1B50                              l4924 1C84                              l4908 1CCC  
                            l4916 1CCE                              l5396 0AF6                              l5388 0A9D  
                            l5644 05DC                              l5636 05B5                              l5628 0585  
                            l5580 02CE                              l5572 0254                              l5556 01E2  
                            l5564 0224                              l5492 0149                              l5548 01C4  
                            l5484 0137                              l5476 0117                              l5468 00F4  
                            l5900 0F04                              l5820 0DC7                              l5812 0DBE  
                            l5804 0D9C                              l5740 0CAE                              l5732 0C8C  
                            l5724 0C73                              l5716 0C4F                              l5708 0C47  
                            l4766 1C26                              l4942 1B9E                              l4694 1FFB  
                            l4686 1FE4                              l4678 1FC8                              l4934 0827  
                            l4846 07D4                              l4838 079E                              l4790 084D  
                            l4598 1E3F                              l4870 1384                              l4854 132F  
                            l4862 136C                              l4950 05F6                              l5670 1462  
                            l5662 1423                              l5654 13E6                              l5646 13C8  
                            l4758 1BC2                              l4774 1D14                              l4782 1B54  
                            l4926 1CAC                              l4918 1CD8                              l5398 0AFB  
                            l5638 05C1                              l5590 03B0                              l5582 02E5  
                            l5566 0229                              l5574 0262                              l5558 01F0  
                            l5494 014F                              l5486 013D                              l5478 0128  
                            l5910 0F35                              l5902 0F0E                              l5822 0DCD  
                            l5830 0DDD                              l5806 0DA5                              l5742 0CB1  
                            l5726 0C79                              l5734 0C95                              l5718 0C54  
                            l4768 1C2C                              l4944 1BAA                              l4688 1FEB  
                            l4936 083D                              l4848 07DE                              l4792 0852  
                            l4880 1399                              l4872 1389                              l4864 1373  
                            l4856 1345                              l4960 0617                              l4952 05F7  
                            l5680 14A3                              l5672 1473                              l5664 1434  
                            l5656 13F5                              l5648 13CE                              l4784 1B1F  
                            l4776 1D41                              l4928 1CAD                              l5592 03C7  
                            l5584 0344                              l5576 0269                              l5568 0238  
                            l5496 0151                              l5488 0140                              l5920 0F6B  
                            l5912 0F3C                              l5904 0F25                              l5840 0E00  
                            l5832 0DE3                              l5824 0DDA                              l5808 0DAB  
                            l5760 0CFF                              l5744 0CBF                              l5752 0CD4  
                            l5736 0C9B                              l5728 0C7F                              l4698 1E70  
                            l4938 084A                              l4786 1B79                              l4794 0862  
                            l4866 1379                              l4874 138D                              l4858 1349  
                            l4970 064E                              l4962 061F                              l4954 05F8  
                            l4946 05EC                              l5690 14E9                              l5682 14B4  
                            l5674 147F                              l5666 1445                              l5658 1406  
                            l4778 1B4C                              l5594 0426                              l5586 034B  
                            l5578 026E                              l5498 0156                              l5930 0F9C  
                            l5922 0F82                              l5914 0F53                              l5906 0F2B  
                            l5842 0E08                              l5834 0DE9                              l5850 0E42  
                            l5818 0DC1                              l5762 0D02                              l5746 0CC5  
                            l5738 0CA1                              l5754 0CE6                              l4788 1B80  
                            l4796 0879                              l4876 1393                              l4884 13AB  
                            l4868 137E                              l4980 0681                              l4972 065B  
                            l4964 062C                              l4956 05FD                              l4948 05F2  
                            l5684 14C5                              l5676 148B                              l5668 1451  
                            l5692 14FA                              l5596 042D                              l5588 0350  
                            l5932 0FAE                              l5916 0F59                              l5908 0F2D  
                            l5860 0E65                              l5852 0E48                              l5844 0E1B  
                            l5836 0DF6                              l5780 0D4B                              l5772 0D20  
                            l5756 0CEC                              ?_isr 0070                              l4798 087F  
                            l4886 13B1                              l4990 0709                              l4982 0687  
                            l4974 0663                              l4966 0639                              l4958 060A  
                            l5694 1500                              l5686 14D1                              l5678 1497  
                            l5598 0432                              l5934 0FC0                              l5862 0E6D  
                            l5854 0E4E                              l5870 0EA7                              l5846 0E2E  
                            l5838 0DF8                              l5782 0D4E                              l5766 0D11  
                            l5758 0CF2                              l5774 0D32                              l5942 0FCE  
                            l4888 13BE                              l4984 068F                              l4992 0716  
                            l4968 0641                              l4976 0670                              l5688 14DD  
                            l4896 1CB0                              l5928 0F8A                              l5944 0FF4  
                            l5880 0ECA                              l5872 0EAD                              l5864 0E80  
                            l5856 0E5B                              l5792 0D6C                              l5776 0D38  
                            l4994 0750                              l4986 0694                              l4978 067C  
                            l5698 1502                              l4898 1CB5                              l5890 0EE4  
                            l5882 0ED2                              l5874 0EB3                              l5866 0E93  
                            l5858 0E5D                              l5786 0D5D                              l5778 0D3E  
                            l5794 0D7F                              l4996 075C                              l4988 06CF  
                            l5892 0EF1                              l5876 0EC0                              l5796 0D85  
                            l4998 0761                              l5894 0EF3                              l5878 0EC2  
                            l5886 0ED8                              l5798 0D8B                              l5896 0EFB  
                            l5888 0EDE                              STR_1 1036                              STR_2 1045  
                            STR_3 1053                              STR_4 103A                              STR_5 105D  
                            STR_6 1066                              STR_7 106F                              STR_8 1099  
                            STR_9 1076                              u5000 13C3                    ?_display_event 0070  
                            u5001 13C2                              u5010 1CB5                              u5011 1CB4  
                            u5100 076D                              u5020 1CC5                              u5101 076C  
                            u5021 1CC4                              u5110 1134                              u5030 1CCC  
                            u5111 1133                              u5031 1CCB                              u5120 114A  
                            u5200 11EE                              u5040 1CD8                              u6000 0189  
                            u5121 1149                              u5201 11ED                              u5041 1CD7  
                            u6001 0188                              u5130 1152                              u5210 11F6  
                            u6010 018E                              u5131 1151                              u5211 11F5  
                            u6011 018D                              u4500 1E3F                              u5060 05F2  
                            u5140 1157                              u5220 11FB                              u5300 129F  
                            u6100 0269                              u6020 019A                              u4501 1E3E  
                            u5061 05F1                              u5141 1156                              u5221 11FA  
                            u5301 129E                              u6101 0268                              u6021 0199  
                            u4430 1B72                              u4510 1E6D                              u5070 0681  
                            u5150 1166                              u5230 120A                              u5310 12AE  
                            u6110 026E                              u6030 01A6                              u4431 1B71  
                            u5055 0840                              u4511 1E6C                              u5071 0680  
                            u5151 1165                              u5231 1209                              u5311 12AD  
                            u6111 026D                              u6031 01A5                              u4440 1B78  
                            u4520 10AB                              u5080 0687                              u4600 1F8E  
                            u5160 116B                              u5240 120F                              u5320 12B3  
                            u6200 05E5                              u6120 034B                              u6040 01B2  
                            u5400 160E                              u4441 1B77                              u4521 10AA  
                            u5081 0686                              u4601 1F8D                              u5161 116A  
                            u5241 120E                              u5321 12B2                              u6121 034A  
                            u6041 01B1                              u5401 160D                              u4610 1F9E  
                            u4450 1C78                              u4530 10B8                              u5090 0694  
                            u6210 13CE                              u5170 1173                              u5250 1217  
                            u5330 12BB                              u6130 0350                              u6050 01BE  
                            u5410 1618                              u4611 1F9D                              u4451 1C77  
                            u4531 10B7                              u5091 0693                              u6211 13CD  
                            u5171 1172                              u5251 1216                              u5331 12BA  
                            u6131 034F                              u6051 01BD                              u5411 1617  
                            _PEIE 005E                              u4700 1FF6                              u4620 1FA9  
                            u4460 1DEC                              u6220 1500                              u4540 1F41  
                            u5180 118F                              u5260 1233                              u5340 12D7  
                            u6140 042D                              u6060 01C9                              u5500 1665  
                            u5420 161F                              u6300 0CF2                              u4701 1FF5  
                            u4621 1FA8                              u4461 1DE8                              u6221 14FF  
                            u4541 1F40                              u5181 118E                              u5261 1232  
                            u5341 12D6                              u6141 042C                              u6061 01C8  
                            u5501 1664                              u5421 161E                              u6301 0CF1  
                            u4630 1FBA                              u4710 1E77                              u5190 11D8  
                            u5270 127C                              u6150 0432                              u6070 01CE  
                            u5510 166A                              u5430 1629                              u5350 150D  
                            u6310 0CFF                              u6230 0C73                              u4631 1FB9  
                            u4711 1E76                              u5191 11D7                              u5271 127B  
                            u6151 0431                              u6071 01CD                              u5511 1669  
                            u5431 1628                              u5351 150C                              u6311 0CFE  
                            u6231 0C72                              u4720 1E82                              u4800 1D10  
                            u4560 1F55                              u5280 1292                              u6160 050F  
                            u6080 01D3                              u5520 16C3                              u5440 1630  
                            u6400 0DBE                              u6320 0D38                              u6240 0C79  
                            u4721 1E81                              u4801 1D0F                              u4561 1F54  
                            u5281 1291                              u6161 050E                              u6081 01D2  
                            u5521 16C2                              u5441 162F                              u6401 0DBD  
                            u6321 0D37                              u6241 0C78                              u4810 1C38  
                            u4650 1FCC                              u4730 1E8D                              u4474 1DEF  
                            u4490 1E2C                              u5290 129A                              u6170 0514  
                            u6090 0229                              u5530 16C8                              u5450 163A  
                            u6410 0DC7                              u6330 0D3E                              u6250 0C7F  
                            u4811 1C37                              u4651 1FCB                              u4731 1E8C  
                            u4491 1E2B                              u4555 1F46                              u5291 1299  
                            u6171 0513                              u6091 0228                              u5531 16C7  
                            u5451 1639                              u6411 0DC6                              u6331 0D3D  
                            u6251 0C7E                              u4580 1F70                              u4820 1D22  
                            u5700 0A76                              u6180 05DB                              u5540 1721  
                            u5460 1643                              u6500 0EAD                              u6420 0DCD  
                            u6340 0D4B                              u6260 0C9B                              _RCEN 048B  
                            u4645 1FBE                              u4485 1E01                              u4581 1F6F  
                            u5701 0A75                              u5605 0939                              u6181 05DA  
                            u5541 1720                              u5461 1642                              u5365 1536  
                            u6501 0EAC                              u6421 0DCC                              u6341 0D4A  
                            u6261 0C9A                              u4670 1FDD                              u4750 1E9F  
                            u4910 132F                              u5710 0A7B                              u5630 0A3C  
                            u6190 05E4                              u5550 1726                              u5470 1648  
                            u5390 1609                              u6510 0EB3                              u6430 0DDA  
                            u6350 0D85                              u6270 0CA1                              u4671 1FDC  
                            u4751 1E9E                              u4911 132E                              u4575 1F57  
                            u5711 0A7A                              u5631 0A3B                              u5615 0955  
                            u6191 05E2                              u5551 1725                              u5471 1647  
                            u5391 1608                              u5375 154A                              u6511 0EB2  
                            u6431 0DD9                              u6351 0D84                              u6271 0CA0  
                            u4760 1EA9                              u4840 087F                              u4920 1345  
                            u5800 0C25                              u5720 0A85                              u5640 0A41  
                            u5560 17F2                              u5480 1652                              u6520 0EC0  
                            u6440 0DE3                              u6360 0D8B                              u6280 0CAE  
                            u4665 1FCD                              u4761 1EA8                              u4745 1E91  
                            u4905 07C7                              u4841 087E                              u4921 1344  
                            u4585 1F6C                              u4825 1D1D                              u5801 0C24  
                            u5721 0A84                              u5641 0A40                              u5625 0971  
                            u5561 17F1                              u5481 1651                              u5385 155E  
                            u6521 0EBF                              u6441 0DE2                              u6361 0D8A  
                            u6281 0CAD                              u4690 1FF1                              u4930 1373  
                            u5810 0C2E                              u5730 0A8F                              u5650 0A4B  
                            u5570 17FB                              u5490 165C                              u6530 0EDE  
                            u6450 0DE9                              u6370 0D98                              u6290 0CEC  
                            u4691 1FF0                              u4675 1FD9                              u4835 0857  
                            u4931 1372                              u4595 1F80                              u5811 0C2C  
                            u5731 0A8E                              u5651 0A4A                              u5571 17F9  
                            u5491 165B                              u6531 0EDD                              u6451 0DE8  
                            u6371 0D97                              u6291 0CEB                              u4780 1EBC  
                            u4860 08D7                              u4940 1379                              u5820 0C2F  
                            u5740 0A98                              u5660 0A52                              u5900 013D  
                            u5580 17FC                              u6540 0EE4                              u6460 0DF6  
                            u6380 0DAB                              u4685 1FE5                              u4781 1EBB  
                            u4765 1EA5                              u4861 08D6                              u4941 1378  
                            u5741 0A97                              u5661 0A51                              u5901 013C  
                            u6541 0EE3                              u6461 0DF5                              u6381 0DAA  
                            u4790 1EC1                              u4950 137E                              u5750 0A9D  
                            u5670 0A5C                              u5590 090E                              u5910 0145  
                            u5830 0042                              u6550 0EF1                              u6470 0E48  
                            u6390 0DB1                              u4791 1EC0                              u4775 1EB0  
                            u4855 08BD                              u4951 137D                              u6607 10C0  
                            u5751 0A9C                              u5671 0A5B                              u5591 090D  
                            u5911 0144                              u5831 0041                              u6551 0EF0  
                            u6471 0E47                              u6391 0DB0                              u4960 1393  
                            u5760 0AF6                              u5680 0A63                              u5920 014F  
                            u6560 0F2B                              u6480 0E4E                              u4961 1392  
                            u6617 10D2                              u5761 0AF5                              u5681 0A62  
                            u5921 014E                              u6561 0F2A                              u6481 0E4D  
                            u4970 1398                              u5770 0AFB                              u5690 0A6D  
                            u5930 0156                              u5850 00A4                              u6570 0F59  
                            u6490 0E5B                              u6707 1E1A                              u4875 08EC  
                            u4971 1397                              u6627 10E2                              u5771 0AFA  
                            u5691 0A6C                              u5931 0155                              u5851 00A3  
                            u6571 0F58                              u6491 0E5A                              u4980 13B1  
                            u5780 0B54                              u5940 015C                              u6580 0F88  
                            u4885 077F                              u4981 13B0                              u6637 10FA  
                            u5781 0B53                              u5941 015A                              u5845 007C  
                            u6581 0F87                              u4990 13BE                              u5790 0B59  
                            u5950 015D                              u5870 00F4                              u6590 0FCD  
                            u4895 07A3                              u4991 13BD                              u6647 1108  
                            u5791 0B58                              u5871 00F3                              u6591 0FCC  
                            u5960 0166                              u5880 012E                              u6657 1118  
                            u5961 0165                              u5881 012D                              u5865 00DE  
                            u5970 0170                              u5890 0133                              u6667 1127  
                            u5971 016F                              u5891 0132                              u5980 0177  
                            u6677 1B86                              u5981 0176                              u5990 0181  
                            u6687 1DF7                              u5991 0180                              u6697 1E0E  
                            _R_nW 04A2                              _date 00C3                              _main 0C33  
                            _hour 003A                              _time 003F                              _year 0037  
                            btemp 007E                              start 0010                      ?_read_EEPROM 0070  
               ___bmul@multiplier 004F                    clcd_write@byte 0075                    clcd_write@mode 0074  
                   _i2c_rep_start 1B61                             ??_isr 0070                      ?_init_ds1307 0070  
                  ??_display_date 004D                             ?_main 0070                   __end_of_dec2bcd 084D  
                    ?_read_ds1307 0070                             _ACKEN 048C                             _ACKDT 048D  
                  ??_display_time 0056                   __end_of___awdiv 2000                             STR_10 106F  
                           STR_11 1076                             STR_12 106F                             STR_13 1014  
                           STR_14 1025                             STR_15 1092                             STR_16 1084  
                           STR_17 108B                             STR_18 107D                             STR_19 10A0  
                 __end_of___awmod 1ECB                   __end_of___lldiv 1F97                       i2c_read@ack 0048  
                 ___awdiv@divisor 0048                             i1l171 1F26                             i1l165 1EEB  
                           i1l166 1EF2                      ?_init_config 0070                   ___awdiv@counter 004C  
                           _PORTB 0006                             _PORTC 0007                             _PORTD 0008  
                           _SSPM3 00A3                             _TRISB 0086                             _TRISC 0087  
                           _TRISD 0088                             _SSPEN 00A5                      ?_init_buzzer 0070  
                    ?_init_timer2 0070                      main@menu_pos 019C              __end_of_clear_screen 1B8B  
                           _alarm 1B13                             _menu1 112B                             _menu2 11CF  
                           _menu3 1273                             _event 0036                             _month 0038  
                           _times 1010       __end_of_display_dash_screen 0773                             pclath 000A  
                           status 0003                             wtemp0 007E              __size_of_alarm_event 0019  
                 __end_of_strncmp 1E70                  init_ds1307@dummy 0060             __size_of_write_ds1307 0024  
                 __initialization 0013                    ?_i2c_rep_start 0070                      __end_of_main 1000  
                __end_of_i2c_read 1C84                  __end_of_i2c_stop 1B4C               set_event@am_pm_flag 002A  
                          ??_main 0061                  set_date@day_flag 002E                            ?_alarm 0070  
                 ??_display_event 004E                            ?_menu1 004E                            ?_menu2 004E  
                          ?_menu3 004E                  ___awdiv@dividend 004A                      i2c_read@data 0049  
                set_date@new_date 00AB                            i1l4100 1F22                            i1l4102 1F23  
                          i1l4080 1EE0                            i1l4090 1F04                            i1l4082 1EE2  
                          i1l4092 1F0A                            i1l4084 1EE9                            i1l4076 1ECB  
                          i1l4094 1F0F                            i1l4086 1EF0                            i1l4078 1ECF  
                          i1l4096 1F16                            i1l4088 1EF7                            i1l4098 1F1D  
                          u400_20 1EF0                            u400_21 1EEF                            u401_20 1EF7  
                          u401_21 1EF6                            u402_20 1F04                            u402_21 1F03  
                          u402_25 1F00                            u403_20 1F0F                            u403_21 1F0E  
                          u404_20 1F16                            u404_21 1F15                            u405_20 1F1D  
                          u405_21 1F1C                      _write_ds1307 1C39                            u397_20 1ECF  
                          u397_21 1ECE                            u398_20 1EE0                            u398_21 1EDF  
                          u399_20 1EE9                            u399_21 1EE8                            _TMR2IE 0461  
                          _TMR2IF 0061                            _TMR2ON 0092                            _SSPADD 0093  
                          _TRISE1 0449                            _TRISE2 044A                            _SSPBUF 0013  
              __size_of_i2c_start 0009                     main@key_level 019E                __size_of_i2c_write 000B  
     __end_of_init_digital_keypad 1B2B                  __end_of_get_date 1DAF                  __end_of_get_time 1C16  
                          ___bmul 10A3           _init_display_controller 10BA                         ??_dec2bcd 0056  
                       ??___awdiv 0074                         ??___awmod 0075                         ??___lldiv 0074  
                __end_of_init_i2c 1D45                            _menu_1 00DE                            _menu_2 00DC  
                          _menu_3 00DA     display_dash_screen@reset_flag 005A                  ___awdiv@quotient 004E  
                          _minute 003B                            _second 003C                   ___awmod@divisor 0050  
                 ___awmod@counter 0054                  __end_of_set_date 0C33                  __end_of_set_time 1800  
                _str_write_EEPROM 1C16                            saved_w 007E                         ??_strncmp 0074  
         __end_of__initialization 0035              __end_of_display_date 07EA              __end_of_display_time 0905  
                 ??_i2c_rep_start 0074               ___bmul@multiplicand 004C                    __pcstackCOMMON 0070  
                    __pidataBANK1 1B2B                     __end_of_alarm 1B19              __size_of_read_EEPROM 0035  
                   __end_of_menu1 11CF                     __end_of_menu2 1273                     __end_of_menu3 1317  
                      dec2bcd@num 005C                     __end_of_times 1014             __size_of_clear_screen 0012  
            __size_of_init_ds1307 001B                 __end_of_i2c_start 1B43                 __end_of_i2c_write 1B61  
            __size_of_read_ds1307 0035               set_event@reset_flag 005A              __size_of_init_config 002B  
                         ??_alarm 0074                 _i2c_wait_for_idle 1B6C              __size_of_init_buzzer 0006  
                         ??_menu1 004F                           ??_menu2 004F                           ??_menu3 004F  
            __size_of_init_timer2 000A                ?_i2c_wait_for_idle 0070                        __pbssBANK0 0020  
                      __pbssBANK1 00A0                         ?_i2c_read 0070               set_event@times_flag 0025  
                       ?_i2c_stop 0070                __size_of_init_clcd 000B         ??_init_display_controller 004A  
                      _clcd_print 1CDE               ??_i2c_wait_for_idle 0074                        _clcd_putch 07EA  
                      _clcd_write 1DE4                        __pmaintext 0C33                   read_ds1307@addr 004A  
                 read_ds1307@data 004B                      _clear_screen 1B79                           ?___bmul 004C  
                      __pintentry 0004                           _ACKSTAT 048E               set_time@minute_flag 0031  
             set_time@second_flag 0032                __size_of_set_event 05B0                           _T2CKPS0 0090  
                         _T2CKPS1 0091       __end_of_read_digital_keypad 1CDE         __end_of_i2c_wait_for_idle 1B79  
                    init_i2c@baud 0055                           _SSPCON2 0091                         ?_get_date 0070  
                       ?_get_time 0070                        __stringtab 1000                        ??_i2c_read 0074  
                      ??_i2c_stop 0074                         ?_init_i2c 0055                 set_date@year_flag 002C  
                       ?_set_date 0056                         ?_set_time 0056                   __size_of___bmul 0017  
                         _dec2bcd 080C                           ___awdiv 1F97                           ___awmod 1E70  
                         ___lldiv 1F2F                       set_date@key 0056                  set_time@new_time 00B2  
                main@control_flag 01A0                           __ptext1 1504                           __ptext2 0039  
                         __ptext3 0905                           __ptext4 1CAF                           __ptext5 1273  
                         __ptext6 11CF                           __ptext7 112B                           __ptext8 1C84  
                         __ptext9 1B4C   __end_of_init_display_controller 112B                           _dur_sec 003D  
               __end_of_init_clcd 080C                      __size_of_isr 0064                  ___awmod@dividend 0052  
                  main@reset_flag 019F                        ??_get_date 004C             __size_of_display_date 0077  
                         main@key 019D                           clrloop0 1B33                        ??_get_time 004C  
                         _strncmp 1E20             __size_of_display_time 00B8                     ??_alarm_event 004C  
                   menu1@menu_pos 0035              end_of_initialization 0035                       set_time@key 0056  
                      ??_init_i2c 0059                     menu2@menu_pos 0034                 __end_of_set_event 05E9  
                     ?_clcd_print 004A                     menu3@menu_pos 0033                       ?_clcd_putch 004C  
                 ___lldiv@divisor 0048                       ?_clcd_write 0074                        _ring_alarm 1317  
                 ___lldiv@counter 0054          __end_of_str_write_EEPROM 1C39      __size_of_display_dash_screen 018A  
                      ??_set_date 0057                        ??_set_time 0057                    set_event@delay 00C0  
                    _display_date 0773                      _display_time 084D        __size_of_i2c_wait_for_idle 000D  
                   i2c_write@data 0074                     clcd_print@str 004A             __end_of_display_event 1504  
                      main@delay1 019A                        main@delay2 0196                        main@delay3 0198  
                      main@delay4 0190                        main@delay5 0192                        main@delay6 0194  
             __end_of_alarm_event 1BB7                        _stop_alarm 1B19                    __end_of___bmul 10BA  
    __size_of_init_digital_keypad 0006                       dec2bcd@ones 0059                       dec2bcd@temp 005B  
                     dec2bcd@tens 005A              set_event@minute_flag 0029               start_initialization 0013  
             __size_of_clcd_print 0033               __size_of_clcd_putch 0015               __size_of_clcd_write 003C  
                       _i2c_start 1B3A                       __end_of_isr 1F2F                         _i2c_write 1B56  
         display_event@reset_flag 004F                 __size_of_i2c_read 0027                 __size_of_i2c_stop 0009  
                     ?_ring_alarm 0070                     ??_read_EEPROM 0075             __end_of_i2c_rep_start 1B6C  
                        ??___bmul 004D                        init_fetch0 1B8B                     ??_init_ds1307 005F  
                     __pdataBANK1 00DA                     ??_read_ds1307 0075                     ??_init_config 0076  
                   ??_init_buzzer 0074                     ??_init_timer2 0074                       __pbssCOMMON 0076  
                       ___latbits 0002                set_event@hour_flag 0028                     __pcstackBANK0 0048  
                   __pcstackBANK3 0190                        ?_i2c_start 0070                        ?_i2c_write 0070  
                   set_date@delay 00C1                       _alarm_event 1B9E                 __size_of_get_date 0035  
               __size_of_get_time 0022                 __size_of_init_i2c 0034                   read_EEPROM@addr 004A  
                 read_EEPROM@data 004B                       ?_stop_alarm 0070                          ?_dec2bcd 0070  
                        ?___awdiv 0048                          ?___awmod 0050                 __size_of_set_date 032E  
                        ?___lldiv 0048                         _clock_reg 0020                 __size_of_set_time 02FC  
             __end_of_read_EEPROM 1DE4                         __pstrings 1000                set_time@reset_flag 005A  
             __end_of_init_ds1307 1BD2               _display_dash_screen 05E9               __size_of_ring_alarm 00AE  
             __end_of_read_ds1307 1D7A                    __size_of_alarm 0006                         _init_clcd 0801  
             __end_of_init_config 1CAF                    __size_of_menu1 00A4                    __size_of_menu2 00A4  
                  __size_of_menu3 00A4                          ?_strncmp 0048               __end_of_init_buzzer 1B25  
    __size_of_read_digital_keypad 002F                     ?_write_ds1307 005D               __end_of_init_timer2 1B56  
        ?_init_display_controller 0070                         _new_event 00CD                        set_event@i 0024  
               interrupt_function 0004                         clear_ram0 1B32                      ??_clcd_print 0076  
                    ??_clcd_putch 0076                      ??_clcd_write 0048              ?_display_dash_screen 0070  
                       _set_event 0039                 ?_str_write_EEPROM 0049                     set_event@flag 0027  
              ??_str_write_EEPROM 004A                set_date@month_flag 002D                set_date@reset_flag 005A  
                     __stringbase 100F               __size_of_stop_alarm 0006                       ??_i2c_start 0074  
              __end_of_clcd_print 1D11                       ??_i2c_write 0074                __end_of_clcd_putch 07FF  
              __end_of_clcd_write 1E20                        ?_init_clcd 0070                    ??_write_ds1307 0076  
             _init_digital_keypad 1B25                          _i2c_read 1C5D                          _i2c_stop 1B43  
           ??_display_dash_screen 0059                     set_time@delay 00C2                       _read_EEPROM 1DAF  
                      ?_set_event 0056                 _byte_write_EEPROM 1BD2                  __size_of_dec2bcd 0041  
               set_event@duration 0023                  __size_of___awdiv 0069                  __size_of___awmod 005B  
            ?_init_digital_keypad 0070                       _init_ds1307 1BB7                  __size_of___lldiv 0068  
                 menu1@reset_flag 0050                ?_byte_write_EEPROM 0075                __end_of__stringtab 1010  
                     _read_ds1307 1D45                      set_date@flag 002B                       _init_config 1C84  
                     _init_buzzer 1B1F                 set_time@hour_flag 0030                          _date_reg 00B9  
                     _init_timer2 1B4C               ??_byte_write_EEPROM 0076                          __ptext10 1D11  
                        __ptext11 1F2F                          __ptext20 1317                          __ptext12 1BB7  
                        __ptext21 1E20                          __ptext13 1C39                          __ptext30 1D45  
                        __ptext22 1B19                          __ptext14 1B25                          __ptext31 1B61  
                        __ptext23 1DAF                          __ptext15 0801                          __ptext40 1B9E  
                        __ptext32 1C5D                          __ptext24 1B13                          __ptext16 10BA  
                        __ptext41 1C16                          __ptext33 1B79                          __ptext25 084D  
                        __ptext17 1B1F                          __ptext42 1BD2                          __ptext34 07EA  
                        __ptext26 1BF4                          __ptext18 13C5                          __ptext43 1B56  
                        __ptext35 1CDE                          __ptext27 10A3                          __ptext19 05E9  
                        __ptext44 1B43                          __ptext36 1DE4                          __ptext28 0773  
                        __ptext45 1B3A                          __ptext37 080C                          __ptext29 1D7A  
                        __ptext46 1B6C                          __ptext38 1E70                          __ptext47 1ECB  
                        __ptext39 1F97                          _get_date 1D7A                          _get_time 1BF4  
                __size_of_strncmp 0050                   menu2@reset_flag 0050                          _init_i2c 1D11  
                   __size_of_main 03CD           read_digital_keypad@mode 0075           read_digital_keypad@once 00E0  
                      strncmp@len 004A                      ??_ring_alarm 0050                          _set_date 0905  
                   ?_clear_screen 0070         __end_of_byte_write_EEPROM 1BF4                          _set_time 1504  
                    set_event@key 0056             ??_init_digital_keypad 0074                   menu3@reset_flag 0050  
          __size_of_display_event 013F                          menu1@key 004E                          menu2@key 004E  
                        menu3@key 004E                       _second_time 00D7                          isr@count 00BD  
                    set_time@flag 002F                          init_ram0 1B8F                __end_of_ring_alarm 13C5  
                     ??_init_clcd 0076                      ?_alarm_event 0070                          intlevel1 0000  
            str_write_EEPROM@addr 004B              str_write_EEPROM@data 0049                  ___lldiv@dividend 004C  
                    ??_stop_alarm 0074                         strncmp@s1 004C                         strncmp@s2 0048  
                       stringcode 100A                    ??_clear_screen 004A                       ??_set_event 0057  
            __end_of_write_ds1307 1C5D               _read_digital_keypad 1CAF            set_event@duration_flag 0026  
                ___lldiv@quotient 0050                          stringdir 100A                          stringtab 1000  
              __end_of_stop_alarm 1B1F                       _return_time 0076            __size_of_i2c_rep_start 000B  
            ?_read_digital_keypad 0070                  write_ds1307@addr 005E                  write_ds1307@data 005D  
                   _display_event 13C5              ring_alarm@alarm_flag 00BF        __size_of_byte_write_EEPROM 0022  
